
raydio103.elf:     file format elf32-littlearm

Sections:
Idx Name          Size      VMA       LMA       File off  Algn
  0 .isr_vector   0000010c  08000000  08000000  00010000  2**0
                  CONTENTS, ALLOC, LOAD, READONLY, DATA
  1 .text         000086d4  0800010c  0800010c  0001010c  2**2
                  CONTENTS, ALLOC, LOAD, READONLY, CODE
  2 .rodata       00000528  080087e0  080087e0  000187e0  2**2
                  CONTENTS, ALLOC, LOAD, READONLY, DATA
  3 .ARM.extab    00000000  08008d08  08008d08  000201bc  2**0
                  CONTENTS
  4 .ARM          00000000  08008d08  08008d08  000201bc  2**0
                  CONTENTS
  5 .preinit_array 00000000  08008d08  08008d08  000201bc  2**0
                  CONTENTS, ALLOC, LOAD, DATA
  6 .init_array   00000004  08008d08  08008d08  00018d08  2**2
                  CONTENTS, ALLOC, LOAD, DATA
  7 .fini_array   00000004  08008d0c  08008d0c  00018d0c  2**2
                  CONTENTS, ALLOC, LOAD, DATA
  8 .data         000001bc  20000000  08008d10  00020000  2**2
                  CONTENTS, ALLOC, LOAD, DATA
  9 .bss          00002710  200001bc  08008ecc  000201bc  2**2
                  ALLOC
 10 ._user_heap_stack 00000604  200028cc  08008ecc  000228cc  2**0
                  ALLOC
 11 .ARM.attributes 00000029  00000000  00000000  000201bc  2**0
                  CONTENTS, READONLY
 12 .comment      000000c0  00000000  00000000  000201e5  2**0
                  CONTENTS, READONLY
 13 .debug_info   000023b6  00000000  00000000  000202a5  2**0
                  CONTENTS, READONLY, DEBUGGING, OCTETS
 14 .debug_abbrev 00000a31  00000000  00000000  0002265b  2**0
                  CONTENTS, READONLY, DEBUGGING, OCTETS
 15 .debug_loc    0000319b  00000000  00000000  0002308c  2**0
                  CONTENTS, READONLY, DEBUGGING, OCTETS
 16 .debug_aranges 000001a0  00000000  00000000  00026228  2**3
                  CONTENTS, READONLY, DEBUGGING, OCTETS
 17 .debug_ranges 00000148  00000000  00000000  000263c8  2**0
                  CONTENTS, READONLY, DEBUGGING, OCTETS
 18 .debug_line   00001e01  00000000  00000000  00026510  2**0
                  CONTENTS, READONLY, DEBUGGING, OCTETS
 19 .debug_str    00000830  00000000  00000000  00028311  2**0
                  CONTENTS, READONLY, DEBUGGING, OCTETS
 20 .debug_frame  000011a8  00000000  00000000  00028b44  2**2
                  CONTENTS, READONLY, DEBUGGING, OCTETS

Disassembly of section .text:

0800010c <__do_global_dtors_aux>:
 800010c:	b510      	push	{r4, lr}
 800010e:	4c05      	ldr	r4, [pc, #20]	; (8000124 <__do_global_dtors_aux+0x18>)
 8000110:	7823      	ldrb	r3, [r4, #0]
 8000112:	b933      	cbnz	r3, 8000122 <__do_global_dtors_aux+0x16>
 8000114:	4b04      	ldr	r3, [pc, #16]	; (8000128 <__do_global_dtors_aux+0x1c>)
 8000116:	b113      	cbz	r3, 800011e <__do_global_dtors_aux+0x12>
 8000118:	4804      	ldr	r0, [pc, #16]	; (800012c <__do_global_dtors_aux+0x20>)
 800011a:	f3af 8000 	nop.w
 800011e:	2301      	movs	r3, #1
 8000120:	7023      	strb	r3, [r4, #0]
 8000122:	bd10      	pop	{r4, pc}
 8000124:	200001bc 	.word	0x200001bc
 8000128:	00000000 	.word	0x00000000
 800012c:	080087c8 	.word	0x080087c8

08000130 <frame_dummy>:
 8000130:	b508      	push	{r3, lr}
 8000132:	4b03      	ldr	r3, [pc, #12]	; (8000140 <frame_dummy+0x10>)
 8000134:	b11b      	cbz	r3, 800013e <frame_dummy+0xe>
 8000136:	4903      	ldr	r1, [pc, #12]	; (8000144 <frame_dummy+0x14>)
 8000138:	4803      	ldr	r0, [pc, #12]	; (8000148 <frame_dummy+0x18>)
 800013a:	f3af 8000 	nop.w
 800013e:	bd08      	pop	{r3, pc}
 8000140:	00000000 	.word	0x00000000
 8000144:	200001c0 	.word	0x200001c0
 8000148:	080087c8 	.word	0x080087c8

0800014c <arm_bitreversal_32>:
 800014c:	1c4b      	adds	r3, r1, #1
 800014e:	2b01      	cmp	r3, #1
 8000150:	bf98      	it	ls
 8000152:	4770      	bxls	lr
 8000154:	e92d 03f0 	stmdb	sp!, {r4, r5, r6, r7, r8, r9}
 8000158:	1c91      	adds	r1, r2, #2
 800015a:	089b      	lsrs	r3, r3, #2

0800015c <arm_bitreversal_32_0>:
 800015c:	f8b1 8004 	ldrh.w	r8, [r1, #4]
 8000160:	f8b1 9002 	ldrh.w	r9, [r1, #2]
 8000164:	880a      	ldrh	r2, [r1, #0]
 8000166:	f831 cc02 	ldrh.w	ip, [r1, #-2]
 800016a:	4480      	add	r8, r0
 800016c:	4481      	add	r9, r0
 800016e:	4402      	add	r2, r0
 8000170:	4484      	add	ip, r0
 8000172:	f8d9 7000 	ldr.w	r7, [r9]
 8000176:	f8d8 6000 	ldr.w	r6, [r8]
 800017a:	6815      	ldr	r5, [r2, #0]
 800017c:	f8dc 4000 	ldr.w	r4, [ip]
 8000180:	f8c9 6000 	str.w	r6, [r9]
 8000184:	f8c8 7000 	str.w	r7, [r8]
 8000188:	f8cc 5000 	str.w	r5, [ip]
 800018c:	6014      	str	r4, [r2, #0]
 800018e:	f8d9 7004 	ldr.w	r7, [r9, #4]
 8000192:	f8d8 6004 	ldr.w	r6, [r8, #4]
 8000196:	6855      	ldr	r5, [r2, #4]
 8000198:	f8dc 4004 	ldr.w	r4, [ip, #4]
 800019c:	f8c9 6004 	str.w	r6, [r9, #4]
 80001a0:	f8c8 7004 	str.w	r7, [r8, #4]
 80001a4:	f8cc 5004 	str.w	r5, [ip, #4]
 80001a8:	6054      	str	r4, [r2, #4]
 80001aa:	3108      	adds	r1, #8
 80001ac:	3b01      	subs	r3, #1
 80001ae:	d1d5      	bne.n	800015c <arm_bitreversal_32_0>
 80001b0:	e8bd 03f0 	ldmia.w	sp!, {r4, r5, r6, r7, r8, r9}
 80001b4:	4770      	bx	lr

080001b6 <arm_bitreversal_16>:
 80001b6:	1c4b      	adds	r3, r1, #1
 80001b8:	2b01      	cmp	r3, #1
 80001ba:	bf98      	it	ls
 80001bc:	4770      	bxls	lr
 80001be:	e92d 03f0 	stmdb	sp!, {r4, r5, r6, r7, r8, r9}
 80001c2:	1c91      	adds	r1, r2, #2
 80001c4:	089b      	lsrs	r3, r3, #2

080001c6 <arm_bitreversal_16_0>:
 80001c6:	f8b1 8004 	ldrh.w	r8, [r1, #4]
 80001ca:	f8b1 9002 	ldrh.w	r9, [r1, #2]
 80001ce:	880a      	ldrh	r2, [r1, #0]
 80001d0:	f831 cc02 	ldrh.w	ip, [r1, #-2]
 80001d4:	eb00 0858 	add.w	r8, r0, r8, lsr #1
 80001d8:	eb00 0959 	add.w	r9, r0, r9, lsr #1
 80001dc:	eb00 0252 	add.w	r2, r0, r2, lsr #1
 80001e0:	eb00 0c5c 	add.w	ip, r0, ip, lsr #1
 80001e4:	f8d9 7000 	ldr.w	r7, [r9]
 80001e8:	f8d8 6000 	ldr.w	r6, [r8]
 80001ec:	6815      	ldr	r5, [r2, #0]
 80001ee:	f8dc 4000 	ldr.w	r4, [ip]
 80001f2:	f8c9 6000 	str.w	r6, [r9]
 80001f6:	f8c8 7000 	str.w	r7, [r8]
 80001fa:	f8cc 5000 	str.w	r5, [ip]
 80001fe:	6014      	str	r4, [r2, #0]
 8000200:	3108      	adds	r1, #8
 8000202:	3b01      	subs	r3, #1
 8000204:	d1df      	bne.n	80001c6 <arm_bitreversal_16_0>
 8000206:	e8bd 03f0 	ldmia.w	sp!, {r4, r5, r6, r7, r8, r9}
 800020a:	4770      	bx	lr

0800020c <strlen>:
 800020c:	4603      	mov	r3, r0
 800020e:	f813 2b01 	ldrb.w	r2, [r3], #1
 8000212:	2a00      	cmp	r2, #0
 8000214:	d1fb      	bne.n	800020e <strlen+0x2>
 8000216:	1a18      	subs	r0, r3, r0
 8000218:	3801      	subs	r0, #1
 800021a:	4770      	bx	lr

0800021c <__aeabi_dmul>:
 800021c:	b570      	push	{r4, r5, r6, lr}
 800021e:	f04f 0cff 	mov.w	ip, #255	; 0xff
 8000222:	f44c 6ce0 	orr.w	ip, ip, #1792	; 0x700
 8000226:	ea1c 5411 	ands.w	r4, ip, r1, lsr #20
 800022a:	bf1d      	ittte	ne
 800022c:	ea1c 5513 	andsne.w	r5, ip, r3, lsr #20
 8000230:	ea94 0f0c 	teqne	r4, ip
 8000234:	ea95 0f0c 	teqne	r5, ip
 8000238:	f000 f8de 	bleq	80003f8 <__aeabi_dmul+0x1dc>
 800023c:	442c      	add	r4, r5
 800023e:	ea81 0603 	eor.w	r6, r1, r3
 8000242:	ea21 514c 	bic.w	r1, r1, ip, lsl #21
 8000246:	ea23 534c 	bic.w	r3, r3, ip, lsl #21
 800024a:	ea50 3501 	orrs.w	r5, r0, r1, lsl #12
 800024e:	bf18      	it	ne
 8000250:	ea52 3503 	orrsne.w	r5, r2, r3, lsl #12
 8000254:	f441 1180 	orr.w	r1, r1, #1048576	; 0x100000
 8000258:	f443 1380 	orr.w	r3, r3, #1048576	; 0x100000
 800025c:	d038      	beq.n	80002d0 <__aeabi_dmul+0xb4>
 800025e:	fba0 ce02 	umull	ip, lr, r0, r2
 8000262:	f04f 0500 	mov.w	r5, #0
 8000266:	fbe1 e502 	umlal	lr, r5, r1, r2
 800026a:	f006 4200 	and.w	r2, r6, #2147483648	; 0x80000000
 800026e:	fbe0 e503 	umlal	lr, r5, r0, r3
 8000272:	f04f 0600 	mov.w	r6, #0
 8000276:	fbe1 5603 	umlal	r5, r6, r1, r3
 800027a:	f09c 0f00 	teq	ip, #0
 800027e:	bf18      	it	ne
 8000280:	f04e 0e01 	orrne.w	lr, lr, #1
 8000284:	f1a4 04ff 	sub.w	r4, r4, #255	; 0xff
 8000288:	f5b6 7f00 	cmp.w	r6, #512	; 0x200
 800028c:	f564 7440 	sbc.w	r4, r4, #768	; 0x300
 8000290:	d204      	bcs.n	800029c <__aeabi_dmul+0x80>
 8000292:	ea5f 0e4e 	movs.w	lr, lr, lsl #1
 8000296:	416d      	adcs	r5, r5
 8000298:	eb46 0606 	adc.w	r6, r6, r6
 800029c:	ea42 21c6 	orr.w	r1, r2, r6, lsl #11
 80002a0:	ea41 5155 	orr.w	r1, r1, r5, lsr #21
 80002a4:	ea4f 20c5 	mov.w	r0, r5, lsl #11
 80002a8:	ea40 505e 	orr.w	r0, r0, lr, lsr #21
 80002ac:	ea4f 2ece 	mov.w	lr, lr, lsl #11
 80002b0:	f1b4 0cfd 	subs.w	ip, r4, #253	; 0xfd
 80002b4:	bf88      	it	hi
 80002b6:	f5bc 6fe0 	cmphi.w	ip, #1792	; 0x700
 80002ba:	d81e      	bhi.n	80002fa <__aeabi_dmul+0xde>
 80002bc:	f1be 4f00 	cmp.w	lr, #2147483648	; 0x80000000
 80002c0:	bf08      	it	eq
 80002c2:	ea5f 0e50 	movseq.w	lr, r0, lsr #1
 80002c6:	f150 0000 	adcs.w	r0, r0, #0
 80002ca:	eb41 5104 	adc.w	r1, r1, r4, lsl #20
 80002ce:	bd70      	pop	{r4, r5, r6, pc}
 80002d0:	f006 4600 	and.w	r6, r6, #2147483648	; 0x80000000
 80002d4:	ea46 0101 	orr.w	r1, r6, r1
 80002d8:	ea40 0002 	orr.w	r0, r0, r2
 80002dc:	ea81 0103 	eor.w	r1, r1, r3
 80002e0:	ebb4 045c 	subs.w	r4, r4, ip, lsr #1
 80002e4:	bfc2      	ittt	gt
 80002e6:	ebd4 050c 	rsbsgt	r5, r4, ip
 80002ea:	ea41 5104 	orrgt.w	r1, r1, r4, lsl #20
 80002ee:	bd70      	popgt	{r4, r5, r6, pc}
 80002f0:	f441 1180 	orr.w	r1, r1, #1048576	; 0x100000
 80002f4:	f04f 0e00 	mov.w	lr, #0
 80002f8:	3c01      	subs	r4, #1
 80002fa:	f300 80ab 	bgt.w	8000454 <__aeabi_dmul+0x238>
 80002fe:	f114 0f36 	cmn.w	r4, #54	; 0x36
 8000302:	bfde      	ittt	le
 8000304:	2000      	movle	r0, #0
 8000306:	f001 4100 	andle.w	r1, r1, #2147483648	; 0x80000000
 800030a:	bd70      	pople	{r4, r5, r6, pc}
 800030c:	f1c4 0400 	rsb	r4, r4, #0
 8000310:	3c20      	subs	r4, #32
 8000312:	da35      	bge.n	8000380 <__aeabi_dmul+0x164>
 8000314:	340c      	adds	r4, #12
 8000316:	dc1b      	bgt.n	8000350 <__aeabi_dmul+0x134>
 8000318:	f104 0414 	add.w	r4, r4, #20
 800031c:	f1c4 0520 	rsb	r5, r4, #32
 8000320:	fa00 f305 	lsl.w	r3, r0, r5
 8000324:	fa20 f004 	lsr.w	r0, r0, r4
 8000328:	fa01 f205 	lsl.w	r2, r1, r5
 800032c:	ea40 0002 	orr.w	r0, r0, r2
 8000330:	f001 4200 	and.w	r2, r1, #2147483648	; 0x80000000
 8000334:	f021 4100 	bic.w	r1, r1, #2147483648	; 0x80000000
 8000338:	eb10 70d3 	adds.w	r0, r0, r3, lsr #31
 800033c:	fa21 f604 	lsr.w	r6, r1, r4
 8000340:	eb42 0106 	adc.w	r1, r2, r6
 8000344:	ea5e 0e43 	orrs.w	lr, lr, r3, lsl #1
 8000348:	bf08      	it	eq
 800034a:	ea20 70d3 	biceq.w	r0, r0, r3, lsr #31
 800034e:	bd70      	pop	{r4, r5, r6, pc}
 8000350:	f1c4 040c 	rsb	r4, r4, #12
 8000354:	f1c4 0520 	rsb	r5, r4, #32
 8000358:	fa00 f304 	lsl.w	r3, r0, r4
 800035c:	fa20 f005 	lsr.w	r0, r0, r5
 8000360:	fa01 f204 	lsl.w	r2, r1, r4
 8000364:	ea40 0002 	orr.w	r0, r0, r2
 8000368:	f001 4100 	and.w	r1, r1, #2147483648	; 0x80000000
 800036c:	eb10 70d3 	adds.w	r0, r0, r3, lsr #31
 8000370:	f141 0100 	adc.w	r1, r1, #0
 8000374:	ea5e 0e43 	orrs.w	lr, lr, r3, lsl #1
 8000378:	bf08      	it	eq
 800037a:	ea20 70d3 	biceq.w	r0, r0, r3, lsr #31
 800037e:	bd70      	pop	{r4, r5, r6, pc}
 8000380:	f1c4 0520 	rsb	r5, r4, #32
 8000384:	fa00 f205 	lsl.w	r2, r0, r5
 8000388:	ea4e 0e02 	orr.w	lr, lr, r2
 800038c:	fa20 f304 	lsr.w	r3, r0, r4
 8000390:	fa01 f205 	lsl.w	r2, r1, r5
 8000394:	ea43 0302 	orr.w	r3, r3, r2
 8000398:	fa21 f004 	lsr.w	r0, r1, r4
 800039c:	f001 4100 	and.w	r1, r1, #2147483648	; 0x80000000
 80003a0:	fa21 f204 	lsr.w	r2, r1, r4
 80003a4:	ea20 0002 	bic.w	r0, r0, r2
 80003a8:	eb00 70d3 	add.w	r0, r0, r3, lsr #31
 80003ac:	ea5e 0e43 	orrs.w	lr, lr, r3, lsl #1
 80003b0:	bf08      	it	eq
 80003b2:	ea20 70d3 	biceq.w	r0, r0, r3, lsr #31
 80003b6:	bd70      	pop	{r4, r5, r6, pc}
 80003b8:	f094 0f00 	teq	r4, #0
 80003bc:	d10f      	bne.n	80003de <__aeabi_dmul+0x1c2>
 80003be:	f001 4600 	and.w	r6, r1, #2147483648	; 0x80000000
 80003c2:	0040      	lsls	r0, r0, #1
 80003c4:	eb41 0101 	adc.w	r1, r1, r1
 80003c8:	f411 1f80 	tst.w	r1, #1048576	; 0x100000
 80003cc:	bf08      	it	eq
 80003ce:	3c01      	subeq	r4, #1
 80003d0:	d0f7      	beq.n	80003c2 <__aeabi_dmul+0x1a6>
 80003d2:	ea41 0106 	orr.w	r1, r1, r6
 80003d6:	f095 0f00 	teq	r5, #0
 80003da:	bf18      	it	ne
 80003dc:	4770      	bxne	lr
 80003de:	f003 4600 	and.w	r6, r3, #2147483648	; 0x80000000
 80003e2:	0052      	lsls	r2, r2, #1
 80003e4:	eb43 0303 	adc.w	r3, r3, r3
 80003e8:	f413 1f80 	tst.w	r3, #1048576	; 0x100000
 80003ec:	bf08      	it	eq
 80003ee:	3d01      	subeq	r5, #1
 80003f0:	d0f7      	beq.n	80003e2 <__aeabi_dmul+0x1c6>
 80003f2:	ea43 0306 	orr.w	r3, r3, r6
 80003f6:	4770      	bx	lr
 80003f8:	ea94 0f0c 	teq	r4, ip
 80003fc:	ea0c 5513 	and.w	r5, ip, r3, lsr #20
 8000400:	bf18      	it	ne
 8000402:	ea95 0f0c 	teqne	r5, ip
 8000406:	d00c      	beq.n	8000422 <__aeabi_dmul+0x206>
 8000408:	ea50 0641 	orrs.w	r6, r0, r1, lsl #1
 800040c:	bf18      	it	ne
 800040e:	ea52 0643 	orrsne.w	r6, r2, r3, lsl #1
 8000412:	d1d1      	bne.n	80003b8 <__aeabi_dmul+0x19c>
 8000414:	ea81 0103 	eor.w	r1, r1, r3
 8000418:	f001 4100 	and.w	r1, r1, #2147483648	; 0x80000000
 800041c:	f04f 0000 	mov.w	r0, #0
 8000420:	bd70      	pop	{r4, r5, r6, pc}
 8000422:	ea50 0641 	orrs.w	r6, r0, r1, lsl #1
 8000426:	bf06      	itte	eq
 8000428:	4610      	moveq	r0, r2
 800042a:	4619      	moveq	r1, r3
 800042c:	ea52 0643 	orrsne.w	r6, r2, r3, lsl #1
 8000430:	d019      	beq.n	8000466 <__aeabi_dmul+0x24a>
 8000432:	ea94 0f0c 	teq	r4, ip
 8000436:	d102      	bne.n	800043e <__aeabi_dmul+0x222>
 8000438:	ea50 3601 	orrs.w	r6, r0, r1, lsl #12
 800043c:	d113      	bne.n	8000466 <__aeabi_dmul+0x24a>
 800043e:	ea95 0f0c 	teq	r5, ip
 8000442:	d105      	bne.n	8000450 <__aeabi_dmul+0x234>
 8000444:	ea52 3603 	orrs.w	r6, r2, r3, lsl #12
 8000448:	bf1c      	itt	ne
 800044a:	4610      	movne	r0, r2
 800044c:	4619      	movne	r1, r3
 800044e:	d10a      	bne.n	8000466 <__aeabi_dmul+0x24a>
 8000450:	ea81 0103 	eor.w	r1, r1, r3
 8000454:	f001 4100 	and.w	r1, r1, #2147483648	; 0x80000000
 8000458:	f041 41fe 	orr.w	r1, r1, #2130706432	; 0x7f000000
 800045c:	f441 0170 	orr.w	r1, r1, #15728640	; 0xf00000
 8000460:	f04f 0000 	mov.w	r0, #0
 8000464:	bd70      	pop	{r4, r5, r6, pc}
 8000466:	f041 41fe 	orr.w	r1, r1, #2130706432	; 0x7f000000
 800046a:	f441 0178 	orr.w	r1, r1, #16252928	; 0xf80000
 800046e:	bd70      	pop	{r4, r5, r6, pc}

08000470 <__aeabi_drsub>:
 8000470:	f081 4100 	eor.w	r1, r1, #2147483648	; 0x80000000
 8000474:	e002      	b.n	800047c <__adddf3>
 8000476:	bf00      	nop

08000478 <__aeabi_dsub>:
 8000478:	f083 4300 	eor.w	r3, r3, #2147483648	; 0x80000000

0800047c <__adddf3>:
 800047c:	b530      	push	{r4, r5, lr}
 800047e:	ea4f 0441 	mov.w	r4, r1, lsl #1
 8000482:	ea4f 0543 	mov.w	r5, r3, lsl #1
 8000486:	ea94 0f05 	teq	r4, r5
 800048a:	bf08      	it	eq
 800048c:	ea90 0f02 	teqeq	r0, r2
 8000490:	bf1f      	itttt	ne
 8000492:	ea54 0c00 	orrsne.w	ip, r4, r0
 8000496:	ea55 0c02 	orrsne.w	ip, r5, r2
 800049a:	ea7f 5c64 	mvnsne.w	ip, r4, asr #21
 800049e:	ea7f 5c65 	mvnsne.w	ip, r5, asr #21
 80004a2:	f000 80e2 	beq.w	800066a <__adddf3+0x1ee>
 80004a6:	ea4f 5454 	mov.w	r4, r4, lsr #21
 80004aa:	ebd4 5555 	rsbs	r5, r4, r5, lsr #21
 80004ae:	bfb8      	it	lt
 80004b0:	426d      	neglt	r5, r5
 80004b2:	dd0c      	ble.n	80004ce <__adddf3+0x52>
 80004b4:	442c      	add	r4, r5
 80004b6:	ea80 0202 	eor.w	r2, r0, r2
 80004ba:	ea81 0303 	eor.w	r3, r1, r3
 80004be:	ea82 0000 	eor.w	r0, r2, r0
 80004c2:	ea83 0101 	eor.w	r1, r3, r1
 80004c6:	ea80 0202 	eor.w	r2, r0, r2
 80004ca:	ea81 0303 	eor.w	r3, r1, r3
 80004ce:	2d36      	cmp	r5, #54	; 0x36
 80004d0:	bf88      	it	hi
 80004d2:	bd30      	pophi	{r4, r5, pc}
 80004d4:	f011 4f00 	tst.w	r1, #2147483648	; 0x80000000
 80004d8:	ea4f 3101 	mov.w	r1, r1, lsl #12
 80004dc:	f44f 1c80 	mov.w	ip, #1048576	; 0x100000
 80004e0:	ea4c 3111 	orr.w	r1, ip, r1, lsr #12
 80004e4:	d002      	beq.n	80004ec <__adddf3+0x70>
 80004e6:	4240      	negs	r0, r0
 80004e8:	eb61 0141 	sbc.w	r1, r1, r1, lsl #1
 80004ec:	f013 4f00 	tst.w	r3, #2147483648	; 0x80000000
 80004f0:	ea4f 3303 	mov.w	r3, r3, lsl #12
 80004f4:	ea4c 3313 	orr.w	r3, ip, r3, lsr #12
 80004f8:	d002      	beq.n	8000500 <__adddf3+0x84>
 80004fa:	4252      	negs	r2, r2
 80004fc:	eb63 0343 	sbc.w	r3, r3, r3, lsl #1
 8000500:	ea94 0f05 	teq	r4, r5
 8000504:	f000 80a7 	beq.w	8000656 <__adddf3+0x1da>
 8000508:	f1a4 0401 	sub.w	r4, r4, #1
 800050c:	f1d5 0e20 	rsbs	lr, r5, #32
 8000510:	db0d      	blt.n	800052e <__adddf3+0xb2>
 8000512:	fa02 fc0e 	lsl.w	ip, r2, lr
 8000516:	fa22 f205 	lsr.w	r2, r2, r5
 800051a:	1880      	adds	r0, r0, r2
 800051c:	f141 0100 	adc.w	r1, r1, #0
 8000520:	fa03 f20e 	lsl.w	r2, r3, lr
 8000524:	1880      	adds	r0, r0, r2
 8000526:	fa43 f305 	asr.w	r3, r3, r5
 800052a:	4159      	adcs	r1, r3
 800052c:	e00e      	b.n	800054c <__adddf3+0xd0>
 800052e:	f1a5 0520 	sub.w	r5, r5, #32
 8000532:	f10e 0e20 	add.w	lr, lr, #32
 8000536:	2a01      	cmp	r2, #1
 8000538:	fa03 fc0e 	lsl.w	ip, r3, lr
 800053c:	bf28      	it	cs
 800053e:	f04c 0c02 	orrcs.w	ip, ip, #2
 8000542:	fa43 f305 	asr.w	r3, r3, r5
 8000546:	18c0      	adds	r0, r0, r3
 8000548:	eb51 71e3 	adcs.w	r1, r1, r3, asr #31
 800054c:	f001 4500 	and.w	r5, r1, #2147483648	; 0x80000000
 8000550:	d507      	bpl.n	8000562 <__adddf3+0xe6>
 8000552:	f04f 0e00 	mov.w	lr, #0
 8000556:	f1dc 0c00 	rsbs	ip, ip, #0
 800055a:	eb7e 0000 	sbcs.w	r0, lr, r0
 800055e:	eb6e 0101 	sbc.w	r1, lr, r1
 8000562:	f5b1 1f80 	cmp.w	r1, #1048576	; 0x100000
 8000566:	d31b      	bcc.n	80005a0 <__adddf3+0x124>
 8000568:	f5b1 1f00 	cmp.w	r1, #2097152	; 0x200000
 800056c:	d30c      	bcc.n	8000588 <__adddf3+0x10c>
 800056e:	0849      	lsrs	r1, r1, #1
 8000570:	ea5f 0030 	movs.w	r0, r0, rrx
 8000574:	ea4f 0c3c 	mov.w	ip, ip, rrx
 8000578:	f104 0401 	add.w	r4, r4, #1
 800057c:	ea4f 5244 	mov.w	r2, r4, lsl #21
 8000580:	f512 0f80 	cmn.w	r2, #4194304	; 0x400000
 8000584:	f080 809a 	bcs.w	80006bc <__adddf3+0x240>
 8000588:	f1bc 4f00 	cmp.w	ip, #2147483648	; 0x80000000
 800058c:	bf08      	it	eq
 800058e:	ea5f 0c50 	movseq.w	ip, r0, lsr #1
 8000592:	f150 0000 	adcs.w	r0, r0, #0
 8000596:	eb41 5104 	adc.w	r1, r1, r4, lsl #20
 800059a:	ea41 0105 	orr.w	r1, r1, r5
 800059e:	bd30      	pop	{r4, r5, pc}
 80005a0:	ea5f 0c4c 	movs.w	ip, ip, lsl #1
 80005a4:	4140      	adcs	r0, r0
 80005a6:	eb41 0101 	adc.w	r1, r1, r1
 80005aa:	3c01      	subs	r4, #1
 80005ac:	bf28      	it	cs
 80005ae:	f5b1 1f80 	cmpcs.w	r1, #1048576	; 0x100000
 80005b2:	d2e9      	bcs.n	8000588 <__adddf3+0x10c>
 80005b4:	f091 0f00 	teq	r1, #0
 80005b8:	bf04      	itt	eq
 80005ba:	4601      	moveq	r1, r0
 80005bc:	2000      	moveq	r0, #0
 80005be:	fab1 f381 	clz	r3, r1
 80005c2:	bf08      	it	eq
 80005c4:	3320      	addeq	r3, #32
 80005c6:	f1a3 030b 	sub.w	r3, r3, #11
 80005ca:	f1b3 0220 	subs.w	r2, r3, #32
 80005ce:	da0c      	bge.n	80005ea <__adddf3+0x16e>
 80005d0:	320c      	adds	r2, #12
 80005d2:	dd08      	ble.n	80005e6 <__adddf3+0x16a>
 80005d4:	f102 0c14 	add.w	ip, r2, #20
 80005d8:	f1c2 020c 	rsb	r2, r2, #12
 80005dc:	fa01 f00c 	lsl.w	r0, r1, ip
 80005e0:	fa21 f102 	lsr.w	r1, r1, r2
 80005e4:	e00c      	b.n	8000600 <__adddf3+0x184>
 80005e6:	f102 0214 	add.w	r2, r2, #20
 80005ea:	bfd8      	it	le
 80005ec:	f1c2 0c20 	rsble	ip, r2, #32
 80005f0:	fa01 f102 	lsl.w	r1, r1, r2
 80005f4:	fa20 fc0c 	lsr.w	ip, r0, ip
 80005f8:	bfdc      	itt	le
 80005fa:	ea41 010c 	orrle.w	r1, r1, ip
 80005fe:	4090      	lslle	r0, r2
 8000600:	1ae4      	subs	r4, r4, r3
 8000602:	bfa2      	ittt	ge
 8000604:	eb01 5104 	addge.w	r1, r1, r4, lsl #20
 8000608:	4329      	orrge	r1, r5
 800060a:	bd30      	popge	{r4, r5, pc}
 800060c:	ea6f 0404 	mvn.w	r4, r4
 8000610:	3c1f      	subs	r4, #31
 8000612:	da1c      	bge.n	800064e <__adddf3+0x1d2>
 8000614:	340c      	adds	r4, #12
 8000616:	dc0e      	bgt.n	8000636 <__adddf3+0x1ba>
 8000618:	f104 0414 	add.w	r4, r4, #20
 800061c:	f1c4 0220 	rsb	r2, r4, #32
 8000620:	fa20 f004 	lsr.w	r0, r0, r4
 8000624:	fa01 f302 	lsl.w	r3, r1, r2
 8000628:	ea40 0003 	orr.w	r0, r0, r3
 800062c:	fa21 f304 	lsr.w	r3, r1, r4
 8000630:	ea45 0103 	orr.w	r1, r5, r3
 8000634:	bd30      	pop	{r4, r5, pc}
 8000636:	f1c4 040c 	rsb	r4, r4, #12
 800063a:	f1c4 0220 	rsb	r2, r4, #32
 800063e:	fa20 f002 	lsr.w	r0, r0, r2
 8000642:	fa01 f304 	lsl.w	r3, r1, r4
 8000646:	ea40 0003 	orr.w	r0, r0, r3
 800064a:	4629      	mov	r1, r5
 800064c:	bd30      	pop	{r4, r5, pc}
 800064e:	fa21 f004 	lsr.w	r0, r1, r4
 8000652:	4629      	mov	r1, r5
 8000654:	bd30      	pop	{r4, r5, pc}
 8000656:	f094 0f00 	teq	r4, #0
 800065a:	f483 1380 	eor.w	r3, r3, #1048576	; 0x100000
 800065e:	bf06      	itte	eq
 8000660:	f481 1180 	eoreq.w	r1, r1, #1048576	; 0x100000
 8000664:	3401      	addeq	r4, #1
 8000666:	3d01      	subne	r5, #1
 8000668:	e74e      	b.n	8000508 <__adddf3+0x8c>
 800066a:	ea7f 5c64 	mvns.w	ip, r4, asr #21
 800066e:	bf18      	it	ne
 8000670:	ea7f 5c65 	mvnsne.w	ip, r5, asr #21
 8000674:	d029      	beq.n	80006ca <__adddf3+0x24e>
 8000676:	ea94 0f05 	teq	r4, r5
 800067a:	bf08      	it	eq
 800067c:	ea90 0f02 	teqeq	r0, r2
 8000680:	d005      	beq.n	800068e <__adddf3+0x212>
 8000682:	ea54 0c00 	orrs.w	ip, r4, r0
 8000686:	bf04      	itt	eq
 8000688:	4619      	moveq	r1, r3
 800068a:	4610      	moveq	r0, r2
 800068c:	bd30      	pop	{r4, r5, pc}
 800068e:	ea91 0f03 	teq	r1, r3
 8000692:	bf1e      	ittt	ne
 8000694:	2100      	movne	r1, #0
 8000696:	2000      	movne	r0, #0
 8000698:	bd30      	popne	{r4, r5, pc}
 800069a:	ea5f 5c54 	movs.w	ip, r4, lsr #21
 800069e:	d105      	bne.n	80006ac <__adddf3+0x230>
 80006a0:	0040      	lsls	r0, r0, #1
 80006a2:	4149      	adcs	r1, r1
 80006a4:	bf28      	it	cs
 80006a6:	f041 4100 	orrcs.w	r1, r1, #2147483648	; 0x80000000
 80006aa:	bd30      	pop	{r4, r5, pc}
 80006ac:	f514 0480 	adds.w	r4, r4, #4194304	; 0x400000
 80006b0:	bf3c      	itt	cc
 80006b2:	f501 1180 	addcc.w	r1, r1, #1048576	; 0x100000
 80006b6:	bd30      	popcc	{r4, r5, pc}
 80006b8:	f001 4500 	and.w	r5, r1, #2147483648	; 0x80000000
 80006bc:	f045 41fe 	orr.w	r1, r5, #2130706432	; 0x7f000000
 80006c0:	f441 0170 	orr.w	r1, r1, #15728640	; 0xf00000
 80006c4:	f04f 0000 	mov.w	r0, #0
 80006c8:	bd30      	pop	{r4, r5, pc}
 80006ca:	ea7f 5c64 	mvns.w	ip, r4, asr #21
 80006ce:	bf1a      	itte	ne
 80006d0:	4619      	movne	r1, r3
 80006d2:	4610      	movne	r0, r2
 80006d4:	ea7f 5c65 	mvnseq.w	ip, r5, asr #21
 80006d8:	bf1c      	itt	ne
 80006da:	460b      	movne	r3, r1
 80006dc:	4602      	movne	r2, r0
 80006de:	ea50 3401 	orrs.w	r4, r0, r1, lsl #12
 80006e2:	bf06      	itte	eq
 80006e4:	ea52 3503 	orrseq.w	r5, r2, r3, lsl #12
 80006e8:	ea91 0f03 	teqeq	r1, r3
 80006ec:	f441 2100 	orrne.w	r1, r1, #524288	; 0x80000
 80006f0:	bd30      	pop	{r4, r5, pc}
 80006f2:	bf00      	nop

080006f4 <__aeabi_ui2d>:
 80006f4:	f090 0f00 	teq	r0, #0
 80006f8:	bf04      	itt	eq
 80006fa:	2100      	moveq	r1, #0
 80006fc:	4770      	bxeq	lr
 80006fe:	b530      	push	{r4, r5, lr}
 8000700:	f44f 6480 	mov.w	r4, #1024	; 0x400
 8000704:	f104 0432 	add.w	r4, r4, #50	; 0x32
 8000708:	f04f 0500 	mov.w	r5, #0
 800070c:	f04f 0100 	mov.w	r1, #0
 8000710:	e750      	b.n	80005b4 <__adddf3+0x138>
 8000712:	bf00      	nop

08000714 <__aeabi_i2d>:
 8000714:	f090 0f00 	teq	r0, #0
 8000718:	bf04      	itt	eq
 800071a:	2100      	moveq	r1, #0
 800071c:	4770      	bxeq	lr
 800071e:	b530      	push	{r4, r5, lr}
 8000720:	f44f 6480 	mov.w	r4, #1024	; 0x400
 8000724:	f104 0432 	add.w	r4, r4, #50	; 0x32
 8000728:	f010 4500 	ands.w	r5, r0, #2147483648	; 0x80000000
 800072c:	bf48      	it	mi
 800072e:	4240      	negmi	r0, r0
 8000730:	f04f 0100 	mov.w	r1, #0
 8000734:	e73e      	b.n	80005b4 <__adddf3+0x138>
 8000736:	bf00      	nop

08000738 <__aeabi_f2d>:
 8000738:	0042      	lsls	r2, r0, #1
 800073a:	ea4f 01e2 	mov.w	r1, r2, asr #3
 800073e:	ea4f 0131 	mov.w	r1, r1, rrx
 8000742:	ea4f 7002 	mov.w	r0, r2, lsl #28
 8000746:	bf1f      	itttt	ne
 8000748:	f012 437f 	andsne.w	r3, r2, #4278190080	; 0xff000000
 800074c:	f093 4f7f 	teqne	r3, #4278190080	; 0xff000000
 8000750:	f081 5160 	eorne.w	r1, r1, #939524096	; 0x38000000
 8000754:	4770      	bxne	lr
 8000756:	f032 427f 	bics.w	r2, r2, #4278190080	; 0xff000000
 800075a:	bf08      	it	eq
 800075c:	4770      	bxeq	lr
 800075e:	f093 4f7f 	teq	r3, #4278190080	; 0xff000000
 8000762:	bf04      	itt	eq
 8000764:	f441 2100 	orreq.w	r1, r1, #524288	; 0x80000
 8000768:	4770      	bxeq	lr
 800076a:	b530      	push	{r4, r5, lr}
 800076c:	f44f 7460 	mov.w	r4, #896	; 0x380
 8000770:	f001 4500 	and.w	r5, r1, #2147483648	; 0x80000000
 8000774:	f021 4100 	bic.w	r1, r1, #2147483648	; 0x80000000
 8000778:	e71c      	b.n	80005b4 <__adddf3+0x138>
 800077a:	bf00      	nop

0800077c <__aeabi_ul2d>:
 800077c:	ea50 0201 	orrs.w	r2, r0, r1
 8000780:	bf08      	it	eq
 8000782:	4770      	bxeq	lr
 8000784:	b530      	push	{r4, r5, lr}
 8000786:	f04f 0500 	mov.w	r5, #0
 800078a:	e00a      	b.n	80007a2 <__aeabi_l2d+0x16>

0800078c <__aeabi_l2d>:
 800078c:	ea50 0201 	orrs.w	r2, r0, r1
 8000790:	bf08      	it	eq
 8000792:	4770      	bxeq	lr
 8000794:	b530      	push	{r4, r5, lr}
 8000796:	f011 4500 	ands.w	r5, r1, #2147483648	; 0x80000000
 800079a:	d502      	bpl.n	80007a2 <__aeabi_l2d+0x16>
 800079c:	4240      	negs	r0, r0
 800079e:	eb61 0141 	sbc.w	r1, r1, r1, lsl #1
 80007a2:	f44f 6480 	mov.w	r4, #1024	; 0x400
 80007a6:	f104 0432 	add.w	r4, r4, #50	; 0x32
 80007aa:	ea5f 5c91 	movs.w	ip, r1, lsr #22
 80007ae:	f43f aed8 	beq.w	8000562 <__adddf3+0xe6>
 80007b2:	f04f 0203 	mov.w	r2, #3
 80007b6:	ea5f 0cdc 	movs.w	ip, ip, lsr #3
 80007ba:	bf18      	it	ne
 80007bc:	3203      	addne	r2, #3
 80007be:	ea5f 0cdc 	movs.w	ip, ip, lsr #3
 80007c2:	bf18      	it	ne
 80007c4:	3203      	addne	r2, #3
 80007c6:	eb02 02dc 	add.w	r2, r2, ip, lsr #3
 80007ca:	f1c2 0320 	rsb	r3, r2, #32
 80007ce:	fa00 fc03 	lsl.w	ip, r0, r3
 80007d2:	fa20 f002 	lsr.w	r0, r0, r2
 80007d6:	fa01 fe03 	lsl.w	lr, r1, r3
 80007da:	ea40 000e 	orr.w	r0, r0, lr
 80007de:	fa21 f102 	lsr.w	r1, r1, r2
 80007e2:	4414      	add	r4, r2
 80007e4:	e6bd      	b.n	8000562 <__adddf3+0xe6>
 80007e6:	bf00      	nop

080007e8 <__aeabi_d2f>:
 80007e8:	ea4f 0241 	mov.w	r2, r1, lsl #1
 80007ec:	f1b2 43e0 	subs.w	r3, r2, #1879048192	; 0x70000000
 80007f0:	bf24      	itt	cs
 80007f2:	f5b3 1c00 	subscs.w	ip, r3, #2097152	; 0x200000
 80007f6:	f1dc 5cfe 	rsbscs	ip, ip, #532676608	; 0x1fc00000
 80007fa:	d90d      	bls.n	8000818 <__aeabi_d2f+0x30>
 80007fc:	f001 4c00 	and.w	ip, r1, #2147483648	; 0x80000000
 8000800:	ea4f 02c0 	mov.w	r2, r0, lsl #3
 8000804:	ea4c 7050 	orr.w	r0, ip, r0, lsr #29
 8000808:	f1b2 4f00 	cmp.w	r2, #2147483648	; 0x80000000
 800080c:	eb40 0083 	adc.w	r0, r0, r3, lsl #2
 8000810:	bf08      	it	eq
 8000812:	f020 0001 	biceq.w	r0, r0, #1
 8000816:	4770      	bx	lr
 8000818:	f011 4f80 	tst.w	r1, #1073741824	; 0x40000000
 800081c:	d121      	bne.n	8000862 <__aeabi_d2f+0x7a>
 800081e:	f113 7238 	adds.w	r2, r3, #48234496	; 0x2e00000
 8000822:	bfbc      	itt	lt
 8000824:	f001 4000 	andlt.w	r0, r1, #2147483648	; 0x80000000
 8000828:	4770      	bxlt	lr
 800082a:	f441 1180 	orr.w	r1, r1, #1048576	; 0x100000
 800082e:	ea4f 5252 	mov.w	r2, r2, lsr #21
 8000832:	f1c2 0218 	rsb	r2, r2, #24
 8000836:	f1c2 0c20 	rsb	ip, r2, #32
 800083a:	fa10 f30c 	lsls.w	r3, r0, ip
 800083e:	fa20 f002 	lsr.w	r0, r0, r2
 8000842:	bf18      	it	ne
 8000844:	f040 0001 	orrne.w	r0, r0, #1
 8000848:	ea4f 23c1 	mov.w	r3, r1, lsl #11
 800084c:	ea4f 23d3 	mov.w	r3, r3, lsr #11
 8000850:	fa03 fc0c 	lsl.w	ip, r3, ip
 8000854:	ea40 000c 	orr.w	r0, r0, ip
 8000858:	fa23 f302 	lsr.w	r3, r3, r2
 800085c:	ea4f 0343 	mov.w	r3, r3, lsl #1
 8000860:	e7cc      	b.n	80007fc <__aeabi_d2f+0x14>
 8000862:	ea7f 5362 	mvns.w	r3, r2, asr #21
 8000866:	d107      	bne.n	8000878 <__aeabi_d2f+0x90>
 8000868:	ea50 3301 	orrs.w	r3, r0, r1, lsl #12
 800086c:	bf1e      	ittt	ne
 800086e:	f04f 40fe 	movne.w	r0, #2130706432	; 0x7f000000
 8000872:	f440 0040 	orrne.w	r0, r0, #12582912	; 0xc00000
 8000876:	4770      	bxne	lr
 8000878:	f001 4000 	and.w	r0, r1, #2147483648	; 0x80000000
 800087c:	f040 40fe 	orr.w	r0, r0, #2130706432	; 0x7f000000
 8000880:	f440 0000 	orr.w	r0, r0, #8388608	; 0x800000
 8000884:	4770      	bx	lr
 8000886:	bf00      	nop

08000888 <__aeabi_frsub>:
 8000888:	f080 4000 	eor.w	r0, r0, #2147483648	; 0x80000000
 800088c:	e002      	b.n	8000894 <__addsf3>
 800088e:	bf00      	nop

08000890 <__aeabi_fsub>:
 8000890:	f081 4100 	eor.w	r1, r1, #2147483648	; 0x80000000

08000894 <__addsf3>:
 8000894:	0042      	lsls	r2, r0, #1
 8000896:	bf1f      	itttt	ne
 8000898:	ea5f 0341 	movsne.w	r3, r1, lsl #1
 800089c:	ea92 0f03 	teqne	r2, r3
 80008a0:	ea7f 6c22 	mvnsne.w	ip, r2, asr #24
 80008a4:	ea7f 6c23 	mvnsne.w	ip, r3, asr #24
 80008a8:	d06a      	beq.n	8000980 <__addsf3+0xec>
 80008aa:	ea4f 6212 	mov.w	r2, r2, lsr #24
 80008ae:	ebd2 6313 	rsbs	r3, r2, r3, lsr #24
 80008b2:	bfc1      	itttt	gt
 80008b4:	18d2      	addgt	r2, r2, r3
 80008b6:	4041      	eorgt	r1, r0
 80008b8:	4048      	eorgt	r0, r1
 80008ba:	4041      	eorgt	r1, r0
 80008bc:	bfb8      	it	lt
 80008be:	425b      	neglt	r3, r3
 80008c0:	2b19      	cmp	r3, #25
 80008c2:	bf88      	it	hi
 80008c4:	4770      	bxhi	lr
 80008c6:	f010 4f00 	tst.w	r0, #2147483648	; 0x80000000
 80008ca:	f440 0000 	orr.w	r0, r0, #8388608	; 0x800000
 80008ce:	f020 407f 	bic.w	r0, r0, #4278190080	; 0xff000000
 80008d2:	bf18      	it	ne
 80008d4:	4240      	negne	r0, r0
 80008d6:	f011 4f00 	tst.w	r1, #2147483648	; 0x80000000
 80008da:	f441 0100 	orr.w	r1, r1, #8388608	; 0x800000
 80008de:	f021 417f 	bic.w	r1, r1, #4278190080	; 0xff000000
 80008e2:	bf18      	it	ne
 80008e4:	4249      	negne	r1, r1
 80008e6:	ea92 0f03 	teq	r2, r3
 80008ea:	d03f      	beq.n	800096c <__addsf3+0xd8>
 80008ec:	f1a2 0201 	sub.w	r2, r2, #1
 80008f0:	fa41 fc03 	asr.w	ip, r1, r3
 80008f4:	eb10 000c 	adds.w	r0, r0, ip
 80008f8:	f1c3 0320 	rsb	r3, r3, #32
 80008fc:	fa01 f103 	lsl.w	r1, r1, r3
 8000900:	f000 4300 	and.w	r3, r0, #2147483648	; 0x80000000
 8000904:	d502      	bpl.n	800090c <__addsf3+0x78>
 8000906:	4249      	negs	r1, r1
 8000908:	eb60 0040 	sbc.w	r0, r0, r0, lsl #1
 800090c:	f5b0 0f00 	cmp.w	r0, #8388608	; 0x800000
 8000910:	d313      	bcc.n	800093a <__addsf3+0xa6>
 8000912:	f1b0 7f80 	cmp.w	r0, #16777216	; 0x1000000
 8000916:	d306      	bcc.n	8000926 <__addsf3+0x92>
 8000918:	0840      	lsrs	r0, r0, #1
 800091a:	ea4f 0131 	mov.w	r1, r1, rrx
 800091e:	f102 0201 	add.w	r2, r2, #1
 8000922:	2afe      	cmp	r2, #254	; 0xfe
 8000924:	d251      	bcs.n	80009ca <__addsf3+0x136>
 8000926:	f1b1 4f00 	cmp.w	r1, #2147483648	; 0x80000000
 800092a:	eb40 50c2 	adc.w	r0, r0, r2, lsl #23
 800092e:	bf08      	it	eq
 8000930:	f020 0001 	biceq.w	r0, r0, #1
 8000934:	ea40 0003 	orr.w	r0, r0, r3
 8000938:	4770      	bx	lr
 800093a:	0049      	lsls	r1, r1, #1
 800093c:	eb40 0000 	adc.w	r0, r0, r0
 8000940:	3a01      	subs	r2, #1
 8000942:	bf28      	it	cs
 8000944:	f5b0 0f00 	cmpcs.w	r0, #8388608	; 0x800000
 8000948:	d2ed      	bcs.n	8000926 <__addsf3+0x92>
 800094a:	fab0 fc80 	clz	ip, r0
 800094e:	f1ac 0c08 	sub.w	ip, ip, #8
 8000952:	ebb2 020c 	subs.w	r2, r2, ip
 8000956:	fa00 f00c 	lsl.w	r0, r0, ip
 800095a:	bfaa      	itet	ge
 800095c:	eb00 50c2 	addge.w	r0, r0, r2, lsl #23
 8000960:	4252      	neglt	r2, r2
 8000962:	4318      	orrge	r0, r3
 8000964:	bfbc      	itt	lt
 8000966:	40d0      	lsrlt	r0, r2
 8000968:	4318      	orrlt	r0, r3
 800096a:	4770      	bx	lr
 800096c:	f092 0f00 	teq	r2, #0
 8000970:	f481 0100 	eor.w	r1, r1, #8388608	; 0x800000
 8000974:	bf06      	itte	eq
 8000976:	f480 0000 	eoreq.w	r0, r0, #8388608	; 0x800000
 800097a:	3201      	addeq	r2, #1
 800097c:	3b01      	subne	r3, #1
 800097e:	e7b5      	b.n	80008ec <__addsf3+0x58>
 8000980:	ea4f 0341 	mov.w	r3, r1, lsl #1
 8000984:	ea7f 6c22 	mvns.w	ip, r2, asr #24
 8000988:	bf18      	it	ne
 800098a:	ea7f 6c23 	mvnsne.w	ip, r3, asr #24
 800098e:	d021      	beq.n	80009d4 <__addsf3+0x140>
 8000990:	ea92 0f03 	teq	r2, r3
 8000994:	d004      	beq.n	80009a0 <__addsf3+0x10c>
 8000996:	f092 0f00 	teq	r2, #0
 800099a:	bf08      	it	eq
 800099c:	4608      	moveq	r0, r1
 800099e:	4770      	bx	lr
 80009a0:	ea90 0f01 	teq	r0, r1
 80009a4:	bf1c      	itt	ne
 80009a6:	2000      	movne	r0, #0
 80009a8:	4770      	bxne	lr
 80009aa:	f012 4f7f 	tst.w	r2, #4278190080	; 0xff000000
 80009ae:	d104      	bne.n	80009ba <__addsf3+0x126>
 80009b0:	0040      	lsls	r0, r0, #1
 80009b2:	bf28      	it	cs
 80009b4:	f040 4000 	orrcs.w	r0, r0, #2147483648	; 0x80000000
 80009b8:	4770      	bx	lr
 80009ba:	f112 7200 	adds.w	r2, r2, #33554432	; 0x2000000
 80009be:	bf3c      	itt	cc
 80009c0:	f500 0000 	addcc.w	r0, r0, #8388608	; 0x800000
 80009c4:	4770      	bxcc	lr
 80009c6:	f000 4300 	and.w	r3, r0, #2147483648	; 0x80000000
 80009ca:	f043 40fe 	orr.w	r0, r3, #2130706432	; 0x7f000000
 80009ce:	f440 0000 	orr.w	r0, r0, #8388608	; 0x800000
 80009d2:	4770      	bx	lr
 80009d4:	ea7f 6222 	mvns.w	r2, r2, asr #24
 80009d8:	bf16      	itet	ne
 80009da:	4608      	movne	r0, r1
 80009dc:	ea7f 6323 	mvnseq.w	r3, r3, asr #24
 80009e0:	4601      	movne	r1, r0
 80009e2:	0242      	lsls	r2, r0, #9
 80009e4:	bf06      	itte	eq
 80009e6:	ea5f 2341 	movseq.w	r3, r1, lsl #9
 80009ea:	ea90 0f01 	teqeq	r0, r1
 80009ee:	f440 0080 	orrne.w	r0, r0, #4194304	; 0x400000
 80009f2:	4770      	bx	lr

080009f4 <__aeabi_ui2f>:
 80009f4:	f04f 0300 	mov.w	r3, #0
 80009f8:	e004      	b.n	8000a04 <__aeabi_i2f+0x8>
 80009fa:	bf00      	nop

080009fc <__aeabi_i2f>:
 80009fc:	f010 4300 	ands.w	r3, r0, #2147483648	; 0x80000000
 8000a00:	bf48      	it	mi
 8000a02:	4240      	negmi	r0, r0
 8000a04:	ea5f 0c00 	movs.w	ip, r0
 8000a08:	bf08      	it	eq
 8000a0a:	4770      	bxeq	lr
 8000a0c:	f043 4396 	orr.w	r3, r3, #1258291200	; 0x4b000000
 8000a10:	4601      	mov	r1, r0
 8000a12:	f04f 0000 	mov.w	r0, #0
 8000a16:	e01c      	b.n	8000a52 <__aeabi_l2f+0x2a>

08000a18 <__aeabi_ul2f>:
 8000a18:	ea50 0201 	orrs.w	r2, r0, r1
 8000a1c:	bf08      	it	eq
 8000a1e:	4770      	bxeq	lr
 8000a20:	f04f 0300 	mov.w	r3, #0
 8000a24:	e00a      	b.n	8000a3c <__aeabi_l2f+0x14>
 8000a26:	bf00      	nop

08000a28 <__aeabi_l2f>:
 8000a28:	ea50 0201 	orrs.w	r2, r0, r1
 8000a2c:	bf08      	it	eq
 8000a2e:	4770      	bxeq	lr
 8000a30:	f011 4300 	ands.w	r3, r1, #2147483648	; 0x80000000
 8000a34:	d502      	bpl.n	8000a3c <__aeabi_l2f+0x14>
 8000a36:	4240      	negs	r0, r0
 8000a38:	eb61 0141 	sbc.w	r1, r1, r1, lsl #1
 8000a3c:	ea5f 0c01 	movs.w	ip, r1
 8000a40:	bf02      	ittt	eq
 8000a42:	4684      	moveq	ip, r0
 8000a44:	4601      	moveq	r1, r0
 8000a46:	2000      	moveq	r0, #0
 8000a48:	f043 43b6 	orr.w	r3, r3, #1526726656	; 0x5b000000
 8000a4c:	bf08      	it	eq
 8000a4e:	f1a3 5380 	subeq.w	r3, r3, #268435456	; 0x10000000
 8000a52:	f5a3 0300 	sub.w	r3, r3, #8388608	; 0x800000
 8000a56:	fabc f28c 	clz	r2, ip
 8000a5a:	3a08      	subs	r2, #8
 8000a5c:	eba3 53c2 	sub.w	r3, r3, r2, lsl #23
 8000a60:	db10      	blt.n	8000a84 <__aeabi_l2f+0x5c>
 8000a62:	fa01 fc02 	lsl.w	ip, r1, r2
 8000a66:	4463      	add	r3, ip
 8000a68:	fa00 fc02 	lsl.w	ip, r0, r2
 8000a6c:	f1c2 0220 	rsb	r2, r2, #32
 8000a70:	f1bc 4f00 	cmp.w	ip, #2147483648	; 0x80000000
 8000a74:	fa20 f202 	lsr.w	r2, r0, r2
 8000a78:	eb43 0002 	adc.w	r0, r3, r2
 8000a7c:	bf08      	it	eq
 8000a7e:	f020 0001 	biceq.w	r0, r0, #1
 8000a82:	4770      	bx	lr
 8000a84:	f102 0220 	add.w	r2, r2, #32
 8000a88:	fa01 fc02 	lsl.w	ip, r1, r2
 8000a8c:	f1c2 0220 	rsb	r2, r2, #32
 8000a90:	ea50 004c 	orrs.w	r0, r0, ip, lsl #1
 8000a94:	fa21 f202 	lsr.w	r2, r1, r2
 8000a98:	eb43 0002 	adc.w	r0, r3, r2
 8000a9c:	bf08      	it	eq
 8000a9e:	ea20 70dc 	biceq.w	r0, r0, ip, lsr #31
 8000aa2:	4770      	bx	lr

08000aa4 <__aeabi_fmul>:
 8000aa4:	f04f 0cff 	mov.w	ip, #255	; 0xff
 8000aa8:	ea1c 52d0 	ands.w	r2, ip, r0, lsr #23
 8000aac:	bf1e      	ittt	ne
 8000aae:	ea1c 53d1 	andsne.w	r3, ip, r1, lsr #23
 8000ab2:	ea92 0f0c 	teqne	r2, ip
 8000ab6:	ea93 0f0c 	teqne	r3, ip
 8000aba:	d06f      	beq.n	8000b9c <__aeabi_fmul+0xf8>
 8000abc:	441a      	add	r2, r3
 8000abe:	ea80 0c01 	eor.w	ip, r0, r1
 8000ac2:	0240      	lsls	r0, r0, #9
 8000ac4:	bf18      	it	ne
 8000ac6:	ea5f 2141 	movsne.w	r1, r1, lsl #9
 8000aca:	d01e      	beq.n	8000b0a <__aeabi_fmul+0x66>
 8000acc:	f04f 6300 	mov.w	r3, #134217728	; 0x8000000
 8000ad0:	ea43 1050 	orr.w	r0, r3, r0, lsr #5
 8000ad4:	ea43 1151 	orr.w	r1, r3, r1, lsr #5
 8000ad8:	fba0 3101 	umull	r3, r1, r0, r1
 8000adc:	f00c 4000 	and.w	r0, ip, #2147483648	; 0x80000000
 8000ae0:	f5b1 0f00 	cmp.w	r1, #8388608	; 0x800000
 8000ae4:	bf3e      	ittt	cc
 8000ae6:	0049      	lslcc	r1, r1, #1
 8000ae8:	ea41 71d3 	orrcc.w	r1, r1, r3, lsr #31
 8000aec:	005b      	lslcc	r3, r3, #1
 8000aee:	ea40 0001 	orr.w	r0, r0, r1
 8000af2:	f162 027f 	sbc.w	r2, r2, #127	; 0x7f
 8000af6:	2afd      	cmp	r2, #253	; 0xfd
 8000af8:	d81d      	bhi.n	8000b36 <__aeabi_fmul+0x92>
 8000afa:	f1b3 4f00 	cmp.w	r3, #2147483648	; 0x80000000
 8000afe:	eb40 50c2 	adc.w	r0, r0, r2, lsl #23
 8000b02:	bf08      	it	eq
 8000b04:	f020 0001 	biceq.w	r0, r0, #1
 8000b08:	4770      	bx	lr
 8000b0a:	f090 0f00 	teq	r0, #0
 8000b0e:	f00c 4c00 	and.w	ip, ip, #2147483648	; 0x80000000
 8000b12:	bf08      	it	eq
 8000b14:	0249      	lsleq	r1, r1, #9
 8000b16:	ea4c 2050 	orr.w	r0, ip, r0, lsr #9
 8000b1a:	ea40 2051 	orr.w	r0, r0, r1, lsr #9
 8000b1e:	3a7f      	subs	r2, #127	; 0x7f
 8000b20:	bfc2      	ittt	gt
 8000b22:	f1d2 03ff 	rsbsgt	r3, r2, #255	; 0xff
 8000b26:	ea40 50c2 	orrgt.w	r0, r0, r2, lsl #23
 8000b2a:	4770      	bxgt	lr
 8000b2c:	f440 0000 	orr.w	r0, r0, #8388608	; 0x800000
 8000b30:	f04f 0300 	mov.w	r3, #0
 8000b34:	3a01      	subs	r2, #1
 8000b36:	dc5d      	bgt.n	8000bf4 <__aeabi_fmul+0x150>
 8000b38:	f112 0f19 	cmn.w	r2, #25
 8000b3c:	bfdc      	itt	le
 8000b3e:	f000 4000 	andle.w	r0, r0, #2147483648	; 0x80000000
 8000b42:	4770      	bxle	lr
 8000b44:	f1c2 0200 	rsb	r2, r2, #0
 8000b48:	0041      	lsls	r1, r0, #1
 8000b4a:	fa21 f102 	lsr.w	r1, r1, r2
 8000b4e:	f1c2 0220 	rsb	r2, r2, #32
 8000b52:	fa00 fc02 	lsl.w	ip, r0, r2
 8000b56:	ea5f 0031 	movs.w	r0, r1, rrx
 8000b5a:	f140 0000 	adc.w	r0, r0, #0
 8000b5e:	ea53 034c 	orrs.w	r3, r3, ip, lsl #1
 8000b62:	bf08      	it	eq
 8000b64:	ea20 70dc 	biceq.w	r0, r0, ip, lsr #31
 8000b68:	4770      	bx	lr
 8000b6a:	f092 0f00 	teq	r2, #0
 8000b6e:	f000 4c00 	and.w	ip, r0, #2147483648	; 0x80000000
 8000b72:	bf02      	ittt	eq
 8000b74:	0040      	lsleq	r0, r0, #1
 8000b76:	f410 0f00 	tsteq.w	r0, #8388608	; 0x800000
 8000b7a:	3a01      	subeq	r2, #1
 8000b7c:	d0f9      	beq.n	8000b72 <__aeabi_fmul+0xce>
 8000b7e:	ea40 000c 	orr.w	r0, r0, ip
 8000b82:	f093 0f00 	teq	r3, #0
 8000b86:	f001 4c00 	and.w	ip, r1, #2147483648	; 0x80000000
 8000b8a:	bf02      	ittt	eq
 8000b8c:	0049      	lsleq	r1, r1, #1
 8000b8e:	f411 0f00 	tsteq.w	r1, #8388608	; 0x800000
 8000b92:	3b01      	subeq	r3, #1
 8000b94:	d0f9      	beq.n	8000b8a <__aeabi_fmul+0xe6>
 8000b96:	ea41 010c 	orr.w	r1, r1, ip
 8000b9a:	e78f      	b.n	8000abc <__aeabi_fmul+0x18>
 8000b9c:	ea0c 53d1 	and.w	r3, ip, r1, lsr #23
 8000ba0:	ea92 0f0c 	teq	r2, ip
 8000ba4:	bf18      	it	ne
 8000ba6:	ea93 0f0c 	teqne	r3, ip
 8000baa:	d00a      	beq.n	8000bc2 <__aeabi_fmul+0x11e>
 8000bac:	f030 4c00 	bics.w	ip, r0, #2147483648	; 0x80000000
 8000bb0:	bf18      	it	ne
 8000bb2:	f031 4c00 	bicsne.w	ip, r1, #2147483648	; 0x80000000
 8000bb6:	d1d8      	bne.n	8000b6a <__aeabi_fmul+0xc6>
 8000bb8:	ea80 0001 	eor.w	r0, r0, r1
 8000bbc:	f000 4000 	and.w	r0, r0, #2147483648	; 0x80000000
 8000bc0:	4770      	bx	lr
 8000bc2:	f090 0f00 	teq	r0, #0
 8000bc6:	bf17      	itett	ne
 8000bc8:	f090 4f00 	teqne	r0, #2147483648	; 0x80000000
 8000bcc:	4608      	moveq	r0, r1
 8000bce:	f091 0f00 	teqne	r1, #0
 8000bd2:	f091 4f00 	teqne	r1, #2147483648	; 0x80000000
 8000bd6:	d014      	beq.n	8000c02 <__aeabi_fmul+0x15e>
 8000bd8:	ea92 0f0c 	teq	r2, ip
 8000bdc:	d101      	bne.n	8000be2 <__aeabi_fmul+0x13e>
 8000bde:	0242      	lsls	r2, r0, #9
 8000be0:	d10f      	bne.n	8000c02 <__aeabi_fmul+0x15e>
 8000be2:	ea93 0f0c 	teq	r3, ip
 8000be6:	d103      	bne.n	8000bf0 <__aeabi_fmul+0x14c>
 8000be8:	024b      	lsls	r3, r1, #9
 8000bea:	bf18      	it	ne
 8000bec:	4608      	movne	r0, r1
 8000bee:	d108      	bne.n	8000c02 <__aeabi_fmul+0x15e>
 8000bf0:	ea80 0001 	eor.w	r0, r0, r1
 8000bf4:	f000 4000 	and.w	r0, r0, #2147483648	; 0x80000000
 8000bf8:	f040 40fe 	orr.w	r0, r0, #2130706432	; 0x7f000000
 8000bfc:	f440 0000 	orr.w	r0, r0, #8388608	; 0x800000
 8000c00:	4770      	bx	lr
 8000c02:	f040 40fe 	orr.w	r0, r0, #2130706432	; 0x7f000000
 8000c06:	f440 0040 	orr.w	r0, r0, #12582912	; 0xc00000
 8000c0a:	4770      	bx	lr

08000c0c <__aeabi_fdiv>:
 8000c0c:	f04f 0cff 	mov.w	ip, #255	; 0xff
 8000c10:	ea1c 52d0 	ands.w	r2, ip, r0, lsr #23
 8000c14:	bf1e      	ittt	ne
 8000c16:	ea1c 53d1 	andsne.w	r3, ip, r1, lsr #23
 8000c1a:	ea92 0f0c 	teqne	r2, ip
 8000c1e:	ea93 0f0c 	teqne	r3, ip
 8000c22:	d069      	beq.n	8000cf8 <__aeabi_fdiv+0xec>
 8000c24:	eba2 0203 	sub.w	r2, r2, r3
 8000c28:	ea80 0c01 	eor.w	ip, r0, r1
 8000c2c:	0249      	lsls	r1, r1, #9
 8000c2e:	ea4f 2040 	mov.w	r0, r0, lsl #9
 8000c32:	d037      	beq.n	8000ca4 <__aeabi_fdiv+0x98>
 8000c34:	f04f 5380 	mov.w	r3, #268435456	; 0x10000000
 8000c38:	ea43 1111 	orr.w	r1, r3, r1, lsr #4
 8000c3c:	ea43 1310 	orr.w	r3, r3, r0, lsr #4
 8000c40:	f00c 4000 	and.w	r0, ip, #2147483648	; 0x80000000
 8000c44:	428b      	cmp	r3, r1
 8000c46:	bf38      	it	cc
 8000c48:	005b      	lslcc	r3, r3, #1
 8000c4a:	f142 027d 	adc.w	r2, r2, #125	; 0x7d
 8000c4e:	f44f 0c00 	mov.w	ip, #8388608	; 0x800000
 8000c52:	428b      	cmp	r3, r1
 8000c54:	bf24      	itt	cs
 8000c56:	1a5b      	subcs	r3, r3, r1
 8000c58:	ea40 000c 	orrcs.w	r0, r0, ip
 8000c5c:	ebb3 0f51 	cmp.w	r3, r1, lsr #1
 8000c60:	bf24      	itt	cs
 8000c62:	eba3 0351 	subcs.w	r3, r3, r1, lsr #1
 8000c66:	ea40 005c 	orrcs.w	r0, r0, ip, lsr #1
 8000c6a:	ebb3 0f91 	cmp.w	r3, r1, lsr #2
 8000c6e:	bf24      	itt	cs
 8000c70:	eba3 0391 	subcs.w	r3, r3, r1, lsr #2
 8000c74:	ea40 009c 	orrcs.w	r0, r0, ip, lsr #2
 8000c78:	ebb3 0fd1 	cmp.w	r3, r1, lsr #3
 8000c7c:	bf24      	itt	cs
 8000c7e:	eba3 03d1 	subcs.w	r3, r3, r1, lsr #3
 8000c82:	ea40 00dc 	orrcs.w	r0, r0, ip, lsr #3
 8000c86:	011b      	lsls	r3, r3, #4
 8000c88:	bf18      	it	ne
 8000c8a:	ea5f 1c1c 	movsne.w	ip, ip, lsr #4
 8000c8e:	d1e0      	bne.n	8000c52 <__aeabi_fdiv+0x46>
 8000c90:	2afd      	cmp	r2, #253	; 0xfd
 8000c92:	f63f af50 	bhi.w	8000b36 <__aeabi_fmul+0x92>
 8000c96:	428b      	cmp	r3, r1
 8000c98:	eb40 50c2 	adc.w	r0, r0, r2, lsl #23
 8000c9c:	bf08      	it	eq
 8000c9e:	f020 0001 	biceq.w	r0, r0, #1
 8000ca2:	4770      	bx	lr
 8000ca4:	f00c 4c00 	and.w	ip, ip, #2147483648	; 0x80000000
 8000ca8:	ea4c 2050 	orr.w	r0, ip, r0, lsr #9
 8000cac:	327f      	adds	r2, #127	; 0x7f
 8000cae:	bfc2      	ittt	gt
 8000cb0:	f1d2 03ff 	rsbsgt	r3, r2, #255	; 0xff
 8000cb4:	ea40 50c2 	orrgt.w	r0, r0, r2, lsl #23
 8000cb8:	4770      	bxgt	lr
 8000cba:	f440 0000 	orr.w	r0, r0, #8388608	; 0x800000
 8000cbe:	f04f 0300 	mov.w	r3, #0
 8000cc2:	3a01      	subs	r2, #1
 8000cc4:	e737      	b.n	8000b36 <__aeabi_fmul+0x92>
 8000cc6:	f092 0f00 	teq	r2, #0
 8000cca:	f000 4c00 	and.w	ip, r0, #2147483648	; 0x80000000
 8000cce:	bf02      	ittt	eq
 8000cd0:	0040      	lsleq	r0, r0, #1
 8000cd2:	f410 0f00 	tsteq.w	r0, #8388608	; 0x800000
 8000cd6:	3a01      	subeq	r2, #1
 8000cd8:	d0f9      	beq.n	8000cce <__aeabi_fdiv+0xc2>
 8000cda:	ea40 000c 	orr.w	r0, r0, ip
 8000cde:	f093 0f00 	teq	r3, #0
 8000ce2:	f001 4c00 	and.w	ip, r1, #2147483648	; 0x80000000
 8000ce6:	bf02      	ittt	eq
 8000ce8:	0049      	lsleq	r1, r1, #1
 8000cea:	f411 0f00 	tsteq.w	r1, #8388608	; 0x800000
 8000cee:	3b01      	subeq	r3, #1
 8000cf0:	d0f9      	beq.n	8000ce6 <__aeabi_fdiv+0xda>
 8000cf2:	ea41 010c 	orr.w	r1, r1, ip
 8000cf6:	e795      	b.n	8000c24 <__aeabi_fdiv+0x18>
 8000cf8:	ea0c 53d1 	and.w	r3, ip, r1, lsr #23
 8000cfc:	ea92 0f0c 	teq	r2, ip
 8000d00:	d108      	bne.n	8000d14 <__aeabi_fdiv+0x108>
 8000d02:	0242      	lsls	r2, r0, #9
 8000d04:	f47f af7d 	bne.w	8000c02 <__aeabi_fmul+0x15e>
 8000d08:	ea93 0f0c 	teq	r3, ip
 8000d0c:	f47f af70 	bne.w	8000bf0 <__aeabi_fmul+0x14c>
 8000d10:	4608      	mov	r0, r1
 8000d12:	e776      	b.n	8000c02 <__aeabi_fmul+0x15e>
 8000d14:	ea93 0f0c 	teq	r3, ip
 8000d18:	d104      	bne.n	8000d24 <__aeabi_fdiv+0x118>
 8000d1a:	024b      	lsls	r3, r1, #9
 8000d1c:	f43f af4c 	beq.w	8000bb8 <__aeabi_fmul+0x114>
 8000d20:	4608      	mov	r0, r1
 8000d22:	e76e      	b.n	8000c02 <__aeabi_fmul+0x15e>
 8000d24:	f030 4c00 	bics.w	ip, r0, #2147483648	; 0x80000000
 8000d28:	bf18      	it	ne
 8000d2a:	f031 4c00 	bicsne.w	ip, r1, #2147483648	; 0x80000000
 8000d2e:	d1ca      	bne.n	8000cc6 <__aeabi_fdiv+0xba>
 8000d30:	f030 4200 	bics.w	r2, r0, #2147483648	; 0x80000000
 8000d34:	f47f af5c 	bne.w	8000bf0 <__aeabi_fmul+0x14c>
 8000d38:	f031 4300 	bics.w	r3, r1, #2147483648	; 0x80000000
 8000d3c:	f47f af3c 	bne.w	8000bb8 <__aeabi_fmul+0x114>
 8000d40:	e75f      	b.n	8000c02 <__aeabi_fmul+0x15e>
 8000d42:	bf00      	nop

08000d44 <__aeabi_f2iz>:
 8000d44:	ea4f 0240 	mov.w	r2, r0, lsl #1
 8000d48:	f1b2 4ffe 	cmp.w	r2, #2130706432	; 0x7f000000
 8000d4c:	d30f      	bcc.n	8000d6e <__aeabi_f2iz+0x2a>
 8000d4e:	f04f 039e 	mov.w	r3, #158	; 0x9e
 8000d52:	ebb3 6212 	subs.w	r2, r3, r2, lsr #24
 8000d56:	d90d      	bls.n	8000d74 <__aeabi_f2iz+0x30>
 8000d58:	ea4f 2300 	mov.w	r3, r0, lsl #8
 8000d5c:	f043 4300 	orr.w	r3, r3, #2147483648	; 0x80000000
 8000d60:	f010 4f00 	tst.w	r0, #2147483648	; 0x80000000
 8000d64:	fa23 f002 	lsr.w	r0, r3, r2
 8000d68:	bf18      	it	ne
 8000d6a:	4240      	negne	r0, r0
 8000d6c:	4770      	bx	lr
 8000d6e:	f04f 0000 	mov.w	r0, #0
 8000d72:	4770      	bx	lr
 8000d74:	f112 0f61 	cmn.w	r2, #97	; 0x61
 8000d78:	d101      	bne.n	8000d7e <__aeabi_f2iz+0x3a>
 8000d7a:	0242      	lsls	r2, r0, #9
 8000d7c:	d105      	bne.n	8000d8a <__aeabi_f2iz+0x46>
 8000d7e:	f010 4000 	ands.w	r0, r0, #2147483648	; 0x80000000
 8000d82:	bf08      	it	eq
 8000d84:	f06f 4000 	mvneq.w	r0, #2147483648	; 0x80000000
 8000d88:	4770      	bx	lr
 8000d8a:	f04f 0000 	mov.w	r0, #0
 8000d8e:	4770      	bx	lr

08000d90 <SystemClock_Config>:
 8000d90:	2300      	movs	r3, #0
 8000d92:	b5d0      	push	{r4, r6, r7, lr}
 8000d94:	b094      	sub	sp, #80	; 0x50
 8000d96:	2601      	movs	r6, #1
 8000d98:	f44f 3780 	mov.w	r7, #65536	; 0x10000
 8000d9c:	2101      	movs	r1, #1
 8000d9e:	2402      	movs	r4, #2
 8000da0:	f44f 3280 	mov.w	r2, #65536	; 0x10000
 8000da4:	e9cd 330f 	strd	r3, r3, [sp, #60]	; 0x3c
 8000da8:	e9cd 3305 	strd	r3, r3, [sp, #20]
 8000dac:	e9cd 3307 	strd	r3, r3, [sp, #28]
 8000db0:	e9cd 3301 	strd	r3, r3, [sp, #4]
 8000db4:	930c      	str	r3, [sp, #48]	; 0x30
 8000db6:	9304      	str	r3, [sp, #16]
 8000db8:	9300      	str	r3, [sp, #0]
 8000dba:	930d      	str	r3, [sp, #52]	; 0x34
 8000dbc:	9303      	str	r3, [sp, #12]
 8000dbe:	f44f 1360 	mov.w	r3, #3670016	; 0x380000
 8000dc2:	a80a      	add	r0, sp, #40	; 0x28
 8000dc4:	e9cd 670a 	strd	r6, r7, [sp, #40]	; 0x28
 8000dc8:	910e      	str	r1, [sp, #56]	; 0x38
 8000dca:	9411      	str	r4, [sp, #68]	; 0x44
 8000dcc:	9212      	str	r2, [sp, #72]	; 0x48
 8000dce:	9313      	str	r3, [sp, #76]	; 0x4c
 8000dd0:	f001 fdcc 	bl	800296c <HAL_RCC_OscConfig>
 8000dd4:	b108      	cbz	r0, 8000dda <SystemClock_Config+0x4a>
 8000dd6:	b672      	cpsid	i
 8000dd8:	e7fe      	b.n	8000dd8 <SystemClock_Config+0x48>
 8000dda:	220f      	movs	r2, #15
 8000ddc:	2302      	movs	r3, #2
 8000dde:	e9cd 2304 	strd	r2, r3, [sp, #16]
 8000de2:	2200      	movs	r2, #0
 8000de4:	2300      	movs	r3, #0
 8000de6:	9008      	str	r0, [sp, #32]
 8000de8:	4621      	mov	r1, r4
 8000dea:	a804      	add	r0, sp, #16
 8000dec:	e9cd 2306 	strd	r2, r3, [sp, #24]
 8000df0:	f001 ffac 	bl	8002d4c <HAL_RCC_ClockConfig>
 8000df4:	b108      	cbz	r0, 8000dfa <SystemClock_Config+0x6a>
 8000df6:	b672      	cpsid	i
 8000df8:	e7fe      	b.n	8000df8 <SystemClock_Config+0x68>
 8000dfa:	f44f 4380 	mov.w	r3, #16384	; 0x4000
 8000dfe:	4668      	mov	r0, sp
 8000e00:	9400      	str	r4, [sp, #0]
 8000e02:	9302      	str	r3, [sp, #8]
 8000e04:	f002 f8ce 	bl	8002fa4 <HAL_RCCEx_PeriphCLKConfig>
 8000e08:	b108      	cbz	r0, 8000e0e <SystemClock_Config+0x7e>
 8000e0a:	b672      	cpsid	i
 8000e0c:	e7fe      	b.n	8000e0c <SystemClock_Config+0x7c>
 8000e0e:	b014      	add	sp, #80	; 0x50
 8000e10:	bdd0      	pop	{r4, r6, r7, pc}
 8000e12:	bf00      	nop

08000e14 <main>:
 8000e14:	2400      	movs	r4, #0
 8000e16:	b580      	push	{r7, lr}
 8000e18:	b09c      	sub	sp, #112	; 0x70
 8000e1a:	f000 fd85 	bl	8001928 <HAL_Init>
 8000e1e:	f7ff ffb7 	bl	8000d90 <SystemClock_Config>
 8000e22:	e9cd 4414 	strd	r4, r4, [sp, #80]	; 0x50
 8000e26:	e9cd 4416 	strd	r4, r4, [sp, #88]	; 0x58
 8000e2a:	4daa      	ldr	r5, [pc, #680]	; (80010d4 <main+0x2c0>)
 8000e2c:	f44f 5100 	mov.w	r1, #8192	; 0x2000
 8000e30:	69ab      	ldr	r3, [r5, #24]
 8000e32:	4622      	mov	r2, r4
 8000e34:	f043 0310 	orr.w	r3, r3, #16
 8000e38:	61ab      	str	r3, [r5, #24]
 8000e3a:	69ab      	ldr	r3, [r5, #24]
 8000e3c:	48a6      	ldr	r0, [pc, #664]	; (80010d8 <main+0x2c4>)
 8000e3e:	f003 0310 	and.w	r3, r3, #16
 8000e42:	9302      	str	r3, [sp, #8]
 8000e44:	9b02      	ldr	r3, [sp, #8]
 8000e46:	69ab      	ldr	r3, [r5, #24]
 8000e48:	2600      	movs	r6, #0
 8000e4a:	f043 0320 	orr.w	r3, r3, #32
 8000e4e:	61ab      	str	r3, [r5, #24]
 8000e50:	69ab      	ldr	r3, [r5, #24]
 8000e52:	2702      	movs	r7, #2
 8000e54:	f003 0320 	and.w	r3, r3, #32
 8000e58:	9303      	str	r3, [sp, #12]
 8000e5a:	9b03      	ldr	r3, [sp, #12]
 8000e5c:	69ab      	ldr	r3, [r5, #24]
 8000e5e:	f44f 7880 	mov.w	r8, #256	; 0x100
 8000e62:	f043 0304 	orr.w	r3, r3, #4
 8000e66:	61ab      	str	r3, [r5, #24]
 8000e68:	69ab      	ldr	r3, [r5, #24]
 8000e6a:	f04f 0902 	mov.w	r9, #2
 8000e6e:	f003 0304 	and.w	r3, r3, #4
 8000e72:	9304      	str	r3, [sp, #16]
 8000e74:	9b04      	ldr	r3, [sp, #16]
 8000e76:	69ab      	ldr	r3, [r5, #24]
 8000e78:	f8df a260 	ldr.w	sl, [pc, #608]	; 80010dc <main+0x2c8>
 8000e7c:	f043 0308 	orr.w	r3, r3, #8
 8000e80:	61ab      	str	r3, [r5, #24]
 8000e82:	69ab      	ldr	r3, [r5, #24]
 8000e84:	f003 0308 	and.w	r3, r3, #8
 8000e88:	9305      	str	r3, [sp, #20]
 8000e8a:	9b05      	ldr	r3, [sp, #20]
 8000e8c:	f001 fca2 	bl	80027d4 <HAL_GPIO_WritePin>
 8000e90:	4622      	mov	r2, r4
 8000e92:	f248 3101 	movw	r1, #33537	; 0x8301
 8000e96:	4892      	ldr	r0, [pc, #584]	; (80010e0 <main+0x2cc>)
 8000e98:	f001 fc9c 	bl	80027d4 <HAL_GPIO_WritePin>
 8000e9c:	4622      	mov	r2, r4
 8000e9e:	f44f 4112 	mov.w	r1, #37376	; 0x9200
 8000ea2:	4890      	ldr	r0, [pc, #576]	; (80010e4 <main+0x2d0>)
 8000ea4:	f001 fc96 	bl	80027d4 <HAL_GPIO_WritePin>
 8000ea8:	f44f 5200 	mov.w	r2, #8192	; 0x2000
 8000eac:	2301      	movs	r3, #1
 8000eae:	488a      	ldr	r0, [pc, #552]	; (80010d8 <main+0x2c4>)
 8000eb0:	a914      	add	r1, sp, #80	; 0x50
 8000eb2:	e9cd 2314 	strd	r2, r3, [sp, #80]	; 0x50
 8000eb6:	e9cd 6716 	strd	r6, r7, [sp, #88]	; 0x58
 8000eba:	f001 fb7d 	bl	80025b8 <HAL_GPIO_Init>
 8000ebe:	f248 3201 	movw	r2, #33537	; 0x8301
 8000ec2:	2301      	movs	r3, #1
 8000ec4:	4886      	ldr	r0, [pc, #536]	; (80010e0 <main+0x2cc>)
 8000ec6:	a914      	add	r1, sp, #80	; 0x50
 8000ec8:	e9cd 2314 	strd	r2, r3, [sp, #80]	; 0x50
 8000ecc:	e9cd 6716 	strd	r6, r7, [sp, #88]	; 0x58
 8000ed0:	f001 fb72 	bl	80025b8 <HAL_GPIO_Init>
 8000ed4:	f44f 7200 	mov.w	r2, #512	; 0x200
 8000ed8:	2301      	movs	r3, #1
 8000eda:	4882      	ldr	r0, [pc, #520]	; (80010e4 <main+0x2d0>)
 8000edc:	a914      	add	r1, sp, #80	; 0x50
 8000ede:	e9cd 2314 	strd	r2, r3, [sp, #80]	; 0x50
 8000ee2:	e9cd 6716 	strd	r6, r7, [sp, #88]	; 0x58
 8000ee6:	f001 fb67 	bl	80025b8 <HAL_GPIO_Init>
 8000eea:	f44f 5280 	mov.w	r2, #4096	; 0x1000
 8000eee:	2301      	movs	r3, #1
 8000ef0:	e9cd 2314 	strd	r2, r3, [sp, #80]	; 0x50
 8000ef4:	2201      	movs	r2, #1
 8000ef6:	2303      	movs	r3, #3
 8000ef8:	487a      	ldr	r0, [pc, #488]	; (80010e4 <main+0x2d0>)
 8000efa:	a914      	add	r1, sp, #80	; 0x50
 8000efc:	e9cd 2316 	strd	r2, r3, [sp, #88]	; 0x58
 8000f00:	f001 fb5a 	bl	80025b8 <HAL_GPIO_Init>
 8000f04:	f44f 4200 	mov.w	r2, #32768	; 0x8000
 8000f08:	2301      	movs	r3, #1
 8000f0a:	e9cd 2314 	strd	r2, r3, [sp, #80]	; 0x50
 8000f0e:	2202      	movs	r2, #2
 8000f10:	2303      	movs	r3, #3
 8000f12:	4874      	ldr	r0, [pc, #464]	; (80010e4 <main+0x2d0>)
 8000f14:	a914      	add	r1, sp, #80	; 0x50
 8000f16:	e9cd 2316 	strd	r2, r3, [sp, #88]	; 0x58
 8000f1a:	f001 fb4d 	bl	80025b8 <HAL_GPIO_Init>
 8000f1e:	696b      	ldr	r3, [r5, #20]
 8000f20:	4622      	mov	r2, r4
 8000f22:	f043 0301 	orr.w	r3, r3, #1
 8000f26:	616b      	str	r3, [r5, #20]
 8000f28:	696b      	ldr	r3, [r5, #20]
 8000f2a:	4621      	mov	r1, r4
 8000f2c:	f003 0301 	and.w	r3, r3, #1
 8000f30:	200b      	movs	r0, #11
 8000f32:	9301      	str	r3, [sp, #4]
 8000f34:	9b01      	ldr	r3, [sp, #4]
 8000f36:	f001 f961 	bl	80021fc <HAL_NVIC_SetPriority>
 8000f3a:	200b      	movs	r0, #11
 8000f3c:	f001 f99c 	bl	8002278 <HAL_NVIC_EnableIRQ>
 8000f40:	4622      	mov	r2, r4
 8000f42:	4621      	mov	r1, r4
 8000f44:	200c      	movs	r0, #12
 8000f46:	f001 f959 	bl	80021fc <HAL_NVIC_SetPriority>
 8000f4a:	200c      	movs	r0, #12
 8000f4c:	f001 f994 	bl	8002278 <HAL_NVIC_EnableIRQ>
 8000f50:	4622      	mov	r2, r4
 8000f52:	4621      	mov	r1, r4
 8000f54:	200d      	movs	r0, #13
 8000f56:	f001 f951 	bl	80021fc <HAL_NVIC_SetPriority>
 8000f5a:	200d      	movs	r0, #13
 8000f5c:	f001 f98c 	bl	8002278 <HAL_NVIC_EnableIRQ>
 8000f60:	4622      	mov	r2, r4
 8000f62:	4621      	mov	r1, r4
 8000f64:	200e      	movs	r0, #14
 8000f66:	f001 f949 	bl	80021fc <HAL_NVIC_SetPriority>
 8000f6a:	200e      	movs	r0, #14
 8000f6c:	f001 f984 	bl	8002278 <HAL_NVIC_EnableIRQ>
 8000f70:	4622      	mov	r2, r4
 8000f72:	4621      	mov	r1, r4
 8000f74:	2010      	movs	r0, #16
 8000f76:	f001 f941 	bl	80021fc <HAL_NVIC_SetPriority>
 8000f7a:	2010      	movs	r0, #16
 8000f7c:	f001 f97c 	bl	8002278 <HAL_NVIC_EnableIRQ>
 8000f80:	f44f 3300 	mov.w	r3, #131072	; 0x20000
 8000f84:	f8ca 301c 	str.w	r3, [sl, #28]
 8000f88:	4b57      	ldr	r3, [pc, #348]	; (80010e8 <main+0x2d4>)
 8000f8a:	4650      	mov	r0, sl
 8000f8c:	e9cd 440c 	strd	r4, r4, [sp, #48]	; 0x30
 8000f90:	e9cd 4414 	strd	r4, r4, [sp, #80]	; 0x50
 8000f94:	e9cd 4416 	strd	r4, r4, [sp, #88]	; 0x58
 8000f98:	e9cd 4418 	strd	r4, r4, [sp, #96]	; 0x60
 8000f9c:	940e      	str	r4, [sp, #56]	; 0x38
 8000f9e:	941a      	str	r4, [sp, #104]	; 0x68
 8000fa0:	f8ca 8008 	str.w	r8, [sl, #8]
 8000fa4:	f88a 400c 	strb.w	r4, [sl, #12]
 8000fa8:	f88a 4014 	strb.w	r4, [sl, #20]
 8000fac:	f8ca 4004 	str.w	r4, [sl, #4]
 8000fb0:	f8ca 9010 	str.w	r9, [sl, #16]
 8000fb4:	f8ca 3000 	str.w	r3, [sl]
 8000fb8:	f000 fcec 	bl	8001994 <HAL_ADC_Init>
 8000fbc:	b108      	cbz	r0, 8000fc2 <main+0x1ae>
 8000fbe:	b672      	cpsid	i
 8000fc0:	e7fe      	b.n	8000fc0 <main+0x1ac>
 8000fc2:	2406      	movs	r4, #6
 8000fc4:	2200      	movs	r2, #0
 8000fc6:	2301      	movs	r3, #1
 8000fc8:	4650      	mov	r0, sl
 8000fca:	a90c      	add	r1, sp, #48	; 0x30
 8000fcc:	e9cd 230c 	strd	r2, r3, [sp, #48]	; 0x30
 8000fd0:	940e      	str	r4, [sp, #56]	; 0x38
 8000fd2:	f000 fddb 	bl	8001b8c <HAL_ADC_ConfigChannel>
 8000fd6:	b108      	cbz	r0, 8000fdc <main+0x1c8>
 8000fd8:	b672      	cpsid	i
 8000fda:	e7fe      	b.n	8000fda <main+0x1c6>
 8000fdc:	2201      	movs	r2, #1
 8000fde:	2302      	movs	r3, #2
 8000fe0:	4650      	mov	r0, sl
 8000fe2:	a90c      	add	r1, sp, #48	; 0x30
 8000fe4:	e9cd 230c 	strd	r2, r3, [sp, #48]	; 0x30
 8000fe8:	f000 fdd0 	bl	8001b8c <HAL_ADC_ConfigChannel>
 8000fec:	b108      	cbz	r0, 8000ff2 <main+0x1de>
 8000fee:	b672      	cpsid	i
 8000ff0:	e7fe      	b.n	8000ff0 <main+0x1dc>
 8000ff2:	2601      	movs	r6, #1
 8000ff4:	f44f 43e0 	mov.w	r3, #28672	; 0x7000
 8000ff8:	e9cd 0016 	strd	r0, r0, [sp, #88]	; 0x58
 8000ffc:	a914      	add	r1, sp, #80	; 0x50
 8000ffe:	4650      	mov	r0, sl
 8001000:	9414      	str	r4, [sp, #80]	; 0x50
 8001002:	f8cd 9060 	str.w	r9, [sp, #96]	; 0x60
 8001006:	f8ad 8064 	strh.w	r8, [sp, #100]	; 0x64
 800100a:	931a      	str	r3, [sp, #104]	; 0x68
 800100c:	9615      	str	r6, [sp, #84]	; 0x54
 800100e:	f000 ffcb 	bl	8001fa8 <HAL_ADCEx_InjectedConfigChannel>
 8001012:	b108      	cbz	r0, 8001018 <main+0x204>
 8001014:	b672      	cpsid	i
 8001016:	e7fe      	b.n	8001016 <main+0x202>
 8001018:	2207      	movs	r2, #7
 800101a:	2302      	movs	r3, #2
 800101c:	4650      	mov	r0, sl
 800101e:	a914      	add	r1, sp, #80	; 0x50
 8001020:	e9cd 2314 	strd	r2, r3, [sp, #80]	; 0x50
 8001024:	f000 ffc0 	bl	8001fa8 <HAL_ADCEx_InjectedConfigChannel>
 8001028:	4604      	mov	r4, r0
 800102a:	b108      	cbz	r0, 8001030 <main+0x21c>
 800102c:	b672      	cpsid	i
 800102e:	e7fe      	b.n	800102e <main+0x21a>
 8001030:	2220      	movs	r2, #32
 8001032:	4601      	mov	r1, r0
 8001034:	e9cd 000c 	strd	r0, r0, [sp, #48]	; 0x30
 8001038:	e9cd 000e 	strd	r0, r0, [sp, #56]	; 0x38
 800103c:	e9cd 0010 	strd	r0, r0, [sp, #64]	; 0x40
 8001040:	e9cd 0009 	strd	r0, r0, [sp, #36]	; 0x24
 8001044:	9008      	str	r0, [sp, #32]
 8001046:	9006      	str	r0, [sp, #24]
 8001048:	9012      	str	r0, [sp, #72]	; 0x48
 800104a:	900b      	str	r0, [sp, #44]	; 0x2c
 800104c:	9007      	str	r0, [sp, #28]
 800104e:	a814      	add	r0, sp, #80	; 0x50
 8001050:	f006 f92a 	bl	80072a8 <memset>
 8001054:	2380      	movs	r3, #128	; 0x80
 8001056:	f240 72ff 	movw	r2, #2047	; 0x7ff
 800105a:	4d24      	ldr	r5, [pc, #144]	; (80010ec <main+0x2d8>)
 800105c:	61ab      	str	r3, [r5, #24]
 800105e:	4b24      	ldr	r3, [pc, #144]	; (80010f0 <main+0x2dc>)
 8001060:	4628      	mov	r0, r5
 8001062:	e9c5 6401 	strd	r6, r4, [r5, #4]
 8001066:	e9c5 4404 	strd	r4, r4, [r5, #16]
 800106a:	60ea      	str	r2, [r5, #12]
 800106c:	602b      	str	r3, [r5, #0]
 800106e:	f002 fb9b 	bl	80037a8 <HAL_TIM_Base_Init>
 8001072:	b108      	cbz	r0, 8001078 <main+0x264>
 8001074:	b672      	cpsid	i
 8001076:	e7fe      	b.n	8001076 <main+0x262>
 8001078:	f44f 5380 	mov.w	r3, #4096	; 0x1000
 800107c:	4628      	mov	r0, r5
 800107e:	a908      	add	r1, sp, #32
 8001080:	9308      	str	r3, [sp, #32]
 8001082:	f002 fef9 	bl	8003e78 <HAL_TIM_ConfigClockSource>
 8001086:	b108      	cbz	r0, 800108c <main+0x278>
 8001088:	b672      	cpsid	i
 800108a:	e7fe      	b.n	800108a <main+0x276>
 800108c:	4628      	mov	r0, r5
 800108e:	f002 fc23 	bl	80038d8 <HAL_TIM_PWM_Init>
 8001092:	b108      	cbz	r0, 8001098 <main+0x284>
 8001094:	b672      	cpsid	i
 8001096:	e7fe      	b.n	8001096 <main+0x282>
 8001098:	2210      	movs	r2, #16
 800109a:	2300      	movs	r3, #0
 800109c:	4628      	mov	r0, r5
 800109e:	a906      	add	r1, sp, #24
 80010a0:	e9cd 2306 	strd	r2, r3, [sp, #24]
 80010a4:	f003 f8c0 	bl	8004228 <HAL_TIMEx_MasterConfigSynchronization>
 80010a8:	4602      	mov	r2, r0
 80010aa:	b108      	cbz	r0, 80010b0 <main+0x29c>
 80010ac:	b672      	cpsid	i
 80010ae:	e7fe      	b.n	80010ae <main+0x29a>
 80010b0:	2400      	movs	r4, #0
 80010b2:	4628      	mov	r0, r5
 80010b4:	2500      	movs	r5, #0
 80010b6:	e9cd 450e 	strd	r4, r5, [sp, #56]	; 0x38
 80010ba:	e9cd 4510 	strd	r4, r5, [sp, #64]	; 0x40
 80010be:	2460      	movs	r4, #96	; 0x60
 80010c0:	2500      	movs	r5, #0
 80010c2:	a90c      	add	r1, sp, #48	; 0x30
 80010c4:	e9cd 450c 	strd	r4, r5, [sp, #48]	; 0x30
 80010c8:	9212      	str	r2, [sp, #72]	; 0x48
 80010ca:	f002 fdd9 	bl	8003c80 <HAL_TIM_PWM_ConfigChannel>
 80010ce:	b188      	cbz	r0, 80010f4 <main+0x2e0>
 80010d0:	b672      	cpsid	i
 80010d2:	e7fe      	b.n	80010d2 <main+0x2be>
 80010d4:	40021000 	.word	0x40021000
 80010d8:	40011000 	.word	0x40011000
 80010dc:	200001d8 	.word	0x200001d8
 80010e0:	40010c00 	.word	0x40010c00
 80010e4:	40010800 	.word	0x40010800
 80010e8:	40012400 	.word	0x40012400
 80010ec:	20000438 	.word	0x20000438
 80010f0:	40012c00 	.word	0x40012c00
 80010f4:	2501      	movs	r5, #1
 80010f6:	2204      	movs	r2, #4
 80010f8:	4876      	ldr	r0, [pc, #472]	; (80012d4 <main+0x4c0>)
 80010fa:	a90c      	add	r1, sp, #48	; 0x30
 80010fc:	950d      	str	r5, [sp, #52]	; 0x34
 80010fe:	f002 fdbf 	bl	8003c80 <HAL_TIM_PWM_ConfigChannel>
 8001102:	b108      	cbz	r0, 8001108 <main+0x2f4>
 8001104:	b672      	cpsid	i
 8001106:	e7fe      	b.n	8001106 <main+0x2f2>
 8001108:	900d      	str	r0, [sp, #52]	; 0x34
 800110a:	2208      	movs	r2, #8
 800110c:	4871      	ldr	r0, [pc, #452]	; (80012d4 <main+0x4c0>)
 800110e:	a90c      	add	r1, sp, #48	; 0x30
 8001110:	f002 fdb6 	bl	8003c80 <HAL_TIM_PWM_ConfigChannel>
 8001114:	b108      	cbz	r0, 800111a <main+0x306>
 8001116:	b672      	cpsid	i
 8001118:	e7fe      	b.n	8001118 <main+0x304>
 800111a:	220c      	movs	r2, #12
 800111c:	486d      	ldr	r0, [pc, #436]	; (80012d4 <main+0x4c0>)
 800111e:	a90c      	add	r1, sp, #48	; 0x30
 8001120:	f002 fdae 	bl	8003c80 <HAL_TIM_PWM_ConfigChannel>
 8001124:	b108      	cbz	r0, 800112a <main+0x316>
 8001126:	b672      	cpsid	i
 8001128:	e7fe      	b.n	8001128 <main+0x314>
 800112a:	2200      	movs	r2, #0
 800112c:	2300      	movs	r3, #0
 800112e:	e9cd 2314 	strd	r2, r3, [sp, #80]	; 0x50
 8001132:	e9cd 2316 	strd	r2, r3, [sp, #88]	; 0x58
 8001136:	2200      	movs	r2, #0
 8001138:	f44f 5300 	mov.w	r3, #8192	; 0x2000
 800113c:	901b      	str	r0, [sp, #108]	; 0x6c
 800113e:	a914      	add	r1, sp, #80	; 0x50
 8001140:	4864      	ldr	r0, [pc, #400]	; (80012d4 <main+0x4c0>)
 8001142:	e9cd 2318 	strd	r2, r3, [sp, #96]	; 0x60
 8001146:	f003 f8a1 	bl	800428c <HAL_TIMEx_ConfigBreakDeadTime>
 800114a:	4604      	mov	r4, r0
 800114c:	b108      	cbz	r0, 8001152 <main+0x33e>
 800114e:	b672      	cpsid	i
 8001150:	e7fe      	b.n	8001150 <main+0x33c>
 8001152:	4860      	ldr	r0, [pc, #384]	; (80012d4 <main+0x4c0>)
 8001154:	f000 fa8e 	bl	8001674 <HAL_TIM_MspPostInit>
 8001158:	230a      	movs	r3, #10
 800115a:	f44f 7100 	mov.w	r1, #512	; 0x200
 800115e:	2218      	movs	r2, #24
 8001160:	f44f 7682 	mov.w	r6, #260	; 0x104
 8001164:	485c      	ldr	r0, [pc, #368]	; (80012d8 <main+0x4c4>)
 8001166:	62c3      	str	r3, [r0, #44]	; 0x2c
 8001168:	4b5c      	ldr	r3, [pc, #368]	; (80012dc <main+0x4c8>)
 800116a:	e9c0 4402 	strd	r4, r4, [r0, #8]
 800116e:	6003      	str	r3, [r0, #0]
 8001170:	e9c0 4404 	strd	r4, r4, [r0, #16]
 8001174:	e9c0 4408 	strd	r4, r4, [r0, #32]
 8001178:	e9c0 1206 	strd	r1, r2, [r0, #24]
 800117c:	6284      	str	r4, [r0, #40]	; 0x28
 800117e:	6046      	str	r6, [r0, #4]
 8001180:	f002 f8c6 	bl	8003310 <HAL_SPI_Init>
 8001184:	4603      	mov	r3, r0
 8001186:	b108      	cbz	r0, 800118c <main+0x378>
 8001188:	b672      	cpsid	i
 800118a:	e7fe      	b.n	800118a <main+0x376>
 800118c:	f44f 31e1 	mov.w	r1, #115200	; 0x1c200
 8001190:	220c      	movs	r2, #12
 8001192:	4853      	ldr	r0, [pc, #332]	; (80012e0 <main+0x4cc>)
 8001194:	e9c0 3302 	strd	r3, r3, [r0, #8]
 8001198:	e9c0 3306 	strd	r3, r3, [r0, #24]
 800119c:	6103      	str	r3, [r0, #16]
 800119e:	4b51      	ldr	r3, [pc, #324]	; (80012e4 <main+0x4d0>)
 80011a0:	6041      	str	r1, [r0, #4]
 80011a2:	6142      	str	r2, [r0, #20]
 80011a4:	6003      	str	r3, [r0, #0]
 80011a6:	f003 f89b 	bl	80042e0 <HAL_UART_Init>
 80011aa:	b108      	cbz	r0, 80011b0 <main+0x39c>
 80011ac:	b672      	cpsid	i
 80011ae:	e7fe      	b.n	80011ae <main+0x39a>
 80011b0:	f04f 4180 	mov.w	r1, #1073741824	; 0x40000000
 80011b4:	f240 72ff 	movw	r2, #2047	; 0x7ff
 80011b8:	4c4b      	ldr	r4, [pc, #300]	; (80012e8 <main+0x4d4>)
 80011ba:	e9cd 0008 	strd	r0, r0, [sp, #32]
 80011be:	e9cd 000a 	strd	r0, r0, [sp, #40]	; 0x28
 80011c2:	e9cd 000c 	strd	r0, r0, [sp, #48]	; 0x30
 80011c6:	e9cd 000e 	strd	r0, r0, [sp, #56]	; 0x38
 80011ca:	e9cd 0006 	strd	r0, r0, [sp, #24]
 80011ce:	e9cd 0014 	strd	r0, r0, [sp, #80]	; 0x50
 80011d2:	e9cd 0016 	strd	r0, r0, [sp, #88]	; 0x58
 80011d6:	e9cd 0018 	strd	r0, r0, [sp, #96]	; 0x60
 80011da:	e9c4 5001 	strd	r5, r0, [r4, #4]
 80011de:	9010      	str	r0, [sp, #64]	; 0x40
 80011e0:	901a      	str	r0, [sp, #104]	; 0x68
 80011e2:	6120      	str	r0, [r4, #16]
 80011e4:	61a0      	str	r0, [r4, #24]
 80011e6:	4620      	mov	r0, r4
 80011e8:	6021      	str	r1, [r4, #0]
 80011ea:	60e2      	str	r2, [r4, #12]
 80011ec:	f002 fadc 	bl	80037a8 <HAL_TIM_Base_Init>
 80011f0:	b108      	cbz	r0, 80011f6 <main+0x3e2>
 80011f2:	b672      	cpsid	i
 80011f4:	e7fe      	b.n	80011f4 <main+0x3e0>
 80011f6:	f44f 5380 	mov.w	r3, #4096	; 0x1000
 80011fa:	4620      	mov	r0, r4
 80011fc:	a908      	add	r1, sp, #32
 80011fe:	9308      	str	r3, [sp, #32]
 8001200:	f002 fe3a 	bl	8003e78 <HAL_TIM_ConfigClockSource>
 8001204:	b108      	cbz	r0, 800120a <main+0x3f6>
 8001206:	b672      	cpsid	i
 8001208:	e7fe      	b.n	8001208 <main+0x3f4>
 800120a:	4620      	mov	r0, r4
 800120c:	f002 fb64 	bl	80038d8 <HAL_TIM_PWM_Init>
 8001210:	b108      	cbz	r0, 8001216 <main+0x402>
 8001212:	b672      	cpsid	i
 8001214:	e7fe      	b.n	8001214 <main+0x400>
 8001216:	2206      	movs	r2, #6
 8001218:	2300      	movs	r3, #0
 800121a:	4620      	mov	r0, r4
 800121c:	a90c      	add	r1, sp, #48	; 0x30
 800121e:	e9cd 230c 	strd	r2, r3, [sp, #48]	; 0x30
 8001222:	f002 fecf 	bl	8003fc4 <HAL_TIM_SlaveConfigSynchro>
 8001226:	b108      	cbz	r0, 800122c <main+0x418>
 8001228:	b672      	cpsid	i
 800122a:	e7fe      	b.n	800122a <main+0x416>
 800122c:	2210      	movs	r2, #16
 800122e:	2380      	movs	r3, #128	; 0x80
 8001230:	482d      	ldr	r0, [pc, #180]	; (80012e8 <main+0x4d4>)
 8001232:	a906      	add	r1, sp, #24
 8001234:	e9cd 2306 	strd	r2, r3, [sp, #24]
 8001238:	f002 fff6 	bl	8004228 <HAL_TIMEx_MasterConfigSynchronization>
 800123c:	b108      	cbz	r0, 8001242 <main+0x42e>
 800123e:	b672      	cpsid	i
 8001240:	e7fe      	b.n	8001240 <main+0x42c>
 8001242:	2460      	movs	r4, #96	; 0x60
 8001244:	2501      	movs	r5, #1
 8001246:	9016      	str	r0, [sp, #88]	; 0x58
 8001248:	9018      	str	r0, [sp, #96]	; 0x60
 800124a:	2204      	movs	r2, #4
 800124c:	4826      	ldr	r0, [pc, #152]	; (80012e8 <main+0x4d4>)
 800124e:	a914      	add	r1, sp, #80	; 0x50
 8001250:	e9cd 4514 	strd	r4, r5, [sp, #80]	; 0x50
 8001254:	f002 fd14 	bl	8003c80 <HAL_TIM_PWM_ConfigChannel>
 8001258:	b108      	cbz	r0, 800125e <main+0x44a>
 800125a:	b672      	cpsid	i
 800125c:	e7fe      	b.n	800125c <main+0x448>
 800125e:	f44f 2160 	mov.w	r1, #917504	; 0xe0000
 8001262:	2201      	movs	r2, #1
 8001264:	4c21      	ldr	r4, [pc, #132]	; (80012ec <main+0x4d8>)
 8001266:	4b22      	ldr	r3, [pc, #136]	; (80012f0 <main+0x4dc>)
 8001268:	e9cd 0014 	strd	r0, r0, [sp, #80]	; 0x50
 800126c:	9016      	str	r0, [sp, #88]	; 0x58
 800126e:	60a0      	str	r0, [r4, #8]
 8001270:	7320      	strb	r0, [r4, #12]
 8001272:	7520      	strb	r0, [r4, #20]
 8001274:	6060      	str	r0, [r4, #4]
 8001276:	4620      	mov	r0, r4
 8001278:	6023      	str	r3, [r4, #0]
 800127a:	61e1      	str	r1, [r4, #28]
 800127c:	6122      	str	r2, [r4, #16]
 800127e:	f000 fb89 	bl	8001994 <HAL_ADC_Init>
 8001282:	4603      	mov	r3, r0
 8001284:	b108      	cbz	r0, 800128a <main+0x476>
 8001286:	b672      	cpsid	i
 8001288:	e7fe      	b.n	8001288 <main+0x474>
 800128a:	2604      	movs	r6, #4
 800128c:	2701      	movs	r7, #1
 800128e:	4620      	mov	r0, r4
 8001290:	a914      	add	r1, sp, #80	; 0x50
 8001292:	9316      	str	r3, [sp, #88]	; 0x58
 8001294:	e9cd 6714 	strd	r6, r7, [sp, #80]	; 0x50
 8001298:	f000 fc78 	bl	8001b8c <HAL_ADC_ConfigChannel>
 800129c:	4603      	mov	r3, r0
 800129e:	b108      	cbz	r0, 80012a4 <main+0x490>
 80012a0:	b672      	cpsid	i
 80012a2:	e7fe      	b.n	80012a2 <main+0x48e>
 80012a4:	f44f 4280 	mov.w	r2, #16384	; 0x4000
 80012a8:	4812      	ldr	r0, [pc, #72]	; (80012f4 <main+0x4e0>)
 80012aa:	4c13      	ldr	r4, [pc, #76]	; (80012f8 <main+0x4e4>)
 80012ac:	4913      	ldr	r1, [pc, #76]	; (80012fc <main+0x4e8>)
 80012ae:	e9c0 3302 	strd	r3, r3, [r0, #8]
 80012b2:	e9c0 4100 	strd	r4, r1, [r0]
 80012b6:	e9c0 3305 	strd	r3, r3, [r0, #20]
 80012ba:	e9c0 3307 	strd	r3, r3, [r0, #28]
 80012be:	6102      	str	r2, [r0, #16]
 80012c0:	f001 fa8c 	bl	80027dc <HAL_I2C_Init>
 80012c4:	b108      	cbz	r0, 80012ca <main+0x4b6>
 80012c6:	b672      	cpsid	i
 80012c8:	e7fe      	b.n	80012c8 <main+0x4b4>
 80012ca:	f004 fcdb 	bl	8005c84 <schedInit>
 80012ce:	f004 fd61 	bl	8005d94 <schedMainLoop>
 80012d2:	e7fc      	b.n	80012ce <main+0x4ba>
 80012d4:	20000438 	.word	0x20000438
 80012d8:	200003e0 	.word	0x200003e0
 80012dc:	40013000 	.word	0x40013000
 80012e0:	200004c8 	.word	0x200004c8
 80012e4:	40013800 	.word	0x40013800
 80012e8:	20000480 	.word	0x20000480
 80012ec:	20000208 	.word	0x20000208
 80012f0:	40012800 	.word	0x40012800
 80012f4:	2000038c 	.word	0x2000038c
 80012f8:	40005800 	.word	0x40005800
 80012fc:	000186a0 	.word	0x000186a0

08001300 <Error_Handler>:
 8001300:	b672      	cpsid	i
 8001302:	e7fe      	b.n	8001302 <Error_Handler+0x2>

08001304 <HAL_MspInit>:
 8001304:	4b0e      	ldr	r3, [pc, #56]	; (8001340 <HAL_MspInit+0x3c>)
 8001306:	b082      	sub	sp, #8
 8001308:	699a      	ldr	r2, [r3, #24]
 800130a:	490e      	ldr	r1, [pc, #56]	; (8001344 <HAL_MspInit+0x40>)
 800130c:	f042 0201 	orr.w	r2, r2, #1
 8001310:	619a      	str	r2, [r3, #24]
 8001312:	699a      	ldr	r2, [r3, #24]
 8001314:	f002 0201 	and.w	r2, r2, #1
 8001318:	9200      	str	r2, [sp, #0]
 800131a:	9a00      	ldr	r2, [sp, #0]
 800131c:	69da      	ldr	r2, [r3, #28]
 800131e:	f042 5280 	orr.w	r2, r2, #268435456	; 0x10000000
 8001322:	61da      	str	r2, [r3, #28]
 8001324:	69db      	ldr	r3, [r3, #28]
 8001326:	f003 5380 	and.w	r3, r3, #268435456	; 0x10000000
 800132a:	9301      	str	r3, [sp, #4]
 800132c:	9b01      	ldr	r3, [sp, #4]
 800132e:	684b      	ldr	r3, [r1, #4]
 8001330:	f023 63e0 	bic.w	r3, r3, #117440512	; 0x7000000
 8001334:	f043 7300 	orr.w	r3, r3, #33554432	; 0x2000000
 8001338:	604b      	str	r3, [r1, #4]
 800133a:	b002      	add	sp, #8
 800133c:	4770      	bx	lr
 800133e:	bf00      	nop
 8001340:	40021000 	.word	0x40021000
 8001344:	40010000 	.word	0x40010000

08001348 <HAL_ADC_MspInit>:
 8001348:	b570      	push	{r4, r5, r6, lr}
 800134a:	2400      	movs	r4, #0
 800134c:	4a31      	ldr	r2, [pc, #196]	; (8001414 <HAL_ADC_MspInit+0xcc>)
 800134e:	6803      	ldr	r3, [r0, #0]
 8001350:	b088      	sub	sp, #32
 8001352:	4293      	cmp	r3, r2
 8001354:	e9cd 4404 	strd	r4, r4, [sp, #16]
 8001358:	e9cd 4406 	strd	r4, r4, [sp, #24]
 800135c:	d004      	beq.n	8001368 <HAL_ADC_MspInit+0x20>
 800135e:	4a2e      	ldr	r2, [pc, #184]	; (8001418 <HAL_ADC_MspInit+0xd0>)
 8001360:	4293      	cmp	r3, r2
 8001362:	d037      	beq.n	80013d4 <HAL_ADC_MspInit+0x8c>
 8001364:	b008      	add	sp, #32
 8001366:	bd70      	pop	{r4, r5, r6, pc}
 8001368:	4b2c      	ldr	r3, [pc, #176]	; (800141c <HAL_ADC_MspInit+0xd4>)
 800136a:	a904      	add	r1, sp, #16
 800136c:	699a      	ldr	r2, [r3, #24]
 800136e:	4605      	mov	r5, r0
 8001370:	f442 7200 	orr.w	r2, r2, #512	; 0x200
 8001374:	619a      	str	r2, [r3, #24]
 8001376:	699a      	ldr	r2, [r3, #24]
 8001378:	4e29      	ldr	r6, [pc, #164]	; (8001420 <HAL_ADC_MspInit+0xd8>)
 800137a:	f402 7200 	and.w	r2, r2, #512	; 0x200
 800137e:	9200      	str	r2, [sp, #0]
 8001380:	9a00      	ldr	r2, [sp, #0]
 8001382:	699a      	ldr	r2, [r3, #24]
 8001384:	f042 0204 	orr.w	r2, r2, #4
 8001388:	619a      	str	r2, [r3, #24]
 800138a:	699b      	ldr	r3, [r3, #24]
 800138c:	22c3      	movs	r2, #195	; 0xc3
 800138e:	f003 0304 	and.w	r3, r3, #4
 8001392:	9301      	str	r3, [sp, #4]
 8001394:	2303      	movs	r3, #3
 8001396:	9801      	ldr	r0, [sp, #4]
 8001398:	4822      	ldr	r0, [pc, #136]	; (8001424 <HAL_ADC_MspInit+0xdc>)
 800139a:	e9cd 2304 	strd	r2, r3, [sp, #16]
 800139e:	f001 f90b 	bl	80025b8 <HAL_GPIO_Init>
 80013a2:	f44f 7380 	mov.w	r3, #256	; 0x100
 80013a6:	2180      	movs	r1, #128	; 0x80
 80013a8:	4a1f      	ldr	r2, [pc, #124]	; (8001428 <HAL_ADC_MspInit+0xe0>)
 80013aa:	2020      	movs	r0, #32
 80013ac:	e9c6 2400 	strd	r2, r4, [r6]
 80013b0:	e9c6 1303 	strd	r1, r3, [r6, #12]
 80013b4:	f44f 6280 	mov.w	r2, #1024	; 0x400
 80013b8:	f44f 5340 	mov.w	r3, #12288	; 0x3000
 80013bc:	61b0      	str	r0, [r6, #24]
 80013be:	4630      	mov	r0, r6
 80013c0:	60b4      	str	r4, [r6, #8]
 80013c2:	6172      	str	r2, [r6, #20]
 80013c4:	61f3      	str	r3, [r6, #28]
 80013c6:	f000 ff7d 	bl	80022c4 <HAL_DMA_Init>
 80013ca:	bb00      	cbnz	r0, 800140e <HAL_ADC_MspInit+0xc6>
 80013cc:	622e      	str	r6, [r5, #32]
 80013ce:	6275      	str	r5, [r6, #36]	; 0x24
 80013d0:	b008      	add	sp, #32
 80013d2:	bd70      	pop	{r4, r5, r6, pc}
 80013d4:	243c      	movs	r4, #60	; 0x3c
 80013d6:	2503      	movs	r5, #3
 80013d8:	4b10      	ldr	r3, [pc, #64]	; (800141c <HAL_ADC_MspInit+0xd4>)
 80013da:	4812      	ldr	r0, [pc, #72]	; (8001424 <HAL_ADC_MspInit+0xdc>)
 80013dc:	699a      	ldr	r2, [r3, #24]
 80013de:	a904      	add	r1, sp, #16
 80013e0:	f442 6280 	orr.w	r2, r2, #1024	; 0x400
 80013e4:	619a      	str	r2, [r3, #24]
 80013e6:	699a      	ldr	r2, [r3, #24]
 80013e8:	f402 6280 	and.w	r2, r2, #1024	; 0x400
 80013ec:	9202      	str	r2, [sp, #8]
 80013ee:	9a02      	ldr	r2, [sp, #8]
 80013f0:	699a      	ldr	r2, [r3, #24]
 80013f2:	f042 0204 	orr.w	r2, r2, #4
 80013f6:	619a      	str	r2, [r3, #24]
 80013f8:	699b      	ldr	r3, [r3, #24]
 80013fa:	e9cd 4504 	strd	r4, r5, [sp, #16]
 80013fe:	f003 0304 	and.w	r3, r3, #4
 8001402:	9303      	str	r3, [sp, #12]
 8001404:	9b03      	ldr	r3, [sp, #12]
 8001406:	f001 f8d7 	bl	80025b8 <HAL_GPIO_Init>
 800140a:	b008      	add	sp, #32
 800140c:	bd70      	pop	{r4, r5, r6, pc}
 800140e:	f7ff ff77 	bl	8001300 <Error_Handler>
 8001412:	e7db      	b.n	80013cc <HAL_ADC_MspInit+0x84>
 8001414:	40012400 	.word	0x40012400
 8001418:	40012800 	.word	0x40012800
 800141c:	40021000 	.word	0x40021000
 8001420:	20000238 	.word	0x20000238
 8001424:	40010800 	.word	0x40010800
 8001428:	40020008 	.word	0x40020008

0800142c <HAL_I2C_MspInit>:
 800142c:	2300      	movs	r3, #0
 800142e:	b5d0      	push	{r4, r6, r7, lr}
 8001430:	4a15      	ldr	r2, [pc, #84]	; (8001488 <HAL_I2C_MspInit+0x5c>)
 8001432:	6801      	ldr	r1, [r0, #0]
 8001434:	b086      	sub	sp, #24
 8001436:	4291      	cmp	r1, r2
 8001438:	e9cd 3302 	strd	r3, r3, [sp, #8]
 800143c:	e9cd 3304 	strd	r3, r3, [sp, #16]
 8001440:	d001      	beq.n	8001446 <HAL_I2C_MspInit+0x1a>
 8001442:	b006      	add	sp, #24
 8001444:	bdd0      	pop	{r4, r6, r7, pc}
 8001446:	2203      	movs	r2, #3
 8001448:	f44f 6640 	mov.w	r6, #3072	; 0xc00
 800144c:	2712      	movs	r7, #18
 800144e:	4c0f      	ldr	r4, [pc, #60]	; (800148c <HAL_I2C_MspInit+0x60>)
 8001450:	480f      	ldr	r0, [pc, #60]	; (8001490 <HAL_I2C_MspInit+0x64>)
 8001452:	69a3      	ldr	r3, [r4, #24]
 8001454:	a902      	add	r1, sp, #8
 8001456:	f043 0308 	orr.w	r3, r3, #8
 800145a:	61a3      	str	r3, [r4, #24]
 800145c:	69a3      	ldr	r3, [r4, #24]
 800145e:	e9cd 6702 	strd	r6, r7, [sp, #8]
 8001462:	f003 0308 	and.w	r3, r3, #8
 8001466:	9300      	str	r3, [sp, #0]
 8001468:	9b00      	ldr	r3, [sp, #0]
 800146a:	9205      	str	r2, [sp, #20]
 800146c:	f001 f8a4 	bl	80025b8 <HAL_GPIO_Init>
 8001470:	69e3      	ldr	r3, [r4, #28]
 8001472:	f443 0380 	orr.w	r3, r3, #4194304	; 0x400000
 8001476:	61e3      	str	r3, [r4, #28]
 8001478:	69e3      	ldr	r3, [r4, #28]
 800147a:	f403 0380 	and.w	r3, r3, #4194304	; 0x400000
 800147e:	9301      	str	r3, [sp, #4]
 8001480:	9b01      	ldr	r3, [sp, #4]
 8001482:	b006      	add	sp, #24
 8001484:	bdd0      	pop	{r4, r6, r7, pc}
 8001486:	bf00      	nop
 8001488:	40005800 	.word	0x40005800
 800148c:	40021000 	.word	0x40021000
 8001490:	40010c00 	.word	0x40010c00

08001494 <HAL_SPI_MspInit>:
 8001494:	b570      	push	{r4, r5, r6, lr}
 8001496:	2400      	movs	r4, #0
 8001498:	4b29      	ldr	r3, [pc, #164]	; (8001540 <HAL_SPI_MspInit+0xac>)
 800149a:	6802      	ldr	r2, [r0, #0]
 800149c:	b086      	sub	sp, #24
 800149e:	429a      	cmp	r2, r3
 80014a0:	e9cd 4402 	strd	r4, r4, [sp, #8]
 80014a4:	e9cd 4404 	strd	r4, r4, [sp, #16]
 80014a8:	d001      	beq.n	80014ae <HAL_SPI_MspInit+0x1a>
 80014aa:	b006      	add	sp, #24
 80014ac:	bd70      	pop	{r4, r5, r6, pc}
 80014ae:	f503 4360 	add.w	r3, r3, #57344	; 0xe000
 80014b2:	699a      	ldr	r2, [r3, #24]
 80014b4:	4605      	mov	r5, r0
 80014b6:	f442 5280 	orr.w	r2, r2, #4096	; 0x1000
 80014ba:	619a      	str	r2, [r3, #24]
 80014bc:	699a      	ldr	r2, [r3, #24]
 80014be:	4821      	ldr	r0, [pc, #132]	; (8001544 <HAL_SPI_MspInit+0xb0>)
 80014c0:	f402 5280 	and.w	r2, r2, #4096	; 0x1000
 80014c4:	9200      	str	r2, [sp, #0]
 80014c6:	9a00      	ldr	r2, [sp, #0]
 80014c8:	699a      	ldr	r2, [r3, #24]
 80014ca:	4e1f      	ldr	r6, [pc, #124]	; (8001548 <HAL_SPI_MspInit+0xb4>)
 80014cc:	f042 0208 	orr.w	r2, r2, #8
 80014d0:	619a      	str	r2, [r3, #24]
 80014d2:	699b      	ldr	r3, [r3, #24]
 80014d4:	2228      	movs	r2, #40	; 0x28
 80014d6:	f003 0308 	and.w	r3, r3, #8
 80014da:	9301      	str	r3, [sp, #4]
 80014dc:	9901      	ldr	r1, [sp, #4]
 80014de:	2103      	movs	r1, #3
 80014e0:	2302      	movs	r3, #2
 80014e2:	9105      	str	r1, [sp, #20]
 80014e4:	a902      	add	r1, sp, #8
 80014e6:	e9cd 2302 	strd	r2, r3, [sp, #8]
 80014ea:	f001 f865 	bl	80025b8 <HAL_GPIO_Init>
 80014ee:	2210      	movs	r2, #16
 80014f0:	2300      	movs	r3, #0
 80014f2:	4814      	ldr	r0, [pc, #80]	; (8001544 <HAL_SPI_MspInit+0xb0>)
 80014f4:	a902      	add	r1, sp, #8
 80014f6:	e9cd 2302 	strd	r2, r3, [sp, #8]
 80014fa:	9404      	str	r4, [sp, #16]
 80014fc:	f001 f85c 	bl	80025b8 <HAL_GPIO_Init>
 8001500:	4a12      	ldr	r2, [pc, #72]	; (800154c <HAL_SPI_MspInit+0xb8>)
 8001502:	60b4      	str	r4, [r6, #8]
 8001504:	6853      	ldr	r3, [r2, #4]
 8001506:	6134      	str	r4, [r6, #16]
 8001508:	f043 63e0 	orr.w	r3, r3, #117440512	; 0x7000000
 800150c:	f043 0301 	orr.w	r3, r3, #1
 8001510:	6053      	str	r3, [r2, #4]
 8001512:	4b0f      	ldr	r3, [pc, #60]	; (8001550 <HAL_SPI_MspInit+0xbc>)
 8001514:	2110      	movs	r1, #16
 8001516:	2280      	movs	r2, #128	; 0x80
 8001518:	6033      	str	r3, [r6, #0]
 800151a:	f44f 5380 	mov.w	r3, #4096	; 0x1000
 800151e:	4630      	mov	r0, r6
 8001520:	e9c6 4405 	strd	r4, r4, [r6, #20]
 8001524:	6071      	str	r1, [r6, #4]
 8001526:	60f2      	str	r2, [r6, #12]
 8001528:	61f3      	str	r3, [r6, #28]
 800152a:	f000 fecb 	bl	80022c4 <HAL_DMA_Init>
 800152e:	b918      	cbnz	r0, 8001538 <HAL_SPI_MspInit+0xa4>
 8001530:	64ae      	str	r6, [r5, #72]	; 0x48
 8001532:	6275      	str	r5, [r6, #36]	; 0x24
 8001534:	b006      	add	sp, #24
 8001536:	bd70      	pop	{r4, r5, r6, pc}
 8001538:	f7ff fee2 	bl	8001300 <Error_Handler>
 800153c:	e7f8      	b.n	8001530 <HAL_SPI_MspInit+0x9c>
 800153e:	bf00      	nop
 8001540:	40013000 	.word	0x40013000
 8001544:	40010c00 	.word	0x40010c00
 8001548:	2000027c 	.word	0x2000027c
 800154c:	40010000 	.word	0x40010000
 8001550:	40020030 	.word	0x40020030

08001554 <HAL_TIM_Base_MspInit>:
 8001554:	e92d 41f0 	stmdb	sp!, {r4, r5, r6, r7, r8, lr}
 8001558:	4a3e      	ldr	r2, [pc, #248]	; (8001654 <HAL_TIM_Base_MspInit+0x100>)
 800155a:	6803      	ldr	r3, [r0, #0]
 800155c:	b082      	sub	sp, #8
 800155e:	4293      	cmp	r3, r2
 8001560:	d013      	beq.n	800158a <HAL_TIM_Base_MspInit+0x36>
 8001562:	f1b3 4f80 	cmp.w	r3, #1073741824	; 0x40000000
 8001566:	d002      	beq.n	800156e <HAL_TIM_Base_MspInit+0x1a>
 8001568:	b002      	add	sp, #8
 800156a:	e8bd 81f0 	ldmia.w	sp!, {r4, r5, r6, r7, r8, pc}
 800156e:	f503 3304 	add.w	r3, r3, #135168	; 0x21000
 8001572:	69da      	ldr	r2, [r3, #28]
 8001574:	f042 0201 	orr.w	r2, r2, #1
 8001578:	61da      	str	r2, [r3, #28]
 800157a:	69db      	ldr	r3, [r3, #28]
 800157c:	f003 0301 	and.w	r3, r3, #1
 8001580:	9301      	str	r3, [sp, #4]
 8001582:	9b01      	ldr	r3, [sp, #4]
 8001584:	b002      	add	sp, #8
 8001586:	e8bd 81f0 	ldmia.w	sp!, {r4, r5, r6, r7, r8, pc}
 800158a:	4604      	mov	r4, r0
 800158c:	f44f 6080 	mov.w	r0, #1024	; 0x400
 8001590:	f04f 0810 	mov.w	r8, #16
 8001594:	f04f 0e00 	mov.w	lr, #0
 8001598:	f04f 0c80 	mov.w	ip, #128	; 0x80
 800159c:	f44f 7780 	mov.w	r7, #256	; 0x100
 80015a0:	2520      	movs	r5, #32
 80015a2:	f44f 5100 	mov.w	r1, #8192	; 0x2000
 80015a6:	4b2c      	ldr	r3, [pc, #176]	; (8001658 <HAL_TIM_Base_MspInit+0x104>)
 80015a8:	4e2c      	ldr	r6, [pc, #176]	; (800165c <HAL_TIM_Base_MspInit+0x108>)
 80015aa:	699a      	ldr	r2, [r3, #24]
 80015ac:	f442 6200 	orr.w	r2, r2, #2048	; 0x800
 80015b0:	619a      	str	r2, [r3, #24]
 80015b2:	699b      	ldr	r3, [r3, #24]
 80015b4:	6170      	str	r0, [r6, #20]
 80015b6:	f403 6300 	and.w	r3, r3, #2048	; 0x800
 80015ba:	9300      	str	r3, [sp, #0]
 80015bc:	9b00      	ldr	r3, [sp, #0]
 80015be:	4b28      	ldr	r3, [pc, #160]	; (8001660 <HAL_TIM_Base_MspInit+0x10c>)
 80015c0:	4630      	mov	r0, r6
 80015c2:	e9c6 8e01 	strd	r8, lr, [r6, #4]
 80015c6:	e9c6 c703 	strd	ip, r7, [r6, #12]
 80015ca:	e9c6 5106 	strd	r5, r1, [r6, #24]
 80015ce:	6033      	str	r3, [r6, #0]
 80015d0:	f000 fe78 	bl	80022c4 <HAL_DMA_Init>
 80015d4:	2800      	cmp	r0, #0
 80015d6:	d134      	bne.n	8001642 <HAL_TIM_Base_MspInit+0xee>
 80015d8:	2300      	movs	r3, #0
 80015da:	2210      	movs	r2, #16
 80015dc:	2180      	movs	r1, #128	; 0x80
 80015de:	4d21      	ldr	r5, [pc, #132]	; (8001664 <HAL_TIM_Base_MspInit+0x110>)
 80015e0:	62e6      	str	r6, [r4, #44]	; 0x2c
 80015e2:	e9c5 3102 	strd	r3, r1, [r5, #8]
 80015e6:	e9c5 3306 	strd	r3, r3, [r5, #24]
 80015ea:	606a      	str	r2, [r5, #4]
 80015ec:	f44f 6380 	mov.w	r3, #1024	; 0x400
 80015f0:	f44f 7280 	mov.w	r2, #256	; 0x100
 80015f4:	491c      	ldr	r1, [pc, #112]	; (8001668 <HAL_TIM_Base_MspInit+0x114>)
 80015f6:	4628      	mov	r0, r5
 80015f8:	e9c5 2304 	strd	r2, r3, [r5, #16]
 80015fc:	6274      	str	r4, [r6, #36]	; 0x24
 80015fe:	6029      	str	r1, [r5, #0]
 8001600:	f000 fe60 	bl	80022c4 <HAL_DMA_Init>
 8001604:	bb18      	cbnz	r0, 800164e <HAL_TIM_Base_MspInit+0xfa>
 8001606:	2300      	movs	r3, #0
 8001608:	2210      	movs	r2, #16
 800160a:	2180      	movs	r1, #128	; 0x80
 800160c:	4e17      	ldr	r6, [pc, #92]	; (800166c <HAL_TIM_Base_MspInit+0x118>)
 800160e:	e9c4 550d 	strd	r5, r5, [r4, #52]	; 0x34
 8001612:	e9c6 3102 	strd	r3, r1, [r6, #8]
 8001616:	e9c6 3306 	strd	r3, r3, [r6, #24]
 800161a:	6072      	str	r2, [r6, #4]
 800161c:	f44f 6380 	mov.w	r3, #1024	; 0x400
 8001620:	f44f 7280 	mov.w	r2, #256	; 0x100
 8001624:	4912      	ldr	r1, [pc, #72]	; (8001670 <HAL_TIM_Base_MspInit+0x11c>)
 8001626:	4630      	mov	r0, r6
 8001628:	6325      	str	r5, [r4, #48]	; 0x30
 800162a:	e9c6 2304 	strd	r2, r3, [r6, #16]
 800162e:	626c      	str	r4, [r5, #36]	; 0x24
 8001630:	6031      	str	r1, [r6, #0]
 8001632:	f000 fe47 	bl	80022c4 <HAL_DMA_Init>
 8001636:	b938      	cbnz	r0, 8001648 <HAL_TIM_Base_MspInit+0xf4>
 8001638:	6266      	str	r6, [r4, #36]	; 0x24
 800163a:	6274      	str	r4, [r6, #36]	; 0x24
 800163c:	b002      	add	sp, #8
 800163e:	e8bd 81f0 	ldmia.w	sp!, {r4, r5, r6, r7, r8, pc}
 8001642:	f7ff fe5d 	bl	8001300 <Error_Handler>
 8001646:	e7c7      	b.n	80015d8 <HAL_TIM_Base_MspInit+0x84>
 8001648:	f7ff fe5a 	bl	8001300 <Error_Handler>
 800164c:	e7f4      	b.n	8001638 <HAL_TIM_Base_MspInit+0xe4>
 800164e:	f7ff fe57 	bl	8001300 <Error_Handler>
 8001652:	e7d8      	b.n	8001606 <HAL_TIM_Base_MspInit+0xb2>
 8001654:	40012c00 	.word	0x40012c00
 8001658:	40021000 	.word	0x40021000
 800165c:	20000304 	.word	0x20000304
 8001660:	4002006c 	.word	0x4002006c
 8001664:	20000348 	.word	0x20000348
 8001668:	40020044 	.word	0x40020044
 800166c:	200002c0 	.word	0x200002c0
 8001670:	4002001c 	.word	0x4002001c

08001674 <HAL_TIM_MspPostInit>:
 8001674:	2300      	movs	r3, #0
 8001676:	b570      	push	{r4, r5, r6, lr}
 8001678:	4a12      	ldr	r2, [pc, #72]	; (80016c4 <HAL_TIM_MspPostInit+0x50>)
 800167a:	6801      	ldr	r1, [r0, #0]
 800167c:	b086      	sub	sp, #24
 800167e:	4291      	cmp	r1, r2
 8001680:	e9cd 3302 	strd	r3, r3, [sp, #8]
 8001684:	e9cd 3304 	strd	r3, r3, [sp, #16]
 8001688:	d001      	beq.n	800168e <HAL_TIM_MspPostInit+0x1a>
 800168a:	b006      	add	sp, #24
 800168c:	bd70      	pop	{r4, r5, r6, pc}
 800168e:	f44f 6450 	mov.w	r4, #3328	; 0xd00
 8001692:	2502      	movs	r5, #2
 8001694:	2602      	movs	r6, #2
 8001696:	f103 4380 	add.w	r3, r3, #1073741824	; 0x40000000
 800169a:	f503 3304 	add.w	r3, r3, #135168	; 0x21000
 800169e:	699a      	ldr	r2, [r3, #24]
 80016a0:	4809      	ldr	r0, [pc, #36]	; (80016c8 <HAL_TIM_MspPostInit+0x54>)
 80016a2:	f042 0204 	orr.w	r2, r2, #4
 80016a6:	619a      	str	r2, [r3, #24]
 80016a8:	699b      	ldr	r3, [r3, #24]
 80016aa:	a902      	add	r1, sp, #8
 80016ac:	f003 0304 	and.w	r3, r3, #4
 80016b0:	9301      	str	r3, [sp, #4]
 80016b2:	e9cd 4502 	strd	r4, r5, [sp, #8]
 80016b6:	9b01      	ldr	r3, [sp, #4]
 80016b8:	9605      	str	r6, [sp, #20]
 80016ba:	f000 ff7d 	bl	80025b8 <HAL_GPIO_Init>
 80016be:	b006      	add	sp, #24
 80016c0:	bd70      	pop	{r4, r5, r6, pc}
 80016c2:	bf00      	nop
 80016c4:	40012c00 	.word	0x40012c00
 80016c8:	40010800 	.word	0x40010800

080016cc <HAL_UART_MspInit>:
 80016cc:	b5f0      	push	{r4, r5, r6, r7, lr}
 80016ce:	2400      	movs	r4, #0
 80016d0:	4b21      	ldr	r3, [pc, #132]	; (8001758 <HAL_UART_MspInit+0x8c>)
 80016d2:	6802      	ldr	r2, [r0, #0]
 80016d4:	b087      	sub	sp, #28
 80016d6:	429a      	cmp	r2, r3
 80016d8:	e9cd 4402 	strd	r4, r4, [sp, #8]
 80016dc:	e9cd 4404 	strd	r4, r4, [sp, #16]
 80016e0:	d001      	beq.n	80016e6 <HAL_UART_MspInit+0x1a>
 80016e2:	b007      	add	sp, #28
 80016e4:	bdf0      	pop	{r4, r5, r6, r7, pc}
 80016e6:	f503 4358 	add.w	r3, r3, #55296	; 0xd800
 80016ea:	699a      	ldr	r2, [r3, #24]
 80016ec:	2640      	movs	r6, #64	; 0x40
 80016ee:	f442 4280 	orr.w	r2, r2, #16384	; 0x4000
 80016f2:	619a      	str	r2, [r3, #24]
 80016f4:	699a      	ldr	r2, [r3, #24]
 80016f6:	2702      	movs	r7, #2
 80016f8:	f402 4280 	and.w	r2, r2, #16384	; 0x4000
 80016fc:	9200      	str	r2, [sp, #0]
 80016fe:	9a00      	ldr	r2, [sp, #0]
 8001700:	699a      	ldr	r2, [r3, #24]
 8001702:	a902      	add	r1, sp, #8
 8001704:	f042 0208 	orr.w	r2, r2, #8
 8001708:	619a      	str	r2, [r3, #24]
 800170a:	699b      	ldr	r3, [r3, #24]
 800170c:	4813      	ldr	r0, [pc, #76]	; (800175c <HAL_UART_MspInit+0x90>)
 800170e:	f003 0308 	and.w	r3, r3, #8
 8001712:	9301      	str	r3, [sp, #4]
 8001714:	2303      	movs	r3, #3
 8001716:	9a01      	ldr	r2, [sp, #4]
 8001718:	9305      	str	r3, [sp, #20]
 800171a:	e9cd 6702 	strd	r6, r7, [sp, #8]
 800171e:	f000 ff4b 	bl	80025b8 <HAL_GPIO_Init>
 8001722:	2280      	movs	r2, #128	; 0x80
 8001724:	2300      	movs	r3, #0
 8001726:	4d0e      	ldr	r5, [pc, #56]	; (8001760 <HAL_UART_MspInit+0x94>)
 8001728:	a902      	add	r1, sp, #8
 800172a:	480c      	ldr	r0, [pc, #48]	; (800175c <HAL_UART_MspInit+0x90>)
 800172c:	e9cd 2302 	strd	r2, r3, [sp, #8]
 8001730:	9404      	str	r4, [sp, #16]
 8001732:	f000 ff41 	bl	80025b8 <HAL_GPIO_Init>
 8001736:	686b      	ldr	r3, [r5, #4]
 8001738:	4622      	mov	r2, r4
 800173a:	f043 63e0 	orr.w	r3, r3, #117440512	; 0x7000000
 800173e:	f043 0304 	orr.w	r3, r3, #4
 8001742:	4621      	mov	r1, r4
 8001744:	606b      	str	r3, [r5, #4]
 8001746:	2025      	movs	r0, #37	; 0x25
 8001748:	f000 fd58 	bl	80021fc <HAL_NVIC_SetPriority>
 800174c:	2025      	movs	r0, #37	; 0x25
 800174e:	f000 fd93 	bl	8002278 <HAL_NVIC_EnableIRQ>
 8001752:	b007      	add	sp, #28
 8001754:	bdf0      	pop	{r4, r5, r6, r7, pc}
 8001756:	bf00      	nop
 8001758:	40013800 	.word	0x40013800
 800175c:	40010c00 	.word	0x40010c00
 8001760:	40010000 	.word	0x40010000

08001764 <NMI_Handler>:
 8001764:	e7fe      	b.n	8001764 <NMI_Handler>
 8001766:	bf00      	nop

08001768 <HardFault_Handler>:
 8001768:	e7fe      	b.n	8001768 <HardFault_Handler>
 800176a:	bf00      	nop

0800176c <MemManage_Handler>:
 800176c:	e7fe      	b.n	800176c <MemManage_Handler>
 800176e:	bf00      	nop

08001770 <BusFault_Handler>:
 8001770:	e7fe      	b.n	8001770 <BusFault_Handler>
 8001772:	bf00      	nop

08001774 <UsageFault_Handler>:
 8001774:	e7fe      	b.n	8001774 <UsageFault_Handler>
 8001776:	bf00      	nop

08001778 <SVC_Handler>:
 8001778:	4770      	bx	lr
 800177a:	bf00      	nop

0800177c <DebugMon_Handler>:
 800177c:	4770      	bx	lr
 800177e:	bf00      	nop

08001780 <PendSV_Handler>:
 8001780:	4770      	bx	lr
 8001782:	bf00      	nop

08001784 <SysTick_Handler>:
 8001784:	f000 b8e2 	b.w	800194c <HAL_IncTick>

08001788 <DMA1_Channel1_IRQHandler>:
 8001788:	4801      	ldr	r0, [pc, #4]	; (8001790 <DMA1_Channel1_IRQHandler+0x8>)
 800178a:	f000 be81 	b.w	8002490 <HAL_DMA_IRQHandler>
 800178e:	bf00      	nop
 8001790:	20000238 	.word	0x20000238

08001794 <DMA1_Channel2_IRQHandler>:
 8001794:	4801      	ldr	r0, [pc, #4]	; (800179c <DMA1_Channel2_IRQHandler+0x8>)
 8001796:	f000 be7b 	b.w	8002490 <HAL_DMA_IRQHandler>
 800179a:	bf00      	nop
 800179c:	200002c0 	.word	0x200002c0

080017a0 <DMA1_Channel3_IRQHandler>:
 80017a0:	4801      	ldr	r0, [pc, #4]	; (80017a8 <DMA1_Channel3_IRQHandler+0x8>)
 80017a2:	f000 be75 	b.w	8002490 <HAL_DMA_IRQHandler>
 80017a6:	bf00      	nop
 80017a8:	2000027c 	.word	0x2000027c

080017ac <DMA1_Channel4_IRQHandler>:
 80017ac:	4801      	ldr	r0, [pc, #4]	; (80017b4 <DMA1_Channel4_IRQHandler+0x8>)
 80017ae:	f000 be6f 	b.w	8002490 <HAL_DMA_IRQHandler>
 80017b2:	bf00      	nop
 80017b4:	20000348 	.word	0x20000348

080017b8 <DMA1_Channel6_IRQHandler>:
 80017b8:	4801      	ldr	r0, [pc, #4]	; (80017c0 <DMA1_Channel6_IRQHandler+0x8>)
 80017ba:	f000 be69 	b.w	8002490 <HAL_DMA_IRQHandler>
 80017be:	bf00      	nop
 80017c0:	20000304 	.word	0x20000304

080017c4 <USART1_IRQHandler>:
 80017c4:	4801      	ldr	r0, [pc, #4]	; (80017cc <USART1_IRQHandler+0x8>)
 80017c6:	f002 beed 	b.w	80045a4 <HAL_UART_IRQHandler>
 80017ca:	bf00      	nop
 80017cc:	200004c8 	.word	0x200004c8

080017d0 <_getpid>:
 80017d0:	2001      	movs	r0, #1
 80017d2:	4770      	bx	lr

080017d4 <_kill>:
 80017d4:	b508      	push	{r3, lr}
 80017d6:	f005 fd35 	bl	8007244 <__errno>
 80017da:	2216      	movs	r2, #22
 80017dc:	4603      	mov	r3, r0
 80017de:	f04f 30ff 	mov.w	r0, #4294967295
 80017e2:	601a      	str	r2, [r3, #0]
 80017e4:	bd08      	pop	{r3, pc}
 80017e6:	bf00      	nop

080017e8 <_exit>:
 80017e8:	b508      	push	{r3, lr}
 80017ea:	f005 fd2b 	bl	8007244 <__errno>
 80017ee:	2316      	movs	r3, #22
 80017f0:	6003      	str	r3, [r0, #0]
 80017f2:	e7fe      	b.n	80017f2 <_exit+0xa>

080017f4 <_read>:
 80017f4:	b570      	push	{r4, r5, r6, lr}
 80017f6:	1e16      	subs	r6, r2, #0
 80017f8:	dd07      	ble.n	800180a <_read+0x16>
 80017fa:	460c      	mov	r4, r1
 80017fc:	198d      	adds	r5, r1, r6
 80017fe:	f3af 8000 	nop.w
 8001802:	f804 0b01 	strb.w	r0, [r4], #1
 8001806:	42a5      	cmp	r5, r4
 8001808:	d1f9      	bne.n	80017fe <_read+0xa>
 800180a:	4630      	mov	r0, r6
 800180c:	bd70      	pop	{r4, r5, r6, pc}
 800180e:	bf00      	nop

08001810 <_write>:
 8001810:	b570      	push	{r4, r5, r6, lr}
 8001812:	1e16      	subs	r6, r2, #0
 8001814:	dd07      	ble.n	8001826 <_write+0x16>
 8001816:	460c      	mov	r4, r1
 8001818:	198d      	adds	r5, r1, r6
 800181a:	f814 0b01 	ldrb.w	r0, [r4], #1
 800181e:	f3af 8000 	nop.w
 8001822:	42ac      	cmp	r4, r5
 8001824:	d1f9      	bne.n	800181a <_write+0xa>
 8001826:	4630      	mov	r0, r6
 8001828:	bd70      	pop	{r4, r5, r6, pc}
 800182a:	bf00      	nop

0800182c <_close>:
 800182c:	f04f 30ff 	mov.w	r0, #4294967295
 8001830:	4770      	bx	lr
 8001832:	bf00      	nop

08001834 <_fstat>:
 8001834:	f44f 5300 	mov.w	r3, #8192	; 0x2000
 8001838:	2000      	movs	r0, #0
 800183a:	604b      	str	r3, [r1, #4]
 800183c:	4770      	bx	lr
 800183e:	bf00      	nop

08001840 <_isatty>:
 8001840:	2001      	movs	r0, #1
 8001842:	4770      	bx	lr

08001844 <_lseek>:
 8001844:	2000      	movs	r0, #0
 8001846:	4770      	bx	lr

08001848 <_sbrk>:
 8001848:	490d      	ldr	r1, [pc, #52]	; (8001880 <_sbrk+0x38>)
 800184a:	4603      	mov	r3, r0
 800184c:	b510      	push	{r4, lr}
 800184e:	4a0d      	ldr	r2, [pc, #52]	; (8001884 <_sbrk+0x3c>)
 8001850:	4c0d      	ldr	r4, [pc, #52]	; (8001888 <_sbrk+0x40>)
 8001852:	6808      	ldr	r0, [r1, #0]
 8001854:	1b12      	subs	r2, r2, r4
 8001856:	b120      	cbz	r0, 8001862 <_sbrk+0x1a>
 8001858:	4403      	add	r3, r0
 800185a:	4293      	cmp	r3, r2
 800185c:	d807      	bhi.n	800186e <_sbrk+0x26>
 800185e:	600b      	str	r3, [r1, #0]
 8001860:	bd10      	pop	{r4, pc}
 8001862:	4c0a      	ldr	r4, [pc, #40]	; (800188c <_sbrk+0x44>)
 8001864:	4620      	mov	r0, r4
 8001866:	4403      	add	r3, r0
 8001868:	4293      	cmp	r3, r2
 800186a:	600c      	str	r4, [r1, #0]
 800186c:	d9f7      	bls.n	800185e <_sbrk+0x16>
 800186e:	f005 fce9 	bl	8007244 <__errno>
 8001872:	220c      	movs	r2, #12
 8001874:	4603      	mov	r3, r0
 8001876:	f04f 30ff 	mov.w	r0, #4294967295
 800187a:	601a      	str	r2, [r3, #0]
 800187c:	bd10      	pop	{r4, pc}
 800187e:	bf00      	nop
 8001880:	2000050c 	.word	0x2000050c
 8001884:	20005000 	.word	0x20005000
 8001888:	00000400 	.word	0x00000400
 800188c:	200028d0 	.word	0x200028d0

08001890 <SystemInit>:
 8001890:	4770      	bx	lr
 8001892:	bf00      	nop

08001894 <Reset_Handler>:
 8001894:	480c      	ldr	r0, [pc, #48]	; (80018c8 <LoopFillZerobss+0x12>)
 8001896:	490d      	ldr	r1, [pc, #52]	; (80018cc <LoopFillZerobss+0x16>)
 8001898:	4a0d      	ldr	r2, [pc, #52]	; (80018d0 <LoopFillZerobss+0x1a>)
 800189a:	2300      	movs	r3, #0
 800189c:	e002      	b.n	80018a4 <LoopCopyDataInit>

0800189e <CopyDataInit>:
 800189e:	58d4      	ldr	r4, [r2, r3]
 80018a0:	50c4      	str	r4, [r0, r3]
 80018a2:	3304      	adds	r3, #4

080018a4 <LoopCopyDataInit>:
 80018a4:	18c4      	adds	r4, r0, r3
 80018a6:	428c      	cmp	r4, r1
 80018a8:	d3f9      	bcc.n	800189e <CopyDataInit>
 80018aa:	4a0a      	ldr	r2, [pc, #40]	; (80018d4 <LoopFillZerobss+0x1e>)
 80018ac:	4c0a      	ldr	r4, [pc, #40]	; (80018d8 <LoopFillZerobss+0x22>)
 80018ae:	2300      	movs	r3, #0
 80018b0:	e001      	b.n	80018b6 <LoopFillZerobss>

080018b2 <FillZerobss>:
 80018b2:	6013      	str	r3, [r2, #0]
 80018b4:	3204      	adds	r2, #4

080018b6 <LoopFillZerobss>:
 80018b6:	42a2      	cmp	r2, r4
 80018b8:	d3fb      	bcc.n	80018b2 <FillZerobss>
 80018ba:	f7ff ffe9 	bl	8001890 <SystemInit>
 80018be:	f005 fcc7 	bl	8007250 <__libc_init_array>
 80018c2:	f7ff faa7 	bl	8000e14 <main>
 80018c6:	4770      	bx	lr
 80018c8:	20000000 	.word	0x20000000
 80018cc:	200001bc 	.word	0x200001bc
 80018d0:	08008d10 	.word	0x08008d10
 80018d4:	200001bc 	.word	0x200001bc
 80018d8:	200028cc 	.word	0x200028cc

080018dc <ADC1_2_IRQHandler>:
 80018dc:	e7fe      	b.n	80018dc <ADC1_2_IRQHandler>
	...

080018e0 <HAL_InitTick>:
 80018e0:	b538      	push	{r3, r4, r5, lr}
 80018e2:	f44f 737a 	mov.w	r3, #1000	; 0x3e8
 80018e6:	4a0d      	ldr	r2, [pc, #52]	; (800191c <HAL_InitTick+0x3c>)
 80018e8:	4605      	mov	r5, r0
 80018ea:	7811      	ldrb	r1, [r2, #0]
 80018ec:	4a0c      	ldr	r2, [pc, #48]	; (8001920 <HAL_InitTick+0x40>)
 80018ee:	fbb3 f3f1 	udiv	r3, r3, r1
 80018f2:	6812      	ldr	r2, [r2, #0]
 80018f4:	fbb2 f0f3 	udiv	r0, r2, r3
 80018f8:	f000 fccc 	bl	8002294 <HAL_SYSTICK_Config>
 80018fc:	b908      	cbnz	r0, 8001902 <HAL_InitTick+0x22>
 80018fe:	2d0f      	cmp	r5, #15
 8001900:	d901      	bls.n	8001906 <HAL_InitTick+0x26>
 8001902:	2001      	movs	r0, #1
 8001904:	bd38      	pop	{r3, r4, r5, pc}
 8001906:	4604      	mov	r4, r0
 8001908:	4602      	mov	r2, r0
 800190a:	4629      	mov	r1, r5
 800190c:	f04f 30ff 	mov.w	r0, #4294967295
 8001910:	f000 fc74 	bl	80021fc <HAL_NVIC_SetPriority>
 8001914:	4b03      	ldr	r3, [pc, #12]	; (8001924 <HAL_InitTick+0x44>)
 8001916:	4620      	mov	r0, r4
 8001918:	601d      	str	r5, [r3, #0]
 800191a:	bd38      	pop	{r3, r4, r5, pc}
 800191c:	20000004 	.word	0x20000004
 8001920:	20000000 	.word	0x20000000
 8001924:	20000008 	.word	0x20000008

08001928 <HAL_Init>:
 8001928:	4a07      	ldr	r2, [pc, #28]	; (8001948 <HAL_Init+0x20>)
 800192a:	b508      	push	{r3, lr}
 800192c:	6813      	ldr	r3, [r2, #0]
 800192e:	2003      	movs	r0, #3
 8001930:	f043 0310 	orr.w	r3, r3, #16
 8001934:	6013      	str	r3, [r2, #0]
 8001936:	f000 fc4f 	bl	80021d8 <HAL_NVIC_SetPriorityGrouping>
 800193a:	200f      	movs	r0, #15
 800193c:	f7ff ffd0 	bl	80018e0 <HAL_InitTick>
 8001940:	f7ff fce0 	bl	8001304 <HAL_MspInit>
 8001944:	2000      	movs	r0, #0
 8001946:	bd08      	pop	{r3, pc}
 8001948:	40022000 	.word	0x40022000

0800194c <HAL_IncTick>:
 800194c:	4a03      	ldr	r2, [pc, #12]	; (800195c <HAL_IncTick+0x10>)
 800194e:	4b04      	ldr	r3, [pc, #16]	; (8001960 <HAL_IncTick+0x14>)
 8001950:	6811      	ldr	r1, [r2, #0]
 8001952:	781b      	ldrb	r3, [r3, #0]
 8001954:	440b      	add	r3, r1
 8001956:	6013      	str	r3, [r2, #0]
 8001958:	4770      	bx	lr
 800195a:	bf00      	nop
 800195c:	20000510 	.word	0x20000510
 8001960:	20000004 	.word	0x20000004

08001964 <HAL_GetTick>:
 8001964:	4b01      	ldr	r3, [pc, #4]	; (800196c <HAL_GetTick+0x8>)
 8001966:	6818      	ldr	r0, [r3, #0]
 8001968:	4770      	bx	lr
 800196a:	bf00      	nop
 800196c:	20000510 	.word	0x20000510

08001970 <HAL_Delay>:
 8001970:	b538      	push	{r3, r4, r5, lr}
 8001972:	4604      	mov	r4, r0
 8001974:	f7ff fff6 	bl	8001964 <HAL_GetTick>
 8001978:	1c63      	adds	r3, r4, #1
 800197a:	4605      	mov	r5, r0
 800197c:	d002      	beq.n	8001984 <HAL_Delay+0x14>
 800197e:	4b04      	ldr	r3, [pc, #16]	; (8001990 <HAL_Delay+0x20>)
 8001980:	781b      	ldrb	r3, [r3, #0]
 8001982:	441c      	add	r4, r3
 8001984:	f7ff ffee 	bl	8001964 <HAL_GetTick>
 8001988:	1b40      	subs	r0, r0, r5
 800198a:	42a0      	cmp	r0, r4
 800198c:	d3fa      	bcc.n	8001984 <HAL_Delay+0x14>
 800198e:	bd38      	pop	{r3, r4, r5, pc}
 8001990:	20000004 	.word	0x20000004

08001994 <HAL_ADC_Init>:
 8001994:	2800      	cmp	r0, #0
 8001996:	f000 8089 	beq.w	8001aac <HAL_ADC_Init+0x118>
 800199a:	b538      	push	{r3, r4, r5, lr}
 800199c:	6a83      	ldr	r3, [r0, #40]	; 0x28
 800199e:	4604      	mov	r4, r0
 80019a0:	2b00      	cmp	r3, #0
 80019a2:	d06b      	beq.n	8001a7c <HAL_ADC_Init+0xe8>
 80019a4:	6823      	ldr	r3, [r4, #0]
 80019a6:	689a      	ldr	r2, [r3, #8]
 80019a8:	07d1      	lsls	r1, r2, #31
 80019aa:	d440      	bmi.n	8001a2e <HAL_ADC_Init+0x9a>
 80019ac:	6aa2      	ldr	r2, [r4, #40]	; 0x28
 80019ae:	06d2      	lsls	r2, r2, #27
 80019b0:	d45e      	bmi.n	8001a70 <HAL_ADC_Init+0xdc>
 80019b2:	6aa2      	ldr	r2, [r4, #40]	; 0x28
 80019b4:	6861      	ldr	r1, [r4, #4]
 80019b6:	69e0      	ldr	r0, [r4, #28]
 80019b8:	f422 5288 	bic.w	r2, r2, #4352	; 0x1100
 80019bc:	7b25      	ldrb	r5, [r4, #12]
 80019be:	f022 0202 	bic.w	r2, r2, #2
 80019c2:	4301      	orrs	r1, r0
 80019c4:	f042 0202 	orr.w	r2, r2, #2
 80019c8:	62a2      	str	r2, [r4, #40]	; 0x28
 80019ca:	ea41 0245 	orr.w	r2, r1, r5, lsl #1
 80019ce:	68a1      	ldr	r1, [r4, #8]
 80019d0:	f5b1 7f80 	cmp.w	r1, #256	; 0x100
 80019d4:	d058      	beq.n	8001a88 <HAL_ADC_Init+0xf4>
 80019d6:	7d20      	ldrb	r0, [r4, #20]
 80019d8:	2901      	cmp	r1, #1
 80019da:	bf0c      	ite	eq
 80019dc:	f44f 7c80 	moveq.w	ip, #256	; 0x100
 80019e0:	f04f 0c00 	movne.w	ip, #0
 80019e4:	2801      	cmp	r0, #1
 80019e6:	d06d      	beq.n	8001ac4 <HAL_ADC_Init+0x130>
 80019e8:	6858      	ldr	r0, [r3, #4]
 80019ea:	f420 4069 	bic.w	r0, r0, #59648	; 0xe900
 80019ee:	ea40 000c 	orr.w	r0, r0, ip
 80019f2:	6058      	str	r0, [r3, #4]
 80019f4:	689d      	ldr	r5, [r3, #8]
 80019f6:	4844      	ldr	r0, [pc, #272]	; (8001b08 <HAL_ADC_Init+0x174>)
 80019f8:	4028      	ands	r0, r5
 80019fa:	4310      	orrs	r0, r2
 80019fc:	6098      	str	r0, [r3, #8]
 80019fe:	2901      	cmp	r1, #1
 8001a00:	d050      	beq.n	8001aa4 <HAL_ADC_Init+0x110>
 8001a02:	2000      	movs	r0, #0
 8001a04:	6ad9      	ldr	r1, [r3, #44]	; 0x2c
 8001a06:	f421 0170 	bic.w	r1, r1, #15728640	; 0xf00000
 8001a0a:	4301      	orrs	r1, r0
 8001a0c:	62d9      	str	r1, [r3, #44]	; 0x2c
 8001a0e:	6899      	ldr	r1, [r3, #8]
 8001a10:	4b3e      	ldr	r3, [pc, #248]	; (8001b0c <HAL_ADC_Init+0x178>)
 8001a12:	400b      	ands	r3, r1
 8001a14:	429a      	cmp	r2, r3
 8001a16:	d04b      	beq.n	8001ab0 <HAL_ADC_Init+0x11c>
 8001a18:	2001      	movs	r0, #1
 8001a1a:	6aa3      	ldr	r3, [r4, #40]	; 0x28
 8001a1c:	f023 0312 	bic.w	r3, r3, #18
 8001a20:	f043 0310 	orr.w	r3, r3, #16
 8001a24:	62a3      	str	r3, [r4, #40]	; 0x28
 8001a26:	6ae3      	ldr	r3, [r4, #44]	; 0x2c
 8001a28:	4303      	orrs	r3, r0
 8001a2a:	62e3      	str	r3, [r4, #44]	; 0x2c
 8001a2c:	bd38      	pop	{r3, r4, r5, pc}
 8001a2e:	689a      	ldr	r2, [r3, #8]
 8001a30:	f022 0201 	bic.w	r2, r2, #1
 8001a34:	609a      	str	r2, [r3, #8]
 8001a36:	f7ff ff95 	bl	8001964 <HAL_GetTick>
 8001a3a:	6823      	ldr	r3, [r4, #0]
 8001a3c:	4605      	mov	r5, r0
 8001a3e:	689a      	ldr	r2, [r3, #8]
 8001a40:	07d2      	lsls	r2, r2, #31
 8001a42:	d5b3      	bpl.n	80019ac <HAL_ADC_Init+0x18>
 8001a44:	e002      	b.n	8001a4c <HAL_ADC_Init+0xb8>
 8001a46:	689a      	ldr	r2, [r3, #8]
 8001a48:	07d1      	lsls	r1, r2, #31
 8001a4a:	d5af      	bpl.n	80019ac <HAL_ADC_Init+0x18>
 8001a4c:	f7ff ff8a 	bl	8001964 <HAL_GetTick>
 8001a50:	1b40      	subs	r0, r0, r5
 8001a52:	2802      	cmp	r0, #2
 8001a54:	6823      	ldr	r3, [r4, #0]
 8001a56:	d9f6      	bls.n	8001a46 <HAL_ADC_Init+0xb2>
 8001a58:	689a      	ldr	r2, [r3, #8]
 8001a5a:	07d0      	lsls	r0, r2, #31
 8001a5c:	d5f3      	bpl.n	8001a46 <HAL_ADC_Init+0xb2>
 8001a5e:	6aa3      	ldr	r3, [r4, #40]	; 0x28
 8001a60:	f043 0310 	orr.w	r3, r3, #16
 8001a64:	62a3      	str	r3, [r4, #40]	; 0x28
 8001a66:	6ae3      	ldr	r3, [r4, #44]	; 0x2c
 8001a68:	f043 0301 	orr.w	r3, r3, #1
 8001a6c:	62e3      	str	r3, [r4, #44]	; 0x2c
 8001a6e:	6aa3      	ldr	r3, [r4, #40]	; 0x28
 8001a70:	6aa3      	ldr	r3, [r4, #40]	; 0x28
 8001a72:	2001      	movs	r0, #1
 8001a74:	f043 0310 	orr.w	r3, r3, #16
 8001a78:	62a3      	str	r3, [r4, #40]	; 0x28
 8001a7a:	bd38      	pop	{r3, r4, r5, pc}
 8001a7c:	62c3      	str	r3, [r0, #44]	; 0x2c
 8001a7e:	f880 3024 	strb.w	r3, [r0, #36]	; 0x24
 8001a82:	f7ff fc61 	bl	8001348 <HAL_ADC_MspInit>
 8001a86:	e78d      	b.n	80019a4 <HAL_ADC_Init+0x10>
 8001a88:	7d20      	ldrb	r0, [r4, #20]
 8001a8a:	2801      	cmp	r0, #1
 8001a8c:	d019      	beq.n	8001ac2 <HAL_ADC_Init+0x12e>
 8001a8e:	6858      	ldr	r0, [r3, #4]
 8001a90:	491d      	ldr	r1, [pc, #116]	; (8001b08 <HAL_ADC_Init+0x174>)
 8001a92:	f420 4069 	bic.w	r0, r0, #59648	; 0xe900
 8001a96:	f440 7080 	orr.w	r0, r0, #256	; 0x100
 8001a9a:	6058      	str	r0, [r3, #4]
 8001a9c:	6898      	ldr	r0, [r3, #8]
 8001a9e:	4001      	ands	r1, r0
 8001aa0:	4311      	orrs	r1, r2
 8001aa2:	6099      	str	r1, [r3, #8]
 8001aa4:	6921      	ldr	r1, [r4, #16]
 8001aa6:	3901      	subs	r1, #1
 8001aa8:	0508      	lsls	r0, r1, #20
 8001aaa:	e7ab      	b.n	8001a04 <HAL_ADC_Init+0x70>
 8001aac:	2001      	movs	r0, #1
 8001aae:	4770      	bx	lr
 8001ab0:	2000      	movs	r0, #0
 8001ab2:	62e0      	str	r0, [r4, #44]	; 0x2c
 8001ab4:	6aa3      	ldr	r3, [r4, #40]	; 0x28
 8001ab6:	f023 0303 	bic.w	r3, r3, #3
 8001aba:	f043 0301 	orr.w	r3, r3, #1
 8001abe:	62a3      	str	r3, [r4, #40]	; 0x28
 8001ac0:	bd38      	pop	{r3, r4, r5, pc}
 8001ac2:	468c      	mov	ip, r1
 8001ac4:	b1c5      	cbz	r5, 8001af8 <HAL_ADC_Init+0x164>
 8001ac6:	6aa0      	ldr	r0, [r4, #40]	; 0x28
 8001ac8:	f040 0020 	orr.w	r0, r0, #32
 8001acc:	62a0      	str	r0, [r4, #40]	; 0x28
 8001ace:	6ae0      	ldr	r0, [r4, #44]	; 0x2c
 8001ad0:	f040 0001 	orr.w	r0, r0, #1
 8001ad4:	62e0      	str	r0, [r4, #44]	; 0x2c
 8001ad6:	6858      	ldr	r0, [r3, #4]
 8001ad8:	f5b1 7f80 	cmp.w	r1, #256	; 0x100
 8001adc:	f420 4069 	bic.w	r0, r0, #59648	; 0xe900
 8001ae0:	ea40 000c 	orr.w	r0, r0, ip
 8001ae4:	6058      	str	r0, [r3, #4]
 8001ae6:	689d      	ldr	r5, [r3, #8]
 8001ae8:	4807      	ldr	r0, [pc, #28]	; (8001b08 <HAL_ADC_Init+0x174>)
 8001aea:	ea00 0005 	and.w	r0, r0, r5
 8001aee:	ea40 0002 	orr.w	r0, r0, r2
 8001af2:	6098      	str	r0, [r3, #8]
 8001af4:	d183      	bne.n	80019fe <HAL_ADC_Init+0x6a>
 8001af6:	e7d5      	b.n	8001aa4 <HAL_ADC_Init+0x110>
 8001af8:	69a0      	ldr	r0, [r4, #24]
 8001afa:	3801      	subs	r0, #1
 8001afc:	ea4c 3040 	orr.w	r0, ip, r0, lsl #13
 8001b00:	f440 6c00 	orr.w	ip, r0, #2048	; 0x800
 8001b04:	e7e7      	b.n	8001ad6 <HAL_ADC_Init+0x142>
 8001b06:	bf00      	nop
 8001b08:	ffe1f7fd 	.word	0xffe1f7fd
 8001b0c:	ff1f0efe 	.word	0xff1f0efe

08001b10 <ADC_DMAConvCplt>:
 8001b10:	6a43      	ldr	r3, [r0, #36]	; 0x24
 8001b12:	6a9a      	ldr	r2, [r3, #40]	; 0x28
 8001b14:	f012 0f50 	tst.w	r2, #80	; 0x50
 8001b18:	d10f      	bne.n	8001b3a <ADC_DMAConvCplt+0x2a>
 8001b1a:	6a9a      	ldr	r2, [r3, #40]	; 0x28
 8001b1c:	6819      	ldr	r1, [r3, #0]
 8001b1e:	f442 7200 	orr.w	r2, r2, #512	; 0x200
 8001b22:	b510      	push	{r4, lr}
 8001b24:	629a      	str	r2, [r3, #40]	; 0x28
 8001b26:	688a      	ldr	r2, [r1, #8]
 8001b28:	f402 2260 	and.w	r2, r2, #917504	; 0xe0000
 8001b2c:	f5b2 2f60 	cmp.w	r2, #917504	; 0xe0000
 8001b30:	d006      	beq.n	8001b40 <ADC_DMAConvCplt+0x30>
 8001b32:	4618      	mov	r0, r3
 8001b34:	f003 fcc0 	bl	80054b8 <HAL_ADC_ConvCpltCallback>
 8001b38:	bd10      	pop	{r4, pc}
 8001b3a:	6a1b      	ldr	r3, [r3, #32]
 8001b3c:	6b1b      	ldr	r3, [r3, #48]	; 0x30
 8001b3e:	4718      	bx	r3
 8001b40:	7b1a      	ldrb	r2, [r3, #12]
 8001b42:	2a00      	cmp	r2, #0
 8001b44:	d1f5      	bne.n	8001b32 <ADC_DMAConvCplt+0x22>
 8001b46:	6a9a      	ldr	r2, [r3, #40]	; 0x28
 8001b48:	f422 7280 	bic.w	r2, r2, #256	; 0x100
 8001b4c:	629a      	str	r2, [r3, #40]	; 0x28
 8001b4e:	6a9a      	ldr	r2, [r3, #40]	; 0x28
 8001b50:	04d2      	lsls	r2, r2, #19
 8001b52:	d4ee      	bmi.n	8001b32 <ADC_DMAConvCplt+0x22>
 8001b54:	6a9a      	ldr	r2, [r3, #40]	; 0x28
 8001b56:	f042 0201 	orr.w	r2, r2, #1
 8001b5a:	629a      	str	r2, [r3, #40]	; 0x28
 8001b5c:	e7e9      	b.n	8001b32 <ADC_DMAConvCplt+0x22>
 8001b5e:	bf00      	nop

08001b60 <ADC_DMAHalfConvCplt>:
 8001b60:	b508      	push	{r3, lr}
 8001b62:	6a40      	ldr	r0, [r0, #36]	; 0x24
 8001b64:	f003 fc90 	bl	8005488 <HAL_ADC_ConvHalfCpltCallback>
 8001b68:	bd08      	pop	{r3, pc}
 8001b6a:	bf00      	nop

08001b6c <HAL_ADC_ErrorCallback>:
 8001b6c:	4770      	bx	lr
 8001b6e:	bf00      	nop

08001b70 <ADC_DMAError>:
 8001b70:	6a40      	ldr	r0, [r0, #36]	; 0x24
 8001b72:	b508      	push	{r3, lr}
 8001b74:	6a83      	ldr	r3, [r0, #40]	; 0x28
 8001b76:	f043 0340 	orr.w	r3, r3, #64	; 0x40
 8001b7a:	6283      	str	r3, [r0, #40]	; 0x28
 8001b7c:	6ac3      	ldr	r3, [r0, #44]	; 0x2c
 8001b7e:	f043 0304 	orr.w	r3, r3, #4
 8001b82:	62c3      	str	r3, [r0, #44]	; 0x2c
 8001b84:	f7ff fff2 	bl	8001b6c <HAL_ADC_ErrorCallback>
 8001b88:	bd08      	pop	{r3, pc}
 8001b8a:	bf00      	nop

08001b8c <HAL_ADC_ConfigChannel>:
 8001b8c:	2300      	movs	r3, #0
 8001b8e:	b530      	push	{r4, r5, lr}
 8001b90:	b083      	sub	sp, #12
 8001b92:	9301      	str	r3, [sp, #4]
 8001b94:	f890 3024 	ldrb.w	r3, [r0, #36]	; 0x24
 8001b98:	2b01      	cmp	r3, #1
 8001b9a:	d074      	beq.n	8001c86 <HAL_ADC_ConfigChannel+0xfa>
 8001b9c:	2301      	movs	r3, #1
 8001b9e:	f880 3024 	strb.w	r3, [r0, #36]	; 0x24
 8001ba2:	684b      	ldr	r3, [r1, #4]
 8001ba4:	4602      	mov	r2, r0
 8001ba6:	2b06      	cmp	r3, #6
 8001ba8:	6804      	ldr	r4, [r0, #0]
 8001baa:	d932      	bls.n	8001c12 <HAL_ADC_ConfigChannel+0x86>
 8001bac:	2b0c      	cmp	r3, #12
 8001bae:	eb03 0383 	add.w	r3, r3, r3, lsl #2
 8001bb2:	d84e      	bhi.n	8001c52 <HAL_ADC_ConfigChannel+0xc6>
 8001bb4:	f04f 0c1f 	mov.w	ip, #31
 8001bb8:	6808      	ldr	r0, [r1, #0]
 8001bba:	6b25      	ldr	r5, [r4, #48]	; 0x30
 8001bbc:	3b23      	subs	r3, #35	; 0x23
 8001bbe:	fa00 fe03 	lsl.w	lr, r0, r3
 8001bc2:	fa0c f303 	lsl.w	r3, ip, r3
 8001bc6:	ea25 0303 	bic.w	r3, r5, r3
 8001bca:	ea43 030e 	orr.w	r3, r3, lr
 8001bce:	6323      	str	r3, [r4, #48]	; 0x30
 8001bd0:	2809      	cmp	r0, #9
 8001bd2:	d930      	bls.n	8001c36 <HAL_ADC_ConfigChannel+0xaa>
 8001bd4:	f04f 0c07 	mov.w	ip, #7
 8001bd8:	688d      	ldr	r5, [r1, #8]
 8001bda:	eb00 0140 	add.w	r1, r0, r0, lsl #1
 8001bde:	68e3      	ldr	r3, [r4, #12]
 8001be0:	391e      	subs	r1, #30
 8001be2:	408d      	lsls	r5, r1
 8001be4:	fa0c f101 	lsl.w	r1, ip, r1
 8001be8:	ea23 0301 	bic.w	r3, r3, r1
 8001bec:	f1a0 0110 	sub.w	r1, r0, #16
 8001bf0:	432b      	orrs	r3, r5
 8001bf2:	2901      	cmp	r1, #1
 8001bf4:	60e3      	str	r3, [r4, #12]
 8001bf6:	d844      	bhi.n	8001c82 <HAL_ADC_ConfigChannel+0xf6>
 8001bf8:	4b2e      	ldr	r3, [pc, #184]	; (8001cb4 <HAL_ADC_ConfigChannel+0x128>)
 8001bfa:	429c      	cmp	r4, r3
 8001bfc:	d038      	beq.n	8001c70 <HAL_ADC_ConfigChannel+0xe4>
 8001bfe:	2001      	movs	r0, #1
 8001c00:	6a93      	ldr	r3, [r2, #40]	; 0x28
 8001c02:	f043 0320 	orr.w	r3, r3, #32
 8001c06:	6293      	str	r3, [r2, #40]	; 0x28
 8001c08:	2300      	movs	r3, #0
 8001c0a:	f882 3024 	strb.w	r3, [r2, #36]	; 0x24
 8001c0e:	b003      	add	sp, #12
 8001c10:	bd30      	pop	{r4, r5, pc}
 8001c12:	f04f 0c1f 	mov.w	ip, #31
 8001c16:	6808      	ldr	r0, [r1, #0]
 8001c18:	eb03 0383 	add.w	r3, r3, r3, lsl #2
 8001c1c:	6b65      	ldr	r5, [r4, #52]	; 0x34
 8001c1e:	3b05      	subs	r3, #5
 8001c20:	fa00 fe03 	lsl.w	lr, r0, r3
 8001c24:	fa0c f303 	lsl.w	r3, ip, r3
 8001c28:	ea25 0303 	bic.w	r3, r5, r3
 8001c2c:	ea43 030e 	orr.w	r3, r3, lr
 8001c30:	2809      	cmp	r0, #9
 8001c32:	6363      	str	r3, [r4, #52]	; 0x34
 8001c34:	d8ce      	bhi.n	8001bd4 <HAL_ADC_ConfigChannel+0x48>
 8001c36:	2507      	movs	r5, #7
 8001c38:	6889      	ldr	r1, [r1, #8]
 8001c3a:	6923      	ldr	r3, [r4, #16]
 8001c3c:	eb00 0040 	add.w	r0, r0, r0, lsl #1
 8001c40:	4081      	lsls	r1, r0
 8001c42:	fa05 f000 	lsl.w	r0, r5, r0
 8001c46:	ea23 0300 	bic.w	r3, r3, r0
 8001c4a:	430b      	orrs	r3, r1
 8001c4c:	2000      	movs	r0, #0
 8001c4e:	6123      	str	r3, [r4, #16]
 8001c50:	e7da      	b.n	8001c08 <HAL_ADC_ConfigChannel+0x7c>
 8001c52:	f04f 0c1f 	mov.w	ip, #31
 8001c56:	6808      	ldr	r0, [r1, #0]
 8001c58:	6ae5      	ldr	r5, [r4, #44]	; 0x2c
 8001c5a:	3b41      	subs	r3, #65	; 0x41
 8001c5c:	fa00 fe03 	lsl.w	lr, r0, r3
 8001c60:	fa0c f303 	lsl.w	r3, ip, r3
 8001c64:	ea25 0303 	bic.w	r3, r5, r3
 8001c68:	ea43 030e 	orr.w	r3, r3, lr
 8001c6c:	62e3      	str	r3, [r4, #44]	; 0x2c
 8001c6e:	e7af      	b.n	8001bd0 <HAL_ADC_ConfigChannel+0x44>
 8001c70:	68a3      	ldr	r3, [r4, #8]
 8001c72:	021b      	lsls	r3, r3, #8
 8001c74:	d405      	bmi.n	8001c82 <HAL_ADC_ConfigChannel+0xf6>
 8001c76:	68a3      	ldr	r3, [r4, #8]
 8001c78:	2810      	cmp	r0, #16
 8001c7a:	f443 0300 	orr.w	r3, r3, #8388608	; 0x800000
 8001c7e:	60a3      	str	r3, [r4, #8]
 8001c80:	d004      	beq.n	8001c8c <HAL_ADC_ConfigChannel+0x100>
 8001c82:	2000      	movs	r0, #0
 8001c84:	e7c0      	b.n	8001c08 <HAL_ADC_ConfigChannel+0x7c>
 8001c86:	2002      	movs	r0, #2
 8001c88:	b003      	add	sp, #12
 8001c8a:	bd30      	pop	{r4, r5, pc}
 8001c8c:	4b0a      	ldr	r3, [pc, #40]	; (8001cb8 <HAL_ADC_ConfigChannel+0x12c>)
 8001c8e:	490b      	ldr	r1, [pc, #44]	; (8001cbc <HAL_ADC_ConfigChannel+0x130>)
 8001c90:	681b      	ldr	r3, [r3, #0]
 8001c92:	fba1 1303 	umull	r1, r3, r1, r3
 8001c96:	0c9b      	lsrs	r3, r3, #18
 8001c98:	eb03 0383 	add.w	r3, r3, r3, lsl #2
 8001c9c:	005b      	lsls	r3, r3, #1
 8001c9e:	9301      	str	r3, [sp, #4]
 8001ca0:	9b01      	ldr	r3, [sp, #4]
 8001ca2:	2b00      	cmp	r3, #0
 8001ca4:	d0ed      	beq.n	8001c82 <HAL_ADC_ConfigChannel+0xf6>
 8001ca6:	9b01      	ldr	r3, [sp, #4]
 8001ca8:	3b01      	subs	r3, #1
 8001caa:	9301      	str	r3, [sp, #4]
 8001cac:	9b01      	ldr	r3, [sp, #4]
 8001cae:	2b00      	cmp	r3, #0
 8001cb0:	d1f9      	bne.n	8001ca6 <HAL_ADC_ConfigChannel+0x11a>
 8001cb2:	e7e6      	b.n	8001c82 <HAL_ADC_ConfigChannel+0xf6>
 8001cb4:	40012400 	.word	0x40012400
 8001cb8:	20000000 	.word	0x20000000
 8001cbc:	431bde83 	.word	0x431bde83

08001cc0 <ADC_Enable>:
 8001cc0:	2300      	movs	r3, #0
 8001cc2:	b530      	push	{r4, r5, lr}
 8001cc4:	6802      	ldr	r2, [r0, #0]
 8001cc6:	b083      	sub	sp, #12
 8001cc8:	9301      	str	r3, [sp, #4]
 8001cca:	6893      	ldr	r3, [r2, #8]
 8001ccc:	07d9      	lsls	r1, r3, #31
 8001cce:	d427      	bmi.n	8001d20 <ADC_Enable+0x60>
 8001cd0:	4b1b      	ldr	r3, [pc, #108]	; (8001d40 <ADC_Enable+0x80>)
 8001cd2:	4604      	mov	r4, r0
 8001cd4:	681b      	ldr	r3, [r3, #0]
 8001cd6:	481b      	ldr	r0, [pc, #108]	; (8001d44 <ADC_Enable+0x84>)
 8001cd8:	6891      	ldr	r1, [r2, #8]
 8001cda:	fba0 0303 	umull	r0, r3, r0, r3
 8001cde:	f041 0101 	orr.w	r1, r1, #1
 8001ce2:	0c9b      	lsrs	r3, r3, #18
 8001ce4:	6091      	str	r1, [r2, #8]
 8001ce6:	9301      	str	r3, [sp, #4]
 8001ce8:	9b01      	ldr	r3, [sp, #4]
 8001cea:	b12b      	cbz	r3, 8001cf8 <ADC_Enable+0x38>
 8001cec:	9b01      	ldr	r3, [sp, #4]
 8001cee:	3b01      	subs	r3, #1
 8001cf0:	9301      	str	r3, [sp, #4]
 8001cf2:	9b01      	ldr	r3, [sp, #4]
 8001cf4:	2b00      	cmp	r3, #0
 8001cf6:	d1f9      	bne.n	8001cec <ADC_Enable+0x2c>
 8001cf8:	f7ff fe34 	bl	8001964 <HAL_GetTick>
 8001cfc:	6823      	ldr	r3, [r4, #0]
 8001cfe:	4605      	mov	r5, r0
 8001d00:	689b      	ldr	r3, [r3, #8]
 8001d02:	07da      	lsls	r2, r3, #31
 8001d04:	d40c      	bmi.n	8001d20 <ADC_Enable+0x60>
 8001d06:	f7ff fe2d 	bl	8001964 <HAL_GetTick>
 8001d0a:	1b43      	subs	r3, r0, r5
 8001d0c:	2b02      	cmp	r3, #2
 8001d0e:	6823      	ldr	r3, [r4, #0]
 8001d10:	d903      	bls.n	8001d1a <ADC_Enable+0x5a>
 8001d12:	689a      	ldr	r2, [r3, #8]
 8001d14:	f012 0201 	ands.w	r2, r2, #1
 8001d18:	d005      	beq.n	8001d26 <ADC_Enable+0x66>
 8001d1a:	689b      	ldr	r3, [r3, #8]
 8001d1c:	07db      	lsls	r3, r3, #31
 8001d1e:	d5f2      	bpl.n	8001d06 <ADC_Enable+0x46>
 8001d20:	2000      	movs	r0, #0
 8001d22:	b003      	add	sp, #12
 8001d24:	bd30      	pop	{r4, r5, pc}
 8001d26:	2001      	movs	r0, #1
 8001d28:	6aa3      	ldr	r3, [r4, #40]	; 0x28
 8001d2a:	f884 2024 	strb.w	r2, [r4, #36]	; 0x24
 8001d2e:	f043 0310 	orr.w	r3, r3, #16
 8001d32:	62a3      	str	r3, [r4, #40]	; 0x28
 8001d34:	6ae3      	ldr	r3, [r4, #44]	; 0x2c
 8001d36:	4303      	orrs	r3, r0
 8001d38:	62e3      	str	r3, [r4, #44]	; 0x2c
 8001d3a:	b003      	add	sp, #12
 8001d3c:	bd30      	pop	{r4, r5, pc}
 8001d3e:	bf00      	nop
 8001d40:	20000000 	.word	0x20000000
 8001d44:	431bde83 	.word	0x431bde83

08001d48 <HAL_ADC_Start_DMA>:
 8001d48:	b5f8      	push	{r3, r4, r5, r6, r7, lr}
 8001d4a:	4604      	mov	r4, r0
 8001d4c:	4d3e      	ldr	r5, [pc, #248]	; (8001e48 <HAL_ADC_Start_DMA+0x100>)
 8001d4e:	6800      	ldr	r0, [r0, #0]
 8001d50:	460f      	mov	r7, r1
 8001d52:	42a8      	cmp	r0, r5
 8001d54:	4616      	mov	r6, r2
 8001d56:	d059      	beq.n	8001e0c <HAL_ADC_Start_DMA+0xc4>
 8001d58:	4b3c      	ldr	r3, [pc, #240]	; (8001e4c <HAL_ADC_Start_DMA+0x104>)
 8001d5a:	4298      	cmp	r0, r3
 8001d5c:	d056      	beq.n	8001e0c <HAL_ADC_Start_DMA+0xc4>
 8001d5e:	f894 3024 	ldrb.w	r3, [r4, #36]	; 0x24
 8001d62:	2b01      	cmp	r3, #1
 8001d64:	d05f      	beq.n	8001e26 <HAL_ADC_Start_DMA+0xde>
 8001d66:	2301      	movs	r3, #1
 8001d68:	4620      	mov	r0, r4
 8001d6a:	f884 3024 	strb.w	r3, [r4, #36]	; 0x24
 8001d6e:	f7ff ffa7 	bl	8001cc0 <ADC_Enable>
 8001d72:	4605      	mov	r5, r0
 8001d74:	2800      	cmp	r0, #0
 8001d76:	d151      	bne.n	8001e1c <HAL_ADC_Start_DMA+0xd4>
 8001d78:	6aa0      	ldr	r0, [r4, #40]	; 0x28
 8001d7a:	6821      	ldr	r1, [r4, #0]
 8001d7c:	4b33      	ldr	r3, [pc, #204]	; (8001e4c <HAL_ADC_Start_DMA+0x104>)
 8001d7e:	f420 6070 	bic.w	r0, r0, #3840	; 0xf00
 8001d82:	f020 0001 	bic.w	r0, r0, #1
 8001d86:	f440 7080 	orr.w	r0, r0, #256	; 0x100
 8001d8a:	4299      	cmp	r1, r3
 8001d8c:	62a0      	str	r0, [r4, #40]	; 0x28
 8001d8e:	d04d      	beq.n	8001e2c <HAL_ADC_Start_DMA+0xe4>
 8001d90:	6aa3      	ldr	r3, [r4, #40]	; 0x28
 8001d92:	f423 1380 	bic.w	r3, r3, #1048576	; 0x100000
 8001d96:	62a3      	str	r3, [r4, #40]	; 0x28
 8001d98:	684b      	ldr	r3, [r1, #4]
 8001d9a:	055a      	lsls	r2, r3, #21
 8001d9c:	d505      	bpl.n	8001daa <HAL_ADC_Start_DMA+0x62>
 8001d9e:	6aa3      	ldr	r3, [r4, #40]	; 0x28
 8001da0:	f423 5340 	bic.w	r3, r3, #12288	; 0x3000
 8001da4:	f443 5380 	orr.w	r3, r3, #4096	; 0x1000
 8001da8:	62a3      	str	r3, [r4, #40]	; 0x28
 8001daa:	6aa3      	ldr	r3, [r4, #40]	; 0x28
 8001dac:	2000      	movs	r0, #0
 8001dae:	f413 5380 	ands.w	r3, r3, #4096	; 0x1000
 8001db2:	bf18      	it	ne
 8001db4:	6ae3      	ldrne	r3, [r4, #44]	; 0x2c
 8001db6:	f884 0024 	strb.w	r0, [r4, #36]	; 0x24
 8001dba:	bf18      	it	ne
 8001dbc:	f023 0306 	bicne.w	r3, r3, #6
 8001dc0:	62e3      	str	r3, [r4, #44]	; 0x2c
 8001dc2:	4633      	mov	r3, r6
 8001dc4:	f06f 0602 	mvn.w	r6, #2
 8001dc8:	6a20      	ldr	r0, [r4, #32]
 8001dca:	463a      	mov	r2, r7
 8001dcc:	4f20      	ldr	r7, [pc, #128]	; (8001e50 <HAL_ADC_Start_DMA+0x108>)
 8001dce:	314c      	adds	r1, #76	; 0x4c
 8001dd0:	6287      	str	r7, [r0, #40]	; 0x28
 8001dd2:	4f20      	ldr	r7, [pc, #128]	; (8001e54 <HAL_ADC_Start_DMA+0x10c>)
 8001dd4:	62c7      	str	r7, [r0, #44]	; 0x2c
 8001dd6:	4f20      	ldr	r7, [pc, #128]	; (8001e58 <HAL_ADC_Start_DMA+0x110>)
 8001dd8:	6307      	str	r7, [r0, #48]	; 0x30
 8001dda:	f841 6c4c 	str.w	r6, [r1, #-76]
 8001dde:	f851 6c44 	ldr.w	r6, [r1, #-68]
 8001de2:	f446 7680 	orr.w	r6, r6, #256	; 0x100
 8001de6:	f841 6c44 	str.w	r6, [r1, #-68]
 8001dea:	f000 fa9d 	bl	8002328 <HAL_DMA_Start_IT>
 8001dee:	6823      	ldr	r3, [r4, #0]
 8001df0:	4628      	mov	r0, r5
 8001df2:	689a      	ldr	r2, [r3, #8]
 8001df4:	f402 2260 	and.w	r2, r2, #917504	; 0xe0000
 8001df8:	f5b2 2f60 	cmp.w	r2, #917504	; 0xe0000
 8001dfc:	689a      	ldr	r2, [r3, #8]
 8001dfe:	bf0c      	ite	eq
 8001e00:	f442 02a0 	orreq.w	r2, r2, #5242880	; 0x500000
 8001e04:	f442 1280 	orrne.w	r2, r2, #1048576	; 0x100000
 8001e08:	609a      	str	r2, [r3, #8]
 8001e0a:	bdf8      	pop	{r3, r4, r5, r6, r7, pc}
 8001e0c:	4b0e      	ldr	r3, [pc, #56]	; (8001e48 <HAL_ADC_Start_DMA+0x100>)
 8001e0e:	685b      	ldr	r3, [r3, #4]
 8001e10:	f413 2f70 	tst.w	r3, #983040	; 0xf0000
 8001e14:	d0a3      	beq.n	8001d5e <HAL_ADC_Start_DMA+0x16>
 8001e16:	2501      	movs	r5, #1
 8001e18:	4628      	mov	r0, r5
 8001e1a:	bdf8      	pop	{r3, r4, r5, r6, r7, pc}
 8001e1c:	2300      	movs	r3, #0
 8001e1e:	f884 3024 	strb.w	r3, [r4, #36]	; 0x24
 8001e22:	4628      	mov	r0, r5
 8001e24:	bdf8      	pop	{r3, r4, r5, r6, r7, pc}
 8001e26:	2502      	movs	r5, #2
 8001e28:	4628      	mov	r0, r5
 8001e2a:	bdf8      	pop	{r3, r4, r5, r6, r7, pc}
 8001e2c:	f5a3 6380 	sub.w	r3, r3, #1024	; 0x400
 8001e30:	685a      	ldr	r2, [r3, #4]
 8001e32:	f412 2f70 	tst.w	r2, #983040	; 0xf0000
 8001e36:	d0ab      	beq.n	8001d90 <HAL_ADC_Start_DMA+0x48>
 8001e38:	6aa2      	ldr	r2, [r4, #40]	; 0x28
 8001e3a:	f442 1280 	orr.w	r2, r2, #1048576	; 0x100000
 8001e3e:	62a2      	str	r2, [r4, #40]	; 0x28
 8001e40:	685b      	ldr	r3, [r3, #4]
 8001e42:	055b      	lsls	r3, r3, #21
 8001e44:	d5b1      	bpl.n	8001daa <HAL_ADC_Start_DMA+0x62>
 8001e46:	e7aa      	b.n	8001d9e <HAL_ADC_Start_DMA+0x56>
 8001e48:	40012400 	.word	0x40012400
 8001e4c:	40012800 	.word	0x40012800
 8001e50:	08001b11 	.word	0x08001b11
 8001e54:	08001b61 	.word	0x08001b61
 8001e58:	08001b71 	.word	0x08001b71

08001e5c <ADC_ConversionStop_Disable>:
 8001e5c:	b538      	push	{r3, r4, r5, lr}
 8001e5e:	6803      	ldr	r3, [r0, #0]
 8001e60:	689a      	ldr	r2, [r3, #8]
 8001e62:	07d4      	lsls	r4, r2, #31
 8001e64:	d401      	bmi.n	8001e6a <ADC_ConversionStop_Disable+0xe>
 8001e66:	2000      	movs	r0, #0
 8001e68:	bd38      	pop	{r3, r4, r5, pc}
 8001e6a:	4604      	mov	r4, r0
 8001e6c:	689a      	ldr	r2, [r3, #8]
 8001e6e:	f022 0201 	bic.w	r2, r2, #1
 8001e72:	609a      	str	r2, [r3, #8]
 8001e74:	f7ff fd76 	bl	8001964 <HAL_GetTick>
 8001e78:	6823      	ldr	r3, [r4, #0]
 8001e7a:	4605      	mov	r5, r0
 8001e7c:	689b      	ldr	r3, [r3, #8]
 8001e7e:	07d9      	lsls	r1, r3, #31
 8001e80:	d5f1      	bpl.n	8001e66 <ADC_ConversionStop_Disable+0xa>
 8001e82:	e002      	b.n	8001e8a <ADC_ConversionStop_Disable+0x2e>
 8001e84:	689b      	ldr	r3, [r3, #8]
 8001e86:	07db      	lsls	r3, r3, #31
 8001e88:	d5ed      	bpl.n	8001e66 <ADC_ConversionStop_Disable+0xa>
 8001e8a:	f7ff fd6b 	bl	8001964 <HAL_GetTick>
 8001e8e:	1b43      	subs	r3, r0, r5
 8001e90:	2b02      	cmp	r3, #2
 8001e92:	6823      	ldr	r3, [r4, #0]
 8001e94:	d9f6      	bls.n	8001e84 <ADC_ConversionStop_Disable+0x28>
 8001e96:	689a      	ldr	r2, [r3, #8]
 8001e98:	07d2      	lsls	r2, r2, #31
 8001e9a:	d5f3      	bpl.n	8001e84 <ADC_ConversionStop_Disable+0x28>
 8001e9c:	2001      	movs	r0, #1
 8001e9e:	6aa3      	ldr	r3, [r4, #40]	; 0x28
 8001ea0:	f043 0310 	orr.w	r3, r3, #16
 8001ea4:	62a3      	str	r3, [r4, #40]	; 0x28
 8001ea6:	6ae3      	ldr	r3, [r4, #44]	; 0x2c
 8001ea8:	4303      	orrs	r3, r0
 8001eaa:	62e3      	str	r3, [r4, #44]	; 0x2c
 8001eac:	bd38      	pop	{r3, r4, r5, pc}
 8001eae:	bf00      	nop

08001eb0 <HAL_ADCEx_Calibration_Start>:
 8001eb0:	2300      	movs	r3, #0
 8001eb2:	b570      	push	{r4, r5, r6, lr}
 8001eb4:	b082      	sub	sp, #8
 8001eb6:	9301      	str	r3, [sp, #4]
 8001eb8:	f890 3024 	ldrb.w	r3, [r0, #36]	; 0x24
 8001ebc:	2b01      	cmp	r3, #1
 8001ebe:	d05f      	beq.n	8001f80 <HAL_ADCEx_Calibration_Start+0xd0>
 8001ec0:	2301      	movs	r3, #1
 8001ec2:	f880 3024 	strb.w	r3, [r0, #36]	; 0x24
 8001ec6:	4604      	mov	r4, r0
 8001ec8:	f7ff ffc8 	bl	8001e5c <ADC_ConversionStop_Disable>
 8001ecc:	4605      	mov	r5, r0
 8001ece:	b128      	cbz	r0, 8001edc <HAL_ADCEx_Calibration_Start+0x2c>
 8001ed0:	2300      	movs	r3, #0
 8001ed2:	4628      	mov	r0, r5
 8001ed4:	f884 3024 	strb.w	r3, [r4, #36]	; 0x24
 8001ed8:	b002      	add	sp, #8
 8001eda:	bd70      	pop	{r4, r5, r6, pc}
 8001edc:	6aa3      	ldr	r3, [r4, #40]	; 0x28
 8001ede:	4a31      	ldr	r2, [pc, #196]	; (8001fa4 <HAL_ADCEx_Calibration_Start+0xf4>)
 8001ee0:	f423 5388 	bic.w	r3, r3, #4352	; 0x1100
 8001ee4:	f023 0302 	bic.w	r3, r3, #2
 8001ee8:	f043 0302 	orr.w	r3, r3, #2
 8001eec:	62a3      	str	r3, [r4, #40]	; 0x28
 8001eee:	2002      	movs	r0, #2
 8001ef0:	6816      	ldr	r6, [r2, #0]
 8001ef2:	f001 f8d9 	bl	80030a8 <HAL_RCCEx_GetPeriphCLKFreq>
 8001ef6:	fbb6 f6f0 	udiv	r6, r6, r0
 8001efa:	0076      	lsls	r6, r6, #1
 8001efc:	9601      	str	r6, [sp, #4]
 8001efe:	9b01      	ldr	r3, [sp, #4]
 8001f00:	b12b      	cbz	r3, 8001f0e <HAL_ADCEx_Calibration_Start+0x5e>
 8001f02:	9b01      	ldr	r3, [sp, #4]
 8001f04:	3b01      	subs	r3, #1
 8001f06:	9301      	str	r3, [sp, #4]
 8001f08:	9b01      	ldr	r3, [sp, #4]
 8001f0a:	2b00      	cmp	r3, #0
 8001f0c:	d1f9      	bne.n	8001f02 <HAL_ADCEx_Calibration_Start+0x52>
 8001f0e:	4620      	mov	r0, r4
 8001f10:	f7ff fed6 	bl	8001cc0 <ADC_Enable>
 8001f14:	6822      	ldr	r2, [r4, #0]
 8001f16:	6893      	ldr	r3, [r2, #8]
 8001f18:	f043 0308 	orr.w	r3, r3, #8
 8001f1c:	6093      	str	r3, [r2, #8]
 8001f1e:	f7ff fd21 	bl	8001964 <HAL_GetTick>
 8001f22:	6823      	ldr	r3, [r4, #0]
 8001f24:	4606      	mov	r6, r0
 8001f26:	689a      	ldr	r2, [r3, #8]
 8001f28:	0711      	lsls	r1, r2, #28
 8001f2a:	d50b      	bpl.n	8001f44 <HAL_ADCEx_Calibration_Start+0x94>
 8001f2c:	f7ff fd1a 	bl	8001964 <HAL_GetTick>
 8001f30:	1b83      	subs	r3, r0, r6
 8001f32:	2b0a      	cmp	r3, #10
 8001f34:	6823      	ldr	r3, [r4, #0]
 8001f36:	d902      	bls.n	8001f3e <HAL_ADCEx_Calibration_Start+0x8e>
 8001f38:	689a      	ldr	r2, [r3, #8]
 8001f3a:	0712      	lsls	r2, r2, #28
 8001f3c:	d424      	bmi.n	8001f88 <HAL_ADCEx_Calibration_Start+0xd8>
 8001f3e:	689a      	ldr	r2, [r3, #8]
 8001f40:	0710      	lsls	r0, r2, #28
 8001f42:	d4f3      	bmi.n	8001f2c <HAL_ADCEx_Calibration_Start+0x7c>
 8001f44:	689a      	ldr	r2, [r3, #8]
 8001f46:	f042 0204 	orr.w	r2, r2, #4
 8001f4a:	609a      	str	r2, [r3, #8]
 8001f4c:	f7ff fd0a 	bl	8001964 <HAL_GetTick>
 8001f50:	6823      	ldr	r3, [r4, #0]
 8001f52:	4606      	mov	r6, r0
 8001f54:	689b      	ldr	r3, [r3, #8]
 8001f56:	0759      	lsls	r1, r3, #29
 8001f58:	d50b      	bpl.n	8001f72 <HAL_ADCEx_Calibration_Start+0xc2>
 8001f5a:	f7ff fd03 	bl	8001964 <HAL_GetTick>
 8001f5e:	1b83      	subs	r3, r0, r6
 8001f60:	2b0a      	cmp	r3, #10
 8001f62:	6823      	ldr	r3, [r4, #0]
 8001f64:	d902      	bls.n	8001f6c <HAL_ADCEx_Calibration_Start+0xbc>
 8001f66:	689a      	ldr	r2, [r3, #8]
 8001f68:	0752      	lsls	r2, r2, #29
 8001f6a:	d40d      	bmi.n	8001f88 <HAL_ADCEx_Calibration_Start+0xd8>
 8001f6c:	689b      	ldr	r3, [r3, #8]
 8001f6e:	075b      	lsls	r3, r3, #29
 8001f70:	d4f3      	bmi.n	8001f5a <HAL_ADCEx_Calibration_Start+0xaa>
 8001f72:	6aa3      	ldr	r3, [r4, #40]	; 0x28
 8001f74:	f023 0303 	bic.w	r3, r3, #3
 8001f78:	f043 0301 	orr.w	r3, r3, #1
 8001f7c:	62a3      	str	r3, [r4, #40]	; 0x28
 8001f7e:	e7a7      	b.n	8001ed0 <HAL_ADCEx_Calibration_Start+0x20>
 8001f80:	2502      	movs	r5, #2
 8001f82:	4628      	mov	r0, r5
 8001f84:	b002      	add	sp, #8
 8001f86:	bd70      	pop	{r4, r5, r6, pc}
 8001f88:	2501      	movs	r5, #1
 8001f8a:	2200      	movs	r2, #0
 8001f8c:	4628      	mov	r0, r5
 8001f8e:	6aa3      	ldr	r3, [r4, #40]	; 0x28
 8001f90:	f884 2024 	strb.w	r2, [r4, #36]	; 0x24
 8001f94:	f023 0312 	bic.w	r3, r3, #18
 8001f98:	f043 0310 	orr.w	r3, r3, #16
 8001f9c:	62a3      	str	r3, [r4, #40]	; 0x28
 8001f9e:	b002      	add	sp, #8
 8001fa0:	bd70      	pop	{r4, r5, r6, pc}
 8001fa2:	bf00      	nop
 8001fa4:	20000000 	.word	0x20000000

08001fa8 <HAL_ADCEx_InjectedConfigChannel>:
 8001fa8:	e92d 41f0 	stmdb	sp!, {r4, r5, r6, r7, r8, lr}
 8001fac:	2500      	movs	r5, #0
 8001fae:	f890 2024 	ldrb.w	r2, [r0, #36]	; 0x24
 8001fb2:	b082      	sub	sp, #8
 8001fb4:	2a01      	cmp	r2, #1
 8001fb6:	6886      	ldr	r6, [r0, #8]
 8001fb8:	9501      	str	r5, [sp, #4]
 8001fba:	f000 80e2 	beq.w	8002182 <HAL_ADCEx_InjectedConfigChannel+0x1da>
 8001fbe:	4603      	mov	r3, r0
 8001fc0:	2001      	movs	r0, #1
 8001fc2:	f883 0024 	strb.w	r0, [r3, #36]	; 0x24
 8001fc6:	684c      	ldr	r4, [r1, #4]
 8001fc8:	2e00      	cmp	r6, #0
 8001fca:	d060      	beq.n	800208e <HAL_ADCEx_InjectedConfigChannel+0xe6>
 8001fcc:	690a      	ldr	r2, [r1, #16]
 8001fce:	4628      	mov	r0, r5
 8001fd0:	4294      	cmp	r4, r2
 8001fd2:	f200 809f 	bhi.w	8002114 <HAL_ADCEx_InjectedConfigChannel+0x16c>
 8001fd6:	f04f 0e1f 	mov.w	lr, #31
 8001fda:	1aa7      	subs	r7, r4, r2
 8001fdc:	680d      	ldr	r5, [r1, #0]
 8001fde:	eb07 0787 	add.w	r7, r7, r7, lsl #2
 8001fe2:	1e56      	subs	r6, r2, #1
 8001fe4:	370f      	adds	r7, #15
 8001fe6:	681a      	ldr	r2, [r3, #0]
 8001fe8:	fa05 f807 	lsl.w	r8, r5, r7
 8001fec:	f8d2 c038 	ldr.w	ip, [r2, #56]	; 0x38
 8001ff0:	ea48 5806 	orr.w	r8, r8, r6, lsl #20
 8001ff4:	fa0e f607 	lsl.w	r6, lr, r7
 8001ff8:	f446 1640 	orr.w	r6, r6, #3145728	; 0x300000
 8001ffc:	ea2c 0606 	bic.w	r6, ip, r6
 8002000:	ea46 0608 	orr.w	r6, r6, r8
 8002004:	6396      	str	r6, [r2, #56]	; 0x38
 8002006:	6896      	ldr	r6, [r2, #8]
 8002008:	07f6      	lsls	r6, r6, #31
 800200a:	d408      	bmi.n	800201e <HAL_ADCEx_InjectedConfigChannel+0x76>
 800200c:	6896      	ldr	r6, [r2, #8]
 800200e:	f426 4ce0 	bic.w	ip, r6, #28672	; 0x7000
 8002012:	698e      	ldr	r6, [r1, #24]
 8002014:	f02c 0c01 	bic.w	ip, ip, #1
 8002018:	ea4c 0606 	orr.w	r6, ip, r6
 800201c:	6096      	str	r6, [r2, #8]
 800201e:	7d4e      	ldrb	r6, [r1, #21]
 8002020:	2e01      	cmp	r6, #1
 8002022:	d065      	beq.n	80020f0 <HAL_ADCEx_InjectedConfigChannel+0x148>
 8002024:	7d0f      	ldrb	r7, [r1, #20]
 8002026:	2f01      	cmp	r7, #1
 8002028:	f000 809a 	beq.w	8002160 <HAL_ADCEx_InjectedConfigChannel+0x1b8>
 800202c:	2d09      	cmp	r5, #9
 800202e:	d937      	bls.n	80020a0 <HAL_ADCEx_InjectedConfigChannel+0xf8>
 8002030:	2707      	movs	r7, #7
 8002032:	f8d1 e008 	ldr.w	lr, [r1, #8]
 8002036:	eb05 0c45 	add.w	ip, r5, r5, lsl #1
 800203a:	68d6      	ldr	r6, [r2, #12]
 800203c:	f1ac 0c1e 	sub.w	ip, ip, #30
 8002040:	fa0e fe0c 	lsl.w	lr, lr, ip
 8002044:	fa07 fc0c 	lsl.w	ip, r7, ip
 8002048:	ea26 060c 	bic.w	r6, r6, ip
 800204c:	ea46 060e 	orr.w	r6, r6, lr
 8002050:	60d6      	str	r6, [r2, #12]
 8002052:	f1a5 0610 	sub.w	r6, r5, #16
 8002056:	2e01      	cmp	r6, #1
 8002058:	d803      	bhi.n	8002062 <HAL_ADCEx_InjectedConfigChannel+0xba>
 800205a:	6897      	ldr	r7, [r2, #8]
 800205c:	f447 0700 	orr.w	r7, r7, #8388608	; 0x800000
 8002060:	6097      	str	r7, [r2, #8]
 8002062:	2c02      	cmp	r4, #2
 8002064:	d030      	beq.n	80020c8 <HAL_ADCEx_InjectedConfigChannel+0x120>
 8002066:	2c03      	cmp	r4, #3
 8002068:	d06c      	beq.n	8002144 <HAL_ADCEx_InjectedConfigChannel+0x19c>
 800206a:	2c01      	cmp	r4, #1
 800206c:	68cc      	ldr	r4, [r1, #12]
 800206e:	d061      	beq.n	8002134 <HAL_ADCEx_InjectedConfigChannel+0x18c>
 8002070:	6a11      	ldr	r1, [r2, #32]
 8002072:	f421 617f 	bic.w	r1, r1, #4080	; 0xff0
 8002076:	f021 010f 	bic.w	r1, r1, #15
 800207a:	4321      	orrs	r1, r4
 800207c:	6211      	str	r1, [r2, #32]
 800207e:	2e01      	cmp	r6, #1
 8002080:	d92d      	bls.n	80020de <HAL_ADCEx_InjectedConfigChannel+0x136>
 8002082:	2200      	movs	r2, #0
 8002084:	f883 2024 	strb.w	r2, [r3, #36]	; 0x24
 8002088:	b002      	add	sp, #8
 800208a:	e8bd 81f0 	ldmia.w	sp!, {r4, r5, r6, r7, r8, pc}
 800208e:	4284      	cmp	r4, r0
 8002090:	d06d      	beq.n	800216e <HAL_ADCEx_InjectedConfigChannel+0x1c6>
 8002092:	6a9a      	ldr	r2, [r3, #40]	; 0x28
 8002094:	680d      	ldr	r5, [r1, #0]
 8002096:	f042 0220 	orr.w	r2, r2, #32
 800209a:	629a      	str	r2, [r3, #40]	; 0x28
 800209c:	681a      	ldr	r2, [r3, #0]
 800209e:	e7b2      	b.n	8002006 <HAL_ADCEx_InjectedConfigChannel+0x5e>
 80020a0:	f04f 0e07 	mov.w	lr, #7
 80020a4:	6916      	ldr	r6, [r2, #16]
 80020a6:	f8d1 c008 	ldr.w	ip, [r1, #8]
 80020aa:	eb05 0745 	add.w	r7, r5, r5, lsl #1
 80020ae:	fa0e fe07 	lsl.w	lr, lr, r7
 80020b2:	fa0c fc07 	lsl.w	ip, ip, r7
 80020b6:	ea26 060e 	bic.w	r6, r6, lr
 80020ba:	ea46 060c 	orr.w	r6, r6, ip
 80020be:	2c02      	cmp	r4, #2
 80020c0:	6116      	str	r6, [r2, #16]
 80020c2:	f1a5 0610 	sub.w	r6, r5, #16
 80020c6:	d1ce      	bne.n	8002066 <HAL_ADCEx_InjectedConfigChannel+0xbe>
 80020c8:	68cc      	ldr	r4, [r1, #12]
 80020ca:	6991      	ldr	r1, [r2, #24]
 80020cc:	2e01      	cmp	r6, #1
 80020ce:	f421 617f 	bic.w	r1, r1, #4080	; 0xff0
 80020d2:	f021 010f 	bic.w	r1, r1, #15
 80020d6:	ea41 0104 	orr.w	r1, r1, r4
 80020da:	6191      	str	r1, [r2, #24]
 80020dc:	d8d1      	bhi.n	8002082 <HAL_ADCEx_InjectedConfigChannel+0xda>
 80020de:	493b      	ldr	r1, [pc, #236]	; (80021cc <HAL_ADCEx_InjectedConfigChannel+0x224>)
 80020e0:	428a      	cmp	r2, r1
 80020e2:	d052      	beq.n	800218a <HAL_ADCEx_InjectedConfigChannel+0x1e2>
 80020e4:	6a9a      	ldr	r2, [r3, #40]	; 0x28
 80020e6:	2001      	movs	r0, #1
 80020e8:	f042 0220 	orr.w	r2, r2, #32
 80020ec:	629a      	str	r2, [r3, #40]	; 0x28
 80020ee:	e7c8      	b.n	8002082 <HAL_ADCEx_InjectedConfigChannel+0xda>
 80020f0:	698f      	ldr	r7, [r1, #24]
 80020f2:	f5b7 4fe0 	cmp.w	r7, #28672	; 0x7000
 80020f6:	d02e      	beq.n	8002156 <HAL_ADCEx_InjectedConfigChannel+0x1ae>
 80020f8:	4630      	mov	r0, r6
 80020fa:	6a9e      	ldr	r6, [r3, #40]	; 0x28
 80020fc:	f046 0620 	orr.w	r6, r6, #32
 8002100:	629e      	str	r6, [r3, #40]	; 0x28
 8002102:	7d0e      	ldrb	r6, [r1, #20]
 8002104:	2e01      	cmp	r6, #1
 8002106:	d191      	bne.n	800202c <HAL_ADCEx_InjectedConfigChannel+0x84>
 8002108:	6a9e      	ldr	r6, [r3, #40]	; 0x28
 800210a:	2001      	movs	r0, #1
 800210c:	f046 0620 	orr.w	r6, r6, #32
 8002110:	629e      	str	r6, [r3, #40]	; 0x28
 8002112:	e78b      	b.n	800202c <HAL_ADCEx_InjectedConfigChannel+0x84>
 8002114:	261f      	movs	r6, #31
 8002116:	1aa2      	subs	r2, r4, r2
 8002118:	eb02 0282 	add.w	r2, r2, r2, lsl #2
 800211c:	320f      	adds	r2, #15
 800211e:	fa06 f202 	lsl.w	r2, r6, r2
 8002122:	f442 1640 	orr.w	r6, r2, #3145728	; 0x300000
 8002126:	681a      	ldr	r2, [r3, #0]
 8002128:	680d      	ldr	r5, [r1, #0]
 800212a:	6b97      	ldr	r7, [r2, #56]	; 0x38
 800212c:	ea27 0606 	bic.w	r6, r7, r6
 8002130:	6396      	str	r6, [r2, #56]	; 0x38
 8002132:	e768      	b.n	8002006 <HAL_ADCEx_InjectedConfigChannel+0x5e>
 8002134:	6951      	ldr	r1, [r2, #20]
 8002136:	f421 617f 	bic.w	r1, r1, #4080	; 0xff0
 800213a:	f021 010f 	bic.w	r1, r1, #15
 800213e:	4321      	orrs	r1, r4
 8002140:	6151      	str	r1, [r2, #20]
 8002142:	e79c      	b.n	800207e <HAL_ADCEx_InjectedConfigChannel+0xd6>
 8002144:	68cc      	ldr	r4, [r1, #12]
 8002146:	69d1      	ldr	r1, [r2, #28]
 8002148:	f421 617f 	bic.w	r1, r1, #4080	; 0xff0
 800214c:	f021 010f 	bic.w	r1, r1, #15
 8002150:	4321      	orrs	r1, r4
 8002152:	61d1      	str	r1, [r2, #28]
 8002154:	e793      	b.n	800207e <HAL_ADCEx_InjectedConfigChannel+0xd6>
 8002156:	6856      	ldr	r6, [r2, #4]
 8002158:	f446 6680 	orr.w	r6, r6, #1024	; 0x400
 800215c:	6056      	str	r6, [r2, #4]
 800215e:	e7d0      	b.n	8002102 <HAL_ADCEx_InjectedConfigChannel+0x15a>
 8002160:	2e00      	cmp	r6, #0
 8002162:	d1d1      	bne.n	8002108 <HAL_ADCEx_InjectedConfigChannel+0x160>
 8002164:	6856      	ldr	r6, [r2, #4]
 8002166:	f446 5680 	orr.w	r6, r6, #4096	; 0x1000
 800216a:	6056      	str	r6, [r2, #4]
 800216c:	e75e      	b.n	800202c <HAL_ADCEx_InjectedConfigChannel+0x84>
 800216e:	681a      	ldr	r2, [r3, #0]
 8002170:	4630      	mov	r0, r6
 8002172:	6b96      	ldr	r6, [r2, #56]	; 0x38
 8002174:	680d      	ldr	r5, [r1, #0]
 8002176:	0db6      	lsrs	r6, r6, #22
 8002178:	05b6      	lsls	r6, r6, #22
 800217a:	ea46 36c5 	orr.w	r6, r6, r5, lsl #15
 800217e:	6396      	str	r6, [r2, #56]	; 0x38
 8002180:	e741      	b.n	8002006 <HAL_ADCEx_InjectedConfigChannel+0x5e>
 8002182:	2002      	movs	r0, #2
 8002184:	b002      	add	sp, #8
 8002186:	e8bd 81f0 	ldmia.w	sp!, {r4, r5, r6, r7, r8, pc}
 800218a:	6891      	ldr	r1, [r2, #8]
 800218c:	0209      	lsls	r1, r1, #8
 800218e:	f53f af78 	bmi.w	8002082 <HAL_ADCEx_InjectedConfigChannel+0xda>
 8002192:	6891      	ldr	r1, [r2, #8]
 8002194:	2d10      	cmp	r5, #16
 8002196:	f441 0100 	orr.w	r1, r1, #8388608	; 0x800000
 800219a:	6091      	str	r1, [r2, #8]
 800219c:	f47f af71 	bne.w	8002082 <HAL_ADCEx_InjectedConfigChannel+0xda>
 80021a0:	4a0b      	ldr	r2, [pc, #44]	; (80021d0 <HAL_ADCEx_InjectedConfigChannel+0x228>)
 80021a2:	490c      	ldr	r1, [pc, #48]	; (80021d4 <HAL_ADCEx_InjectedConfigChannel+0x22c>)
 80021a4:	6812      	ldr	r2, [r2, #0]
 80021a6:	fba1 1202 	umull	r1, r2, r1, r2
 80021aa:	0c92      	lsrs	r2, r2, #18
 80021ac:	eb02 0282 	add.w	r2, r2, r2, lsl #2
 80021b0:	0052      	lsls	r2, r2, #1
 80021b2:	9201      	str	r2, [sp, #4]
 80021b4:	9a01      	ldr	r2, [sp, #4]
 80021b6:	2a00      	cmp	r2, #0
 80021b8:	f43f af63 	beq.w	8002082 <HAL_ADCEx_InjectedConfigChannel+0xda>
 80021bc:	9a01      	ldr	r2, [sp, #4]
 80021be:	3a01      	subs	r2, #1
 80021c0:	9201      	str	r2, [sp, #4]
 80021c2:	9a01      	ldr	r2, [sp, #4]
 80021c4:	2a00      	cmp	r2, #0
 80021c6:	d1f9      	bne.n	80021bc <HAL_ADCEx_InjectedConfigChannel+0x214>
 80021c8:	e75b      	b.n	8002082 <HAL_ADCEx_InjectedConfigChannel+0xda>
 80021ca:	bf00      	nop
 80021cc:	40012400 	.word	0x40012400
 80021d0:	20000000 	.word	0x20000000
 80021d4:	431bde83 	.word	0x431bde83

080021d8 <HAL_NVIC_SetPriorityGrouping>:
 80021d8:	f64f 0cff 	movw	ip, #63743	; 0xf8ff
 80021dc:	4906      	ldr	r1, [pc, #24]	; (80021f8 <HAL_NVIC_SetPriorityGrouping+0x20>)
 80021de:	0203      	lsls	r3, r0, #8
 80021e0:	68ca      	ldr	r2, [r1, #12]
 80021e2:	f403 63e0 	and.w	r3, r3, #1792	; 0x700
 80021e6:	ea02 020c 	and.w	r2, r2, ip
 80021ea:	4313      	orrs	r3, r2
 80021ec:	f043 63bf 	orr.w	r3, r3, #100139008	; 0x5f80000
 80021f0:	f443 3300 	orr.w	r3, r3, #131072	; 0x20000
 80021f4:	60cb      	str	r3, [r1, #12]
 80021f6:	4770      	bx	lr
 80021f8:	e000ed00 	.word	0xe000ed00

080021fc <HAL_NVIC_SetPriority>:
 80021fc:	4b1c      	ldr	r3, [pc, #112]	; (8002270 <HAL_NVIC_SetPriority+0x74>)
 80021fe:	b500      	push	{lr}
 8002200:	68db      	ldr	r3, [r3, #12]
 8002202:	f3c3 2302 	ubfx	r3, r3, #8, #3
 8002206:	f1c3 0e07 	rsb	lr, r3, #7
 800220a:	f1be 0f04 	cmp.w	lr, #4
 800220e:	f103 0c04 	add.w	ip, r3, #4
 8002212:	bf28      	it	cs
 8002214:	f04f 0e04 	movcs.w	lr, #4
 8002218:	f1bc 0f06 	cmp.w	ip, #6
 800221c:	d91b      	bls.n	8002256 <HAL_NVIC_SetPriority+0x5a>
 800221e:	f04f 3cff 	mov.w	ip, #4294967295
 8002222:	3b03      	subs	r3, #3
 8002224:	fa0c fc03 	lsl.w	ip, ip, r3
 8002228:	ea22 020c 	bic.w	r2, r2, ip
 800222c:	f04f 3cff 	mov.w	ip, #4294967295
 8002230:	fa0c fc0e 	lsl.w	ip, ip, lr
 8002234:	ea21 010c 	bic.w	r1, r1, ip
 8002238:	4099      	lsls	r1, r3
 800223a:	2800      	cmp	r0, #0
 800223c:	ea41 0102 	orr.w	r1, r1, r2
 8002240:	db0c      	blt.n	800225c <HAL_NVIC_SetPriority+0x60>
 8002242:	0109      	lsls	r1, r1, #4
 8002244:	f100 4060 	add.w	r0, r0, #3758096384	; 0xe0000000
 8002248:	b2c9      	uxtb	r1, r1
 800224a:	f500 4061 	add.w	r0, r0, #57600	; 0xe100
 800224e:	f880 1300 	strb.w	r1, [r0, #768]	; 0x300
 8002252:	f85d fb04 	ldr.w	pc, [sp], #4
 8002256:	2200      	movs	r2, #0
 8002258:	4613      	mov	r3, r2
 800225a:	e7e7      	b.n	800222c <HAL_NVIC_SetPriority+0x30>
 800225c:	4b05      	ldr	r3, [pc, #20]	; (8002274 <HAL_NVIC_SetPriority+0x78>)
 800225e:	f000 000f 	and.w	r0, r0, #15
 8002262:	0109      	lsls	r1, r1, #4
 8002264:	b2c9      	uxtb	r1, r1
 8002266:	4403      	add	r3, r0
 8002268:	7619      	strb	r1, [r3, #24]
 800226a:	f85d fb04 	ldr.w	pc, [sp], #4
 800226e:	bf00      	nop
 8002270:	e000ed00 	.word	0xe000ed00
 8002274:	e000ecfc 	.word	0xe000ecfc

08002278 <HAL_NVIC_EnableIRQ>:
 8002278:	2800      	cmp	r0, #0
 800227a:	db07      	blt.n	800228c <HAL_NVIC_EnableIRQ+0x14>
 800227c:	2301      	movs	r3, #1
 800227e:	f000 011f 	and.w	r1, r0, #31
 8002282:	4a03      	ldr	r2, [pc, #12]	; (8002290 <HAL_NVIC_EnableIRQ+0x18>)
 8002284:	0940      	lsrs	r0, r0, #5
 8002286:	408b      	lsls	r3, r1
 8002288:	f842 3020 	str.w	r3, [r2, r0, lsl #2]
 800228c:	4770      	bx	lr
 800228e:	bf00      	nop
 8002290:	e000e100 	.word	0xe000e100

08002294 <HAL_SYSTICK_Config>:
 8002294:	3801      	subs	r0, #1
 8002296:	f1b0 7f80 	cmp.w	r0, #16777216	; 0x1000000
 800229a:	d20f      	bcs.n	80022bc <HAL_SYSTICK_Config+0x28>
 800229c:	f04f 23e0 	mov.w	r3, #3758153728	; 0xe000e000
 80022a0:	f04f 0cf0 	mov.w	ip, #240	; 0xf0
 80022a4:	2200      	movs	r2, #0
 80022a6:	2107      	movs	r1, #7
 80022a8:	b410      	push	{r4}
 80022aa:	4c05      	ldr	r4, [pc, #20]	; (80022c0 <HAL_SYSTICK_Config+0x2c>)
 80022ac:	6158      	str	r0, [r3, #20]
 80022ae:	f884 c023 	strb.w	ip, [r4, #35]	; 0x23
 80022b2:	4610      	mov	r0, r2
 80022b4:	619a      	str	r2, [r3, #24]
 80022b6:	bc10      	pop	{r4}
 80022b8:	6119      	str	r1, [r3, #16]
 80022ba:	4770      	bx	lr
 80022bc:	2001      	movs	r0, #1
 80022be:	4770      	bx	lr
 80022c0:	e000ed00 	.word	0xe000ed00

080022c4 <HAL_DMA_Init>:
 80022c4:	b340      	cbz	r0, 8002318 <HAL_DMA_Init+0x54>
 80022c6:	4603      	mov	r3, r0
 80022c8:	c805      	ldmia	r0, {r0, r2}
 80022ca:	f44f 7c80 	mov.w	ip, #256	; 0x100
 80022ce:	b430      	push	{r4, r5}
 80022d0:	2400      	movs	r4, #0
 80022d2:	6899      	ldr	r1, [r3, #8]
 80022d4:	68dd      	ldr	r5, [r3, #12]
 80022d6:	430a      	orrs	r2, r1
 80022d8:	4910      	ldr	r1, [pc, #64]	; (800231c <HAL_DMA_Init+0x58>)
 80022da:	432a      	orrs	r2, r5
 80022dc:	4d10      	ldr	r5, [pc, #64]	; (8002320 <HAL_DMA_Init+0x5c>)
 80022de:	4401      	add	r1, r0
 80022e0:	fba5 5101 	umull	r5, r1, r5, r1
 80022e4:	0909      	lsrs	r1, r1, #4
 80022e6:	0089      	lsls	r1, r1, #2
 80022e8:	6419      	str	r1, [r3, #64]	; 0x40
 80022ea:	6919      	ldr	r1, [r3, #16]
 80022ec:	699d      	ldr	r5, [r3, #24]
 80022ee:	430a      	orrs	r2, r1
 80022f0:	6959      	ldr	r1, [r3, #20]
 80022f2:	430a      	orrs	r2, r1
 80022f4:	6801      	ldr	r1, [r0, #0]
 80022f6:	432a      	orrs	r2, r5
 80022f8:	69dd      	ldr	r5, [r3, #28]
 80022fa:	f421 517f 	bic.w	r1, r1, #16320	; 0x3fc0
 80022fe:	f021 0130 	bic.w	r1, r1, #48	; 0x30
 8002302:	432a      	orrs	r2, r5
 8002304:	430a      	orrs	r2, r1
 8002306:	4907      	ldr	r1, [pc, #28]	; (8002324 <HAL_DMA_Init+0x60>)
 8002308:	63d9      	str	r1, [r3, #60]	; 0x3c
 800230a:	6002      	str	r2, [r0, #0]
 800230c:	f8a3 c020 	strh.w	ip, [r3, #32]
 8002310:	4620      	mov	r0, r4
 8002312:	639c      	str	r4, [r3, #56]	; 0x38
 8002314:	bc30      	pop	{r4, r5}
 8002316:	4770      	bx	lr
 8002318:	2001      	movs	r0, #1
 800231a:	4770      	bx	lr
 800231c:	bffdfff8 	.word	0xbffdfff8
 8002320:	cccccccd 	.word	0xcccccccd
 8002324:	40020000 	.word	0x40020000

08002328 <HAL_DMA_Start_IT>:
 8002328:	4684      	mov	ip, r0
 800232a:	f890 0020 	ldrb.w	r0, [r0, #32]
 800232e:	2801      	cmp	r0, #1
 8002330:	d03f      	beq.n	80023b2 <HAL_DMA_Start_IT+0x8a>
 8002332:	b430      	push	{r4, r5}
 8002334:	2401      	movs	r4, #1
 8002336:	f89c 0021 	ldrb.w	r0, [ip, #33]	; 0x21
 800233a:	f88c 4020 	strb.w	r4, [ip, #32]
 800233e:	42a0      	cmp	r0, r4
 8002340:	d005      	beq.n	800234e <HAL_DMA_Start_IT+0x26>
 8002342:	2300      	movs	r3, #0
 8002344:	f88c 3020 	strb.w	r3, [ip, #32]
 8002348:	2002      	movs	r0, #2
 800234a:	bc30      	pop	{r4, r5}
 800234c:	4770      	bx	lr
 800234e:	2402      	movs	r4, #2
 8002350:	f88c 4021 	strb.w	r4, [ip, #33]	; 0x21
 8002354:	2400      	movs	r4, #0
 8002356:	f8dc 5040 	ldr.w	r5, [ip, #64]	; 0x40
 800235a:	f8cc 4038 	str.w	r4, [ip, #56]	; 0x38
 800235e:	f8dc 4000 	ldr.w	r4, [ip]
 8002362:	40a8      	lsls	r0, r5
 8002364:	6825      	ldr	r5, [r4, #0]
 8002366:	f025 0501 	bic.w	r5, r5, #1
 800236a:	6025      	str	r5, [r4, #0]
 800236c:	f8dc 503c 	ldr.w	r5, [ip, #60]	; 0x3c
 8002370:	6068      	str	r0, [r5, #4]
 8002372:	6063      	str	r3, [r4, #4]
 8002374:	f8dc 3004 	ldr.w	r3, [ip, #4]
 8002378:	2b10      	cmp	r3, #16
 800237a:	f8dc 302c 	ldr.w	r3, [ip, #44]	; 0x2c
 800237e:	bf0b      	itete	eq
 8002380:	60a2      	streq	r2, [r4, #8]
 8002382:	60a1      	strne	r1, [r4, #8]
 8002384:	60e1      	streq	r1, [r4, #12]
 8002386:	60e2      	strne	r2, [r4, #12]
 8002388:	b153      	cbz	r3, 80023a0 <HAL_DMA_Start_IT+0x78>
 800238a:	6823      	ldr	r3, [r4, #0]
 800238c:	f043 030e 	orr.w	r3, r3, #14
 8002390:	6023      	str	r3, [r4, #0]
 8002392:	6823      	ldr	r3, [r4, #0]
 8002394:	2000      	movs	r0, #0
 8002396:	f043 0301 	orr.w	r3, r3, #1
 800239a:	6023      	str	r3, [r4, #0]
 800239c:	bc30      	pop	{r4, r5}
 800239e:	4770      	bx	lr
 80023a0:	6823      	ldr	r3, [r4, #0]
 80023a2:	f023 0304 	bic.w	r3, r3, #4
 80023a6:	6023      	str	r3, [r4, #0]
 80023a8:	6823      	ldr	r3, [r4, #0]
 80023aa:	f043 030a 	orr.w	r3, r3, #10
 80023ae:	6023      	str	r3, [r4, #0]
 80023b0:	e7ef      	b.n	8002392 <HAL_DMA_Start_IT+0x6a>
 80023b2:	2002      	movs	r0, #2
 80023b4:	4770      	bx	lr
 80023b6:	bf00      	nop

080023b8 <HAL_DMA_Abort>:
 80023b8:	f890 2021 	ldrb.w	r2, [r0, #33]	; 0x21
 80023bc:	4603      	mov	r3, r0
 80023be:	2a02      	cmp	r2, #2
 80023c0:	d006      	beq.n	80023d0 <HAL_DMA_Abort+0x18>
 80023c2:	2104      	movs	r1, #4
 80023c4:	2200      	movs	r2, #0
 80023c6:	2001      	movs	r0, #1
 80023c8:	6399      	str	r1, [r3, #56]	; 0x38
 80023ca:	f883 2020 	strb.w	r2, [r3, #32]
 80023ce:	4770      	bx	lr
 80023d0:	2101      	movs	r1, #1
 80023d2:	f44f 7c80 	mov.w	ip, #256	; 0x100
 80023d6:	b410      	push	{r4}
 80023d8:	681a      	ldr	r2, [r3, #0]
 80023da:	6c1c      	ldr	r4, [r3, #64]	; 0x40
 80023dc:	2000      	movs	r0, #0
 80023de:	40a1      	lsls	r1, r4
 80023e0:	6814      	ldr	r4, [r2, #0]
 80023e2:	f024 040e 	bic.w	r4, r4, #14
 80023e6:	6014      	str	r4, [r2, #0]
 80023e8:	6814      	ldr	r4, [r2, #0]
 80023ea:	f024 0401 	bic.w	r4, r4, #1
 80023ee:	6014      	str	r4, [r2, #0]
 80023f0:	6bda      	ldr	r2, [r3, #60]	; 0x3c
 80023f2:	6051      	str	r1, [r2, #4]
 80023f4:	f8a3 c020 	strh.w	ip, [r3, #32]
 80023f8:	bc10      	pop	{r4}
 80023fa:	4770      	bx	lr

080023fc <HAL_DMA_Abort_IT>:
 80023fc:	f890 2021 	ldrb.w	r2, [r0, #33]	; 0x21
 8002400:	4603      	mov	r3, r0
 8002402:	2a02      	cmp	r2, #2
 8002404:	d003      	beq.n	800240e <HAL_DMA_Abort_IT+0x12>
 8002406:	2204      	movs	r2, #4
 8002408:	2001      	movs	r0, #1
 800240a:	639a      	str	r2, [r3, #56]	; 0x38
 800240c:	4770      	bx	lr
 800240e:	6802      	ldr	r2, [r0, #0]
 8002410:	b510      	push	{r4, lr}
 8002412:	6811      	ldr	r1, [r2, #0]
 8002414:	481b      	ldr	r0, [pc, #108]	; (8002484 <HAL_DMA_Abort_IT+0x88>)
 8002416:	f021 010e 	bic.w	r1, r1, #14
 800241a:	6011      	str	r1, [r2, #0]
 800241c:	6811      	ldr	r1, [r2, #0]
 800241e:	4282      	cmp	r2, r0
 8002420:	f021 0101 	bic.w	r1, r1, #1
 8002424:	6011      	str	r1, [r2, #0]
 8002426:	d021      	beq.n	800246c <HAL_DMA_Abort_IT+0x70>
 8002428:	4917      	ldr	r1, [pc, #92]	; (8002488 <HAL_DMA_Abort_IT+0x8c>)
 800242a:	428a      	cmp	r2, r1
 800242c:	d01a      	beq.n	8002464 <HAL_DMA_Abort_IT+0x68>
 800242e:	3114      	adds	r1, #20
 8002430:	428a      	cmp	r2, r1
 8002432:	d01d      	beq.n	8002470 <HAL_DMA_Abort_IT+0x74>
 8002434:	3114      	adds	r1, #20
 8002436:	428a      	cmp	r2, r1
 8002438:	d01d      	beq.n	8002476 <HAL_DMA_Abort_IT+0x7a>
 800243a:	3114      	adds	r1, #20
 800243c:	428a      	cmp	r2, r1
 800243e:	d01d      	beq.n	800247c <HAL_DMA_Abort_IT+0x80>
 8002440:	3114      	adds	r1, #20
 8002442:	428a      	cmp	r2, r1
 8002444:	bf0c      	ite	eq
 8002446:	f44f 1280 	moveq.w	r2, #1048576	; 0x100000
 800244a:	f04f 7280 	movne.w	r2, #16777216	; 0x1000000
 800244e:	f44f 7080 	mov.w	r0, #256	; 0x100
 8002452:	4c0e      	ldr	r4, [pc, #56]	; (800248c <HAL_DMA_Abort_IT+0x90>)
 8002454:	6b59      	ldr	r1, [r3, #52]	; 0x34
 8002456:	6062      	str	r2, [r4, #4]
 8002458:	8418      	strh	r0, [r3, #32]
 800245a:	b129      	cbz	r1, 8002468 <HAL_DMA_Abort_IT+0x6c>
 800245c:	4618      	mov	r0, r3
 800245e:	4788      	blx	r1
 8002460:	2000      	movs	r0, #0
 8002462:	bd10      	pop	{r4, pc}
 8002464:	2210      	movs	r2, #16
 8002466:	e7f2      	b.n	800244e <HAL_DMA_Abort_IT+0x52>
 8002468:	4608      	mov	r0, r1
 800246a:	bd10      	pop	{r4, pc}
 800246c:	2201      	movs	r2, #1
 800246e:	e7ee      	b.n	800244e <HAL_DMA_Abort_IT+0x52>
 8002470:	f44f 7280 	mov.w	r2, #256	; 0x100
 8002474:	e7eb      	b.n	800244e <HAL_DMA_Abort_IT+0x52>
 8002476:	f44f 5280 	mov.w	r2, #4096	; 0x1000
 800247a:	e7e8      	b.n	800244e <HAL_DMA_Abort_IT+0x52>
 800247c:	f44f 3280 	mov.w	r2, #65536	; 0x10000
 8002480:	e7e5      	b.n	800244e <HAL_DMA_Abort_IT+0x52>
 8002482:	bf00      	nop
 8002484:	40020008 	.word	0x40020008
 8002488:	4002001c 	.word	0x4002001c
 800248c:	40020000 	.word	0x40020000

08002490 <HAL_DMA_IRQHandler>:
 8002490:	2204      	movs	r2, #4
 8002492:	b470      	push	{r4, r5, r6}
 8002494:	6bc6      	ldr	r6, [r0, #60]	; 0x3c
 8002496:	6c01      	ldr	r1, [r0, #64]	; 0x40
 8002498:	6834      	ldr	r4, [r6, #0]
 800249a:	6803      	ldr	r3, [r0, #0]
 800249c:	408a      	lsls	r2, r1
 800249e:	4222      	tst	r2, r4
 80024a0:	681d      	ldr	r5, [r3, #0]
 80024a2:	d01f      	beq.n	80024e4 <HAL_DMA_IRQHandler+0x54>
 80024a4:	076a      	lsls	r2, r5, #29
 80024a6:	d51d      	bpl.n	80024e4 <HAL_DMA_IRQHandler+0x54>
 80024a8:	681a      	ldr	r2, [r3, #0]
 80024aa:	0691      	lsls	r1, r2, #26
 80024ac:	d403      	bmi.n	80024b6 <HAL_DMA_IRQHandler+0x26>
 80024ae:	681a      	ldr	r2, [r3, #0]
 80024b0:	f022 0204 	bic.w	r2, r2, #4
 80024b4:	601a      	str	r2, [r3, #0]
 80024b6:	4a3e      	ldr	r2, [pc, #248]	; (80025b0 <HAL_DMA_IRQHandler+0x120>)
 80024b8:	4293      	cmp	r3, r2
 80024ba:	d050      	beq.n	800255e <HAL_DMA_IRQHandler+0xce>
 80024bc:	3214      	adds	r2, #20
 80024be:	4293      	cmp	r3, r2
 80024c0:	d060      	beq.n	8002584 <HAL_DMA_IRQHandler+0xf4>
 80024c2:	3214      	adds	r2, #20
 80024c4:	4293      	cmp	r3, r2
 80024c6:	d067      	beq.n	8002598 <HAL_DMA_IRQHandler+0x108>
 80024c8:	3214      	adds	r2, #20
 80024ca:	4293      	cmp	r3, r2
 80024cc:	d06a      	beq.n	80025a4 <HAL_DMA_IRQHandler+0x114>
 80024ce:	3214      	adds	r2, #20
 80024d0:	4293      	cmp	r3, r2
 80024d2:	d05c      	beq.n	800258e <HAL_DMA_IRQHandler+0xfe>
 80024d4:	3214      	adds	r2, #20
 80024d6:	4293      	cmp	r3, r2
 80024d8:	bf0c      	ite	eq
 80024da:	f44f 0380 	moveq.w	r3, #4194304	; 0x400000
 80024de:	f04f 6380 	movne.w	r3, #67108864	; 0x4000000
 80024e2:	e03d      	b.n	8002560 <HAL_DMA_IRQHandler+0xd0>
 80024e4:	2202      	movs	r2, #2
 80024e6:	408a      	lsls	r2, r1
 80024e8:	4222      	tst	r2, r4
 80024ea:	d022      	beq.n	8002532 <HAL_DMA_IRQHandler+0xa2>
 80024ec:	07aa      	lsls	r2, r5, #30
 80024ee:	d520      	bpl.n	8002532 <HAL_DMA_IRQHandler+0xa2>
 80024f0:	681a      	ldr	r2, [r3, #0]
 80024f2:	0691      	lsls	r1, r2, #26
 80024f4:	d406      	bmi.n	8002504 <HAL_DMA_IRQHandler+0x74>
 80024f6:	2101      	movs	r1, #1
 80024f8:	681a      	ldr	r2, [r3, #0]
 80024fa:	f022 020a 	bic.w	r2, r2, #10
 80024fe:	601a      	str	r2, [r3, #0]
 8002500:	f880 1021 	strb.w	r1, [r0, #33]	; 0x21
 8002504:	4a2a      	ldr	r2, [pc, #168]	; (80025b0 <HAL_DMA_IRQHandler+0x120>)
 8002506:	4293      	cmp	r3, r2
 8002508:	d031      	beq.n	800256e <HAL_DMA_IRQHandler+0xde>
 800250a:	3214      	adds	r2, #20
 800250c:	4293      	cmp	r3, r2
 800250e:	d041      	beq.n	8002594 <HAL_DMA_IRQHandler+0x104>
 8002510:	3214      	adds	r2, #20
 8002512:	4293      	cmp	r3, r2
 8002514:	d043      	beq.n	800259e <HAL_DMA_IRQHandler+0x10e>
 8002516:	3214      	adds	r2, #20
 8002518:	4293      	cmp	r3, r2
 800251a:	d035      	beq.n	8002588 <HAL_DMA_IRQHandler+0xf8>
 800251c:	3214      	adds	r2, #20
 800251e:	4293      	cmp	r3, r2
 8002520:	d043      	beq.n	80025aa <HAL_DMA_IRQHandler+0x11a>
 8002522:	3214      	adds	r2, #20
 8002524:	4293      	cmp	r3, r2
 8002526:	bf0c      	ite	eq
 8002528:	f44f 1300 	moveq.w	r3, #2097152	; 0x200000
 800252c:	f04f 7300 	movne.w	r3, #33554432	; 0x2000000
 8002530:	e01e      	b.n	8002570 <HAL_DMA_IRQHandler+0xe0>
 8002532:	2208      	movs	r2, #8
 8002534:	408a      	lsls	r2, r1
 8002536:	4222      	tst	r2, r4
 8002538:	d017      	beq.n	800256a <HAL_DMA_IRQHandler+0xda>
 800253a:	072a      	lsls	r2, r5, #28
 800253c:	d515      	bpl.n	800256a <HAL_DMA_IRQHandler+0xda>
 800253e:	681a      	ldr	r2, [r3, #0]
 8002540:	f44f 7480 	mov.w	r4, #256	; 0x100
 8002544:	f022 020e 	bic.w	r2, r2, #14
 8002548:	601a      	str	r2, [r3, #0]
 800254a:	2301      	movs	r3, #1
 800254c:	6b02      	ldr	r2, [r0, #48]	; 0x30
 800254e:	fa03 f101 	lsl.w	r1, r3, r1
 8002552:	6071      	str	r1, [r6, #4]
 8002554:	6383      	str	r3, [r0, #56]	; 0x38
 8002556:	8404      	strh	r4, [r0, #32]
 8002558:	b13a      	cbz	r2, 800256a <HAL_DMA_IRQHandler+0xda>
 800255a:	bc70      	pop	{r4, r5, r6}
 800255c:	4710      	bx	r2
 800255e:	2304      	movs	r3, #4
 8002560:	4914      	ldr	r1, [pc, #80]	; (80025b4 <HAL_DMA_IRQHandler+0x124>)
 8002562:	6ac2      	ldr	r2, [r0, #44]	; 0x2c
 8002564:	604b      	str	r3, [r1, #4]
 8002566:	2a00      	cmp	r2, #0
 8002568:	d1f7      	bne.n	800255a <HAL_DMA_IRQHandler+0xca>
 800256a:	bc70      	pop	{r4, r5, r6}
 800256c:	4770      	bx	lr
 800256e:	2302      	movs	r3, #2
 8002570:	2100      	movs	r1, #0
 8002572:	4c10      	ldr	r4, [pc, #64]	; (80025b4 <HAL_DMA_IRQHandler+0x124>)
 8002574:	6a82      	ldr	r2, [r0, #40]	; 0x28
 8002576:	6063      	str	r3, [r4, #4]
 8002578:	f880 1020 	strb.w	r1, [r0, #32]
 800257c:	2a00      	cmp	r2, #0
 800257e:	d0f4      	beq.n	800256a <HAL_DMA_IRQHandler+0xda>
 8002580:	bc70      	pop	{r4, r5, r6}
 8002582:	4710      	bx	r2
 8002584:	2340      	movs	r3, #64	; 0x40
 8002586:	e7eb      	b.n	8002560 <HAL_DMA_IRQHandler+0xd0>
 8002588:	f44f 5300 	mov.w	r3, #8192	; 0x2000
 800258c:	e7f0      	b.n	8002570 <HAL_DMA_IRQHandler+0xe0>
 800258e:	f44f 2380 	mov.w	r3, #262144	; 0x40000
 8002592:	e7e5      	b.n	8002560 <HAL_DMA_IRQHandler+0xd0>
 8002594:	2320      	movs	r3, #32
 8002596:	e7eb      	b.n	8002570 <HAL_DMA_IRQHandler+0xe0>
 8002598:	f44f 6380 	mov.w	r3, #1024	; 0x400
 800259c:	e7e0      	b.n	8002560 <HAL_DMA_IRQHandler+0xd0>
 800259e:	f44f 7300 	mov.w	r3, #512	; 0x200
 80025a2:	e7e5      	b.n	8002570 <HAL_DMA_IRQHandler+0xe0>
 80025a4:	f44f 4380 	mov.w	r3, #16384	; 0x4000
 80025a8:	e7da      	b.n	8002560 <HAL_DMA_IRQHandler+0xd0>
 80025aa:	f44f 3300 	mov.w	r3, #131072	; 0x20000
 80025ae:	e7df      	b.n	8002570 <HAL_DMA_IRQHandler+0xe0>
 80025b0:	40020008 	.word	0x40020008
 80025b4:	40020000 	.word	0x40020000

080025b8 <HAL_GPIO_Init>:
 80025b8:	e92d 4ff0 	stmdb	sp!, {r4, r5, r6, r7, r8, r9, sl, fp, lr}
 80025bc:	680e      	ldr	r6, [r1, #0]
 80025be:	b083      	sub	sp, #12
 80025c0:	2e00      	cmp	r6, #0
 80025c2:	f000 80b5 	beq.w	8002730 <HAL_GPIO_Init+0x178>
 80025c6:	2200      	movs	r2, #0
 80025c8:	4f7a      	ldr	r7, [pc, #488]	; (80027b4 <HAL_GPIO_Init+0x1fc>)
 80025ca:	4692      	mov	sl, r2
 80025cc:	4613      	mov	r3, r2
 80025ce:	4d7a      	ldr	r5, [pc, #488]	; (80027b8 <HAL_GPIO_Init+0x200>)
 80025d0:	f8df 81e8 	ldr.w	r8, [pc, #488]	; 80027bc <HAL_GPIO_Init+0x204>
 80025d4:	e006      	b.n	80025e4 <HAL_GPIO_Init+0x2c>
 80025d6:	3301      	adds	r3, #1
 80025d8:	fa36 f403 	lsrs.w	r4, r6, r3
 80025dc:	f102 0204 	add.w	r2, r2, #4
 80025e0:	f000 80a6 	beq.w	8002730 <HAL_GPIO_Init+0x178>
 80025e4:	2401      	movs	r4, #1
 80025e6:	409c      	lsls	r4, r3
 80025e8:	ea34 0e06 	bics.w	lr, r4, r6
 80025ec:	ea04 0c06 	and.w	ip, r4, r6
 80025f0:	d1f1      	bne.n	80025d6 <HAL_GPIO_Init+0x1e>
 80025f2:	684e      	ldr	r6, [r1, #4]
 80025f4:	2e12      	cmp	r6, #18
 80025f6:	f200 809e 	bhi.w	8002736 <HAL_GPIO_Init+0x17e>
 80025fa:	2e12      	cmp	r6, #18
 80025fc:	d81a      	bhi.n	8002634 <HAL_GPIO_Init+0x7c>
 80025fe:	e8df f006 	tbb	[pc, r6]
 8002602:	b9a7      	.short	0xb9a7
 8002604:	1919ceb5 	.word	0x1919ceb5
 8002608:	19191919 	.word	0x19191919
 800260c:	19191919 	.word	0x19191919
 8002610:	b1191919 	.word	0xb1191919
 8002614:	bc          	.byte	0xbc
 8002615:	00          	.byte	0x00
 8002616:	f8df e1a8 	ldr.w	lr, [pc, #424]	; 80027c0 <HAL_GPIO_Init+0x208>
 800261a:	4576      	cmp	r6, lr
 800261c:	f000 8098 	beq.w	8002750 <HAL_GPIO_Init+0x198>
 8002620:	f50e 2e70 	add.w	lr, lr, #983040	; 0xf0000
 8002624:	4576      	cmp	r6, lr
 8002626:	f000 8093 	beq.w	8002750 <HAL_GPIO_Init+0x198>
 800262a:	f5ae 1e80 	sub.w	lr, lr, #1048576	; 0x100000
 800262e:	4576      	cmp	r6, lr
 8002630:	f000 808e 	beq.w	8002750 <HAL_GPIO_Init+0x198>
 8002634:	f1bc 0fff 	cmp.w	ip, #255	; 0xff
 8002638:	bf9c      	itt	ls
 800263a:	4686      	movls	lr, r0
 800263c:	4693      	movls	fp, r2
 800263e:	f04f 060f 	mov.w	r6, #15
 8002642:	bf84      	itt	hi
 8002644:	f100 0e04 	addhi.w	lr, r0, #4
 8002648:	f1a2 0b20 	subhi.w	fp, r2, #32
 800264c:	f8de 4000 	ldr.w	r4, [lr]
 8002650:	fa0a f90b 	lsl.w	r9, sl, fp
 8002654:	fa06 fb0b 	lsl.w	fp, r6, fp
 8002658:	ea24 040b 	bic.w	r4, r4, fp
 800265c:	ea44 0409 	orr.w	r4, r4, r9
 8002660:	f8ce 4000 	str.w	r4, [lr]
 8002664:	684c      	ldr	r4, [r1, #4]
 8002666:	f014 5f80 	tst.w	r4, #268435456	; 0x10000000
 800266a:	d079      	beq.n	8002760 <HAL_GPIO_Init+0x1a8>
 800266c:	f8d7 e018 	ldr.w	lr, [r7, #24]
 8002670:	f003 0903 	and.w	r9, r3, #3
 8002674:	f04e 0e01 	orr.w	lr, lr, #1
 8002678:	f8c7 e018 	str.w	lr, [r7, #24]
 800267c:	f8d7 e018 	ldr.w	lr, [r7, #24]
 8002680:	ea4f 0989 	mov.w	r9, r9, lsl #2
 8002684:	f00e 0e01 	and.w	lr, lr, #1
 8002688:	f8cd e004 	str.w	lr, [sp, #4]
 800268c:	f8dd e004 	ldr.w	lr, [sp, #4]
 8002690:	f023 0e03 	bic.w	lr, r3, #3
 8002694:	f10e 4e80 	add.w	lr, lr, #1073741824	; 0x40000000
 8002698:	f50e 3e80 	add.w	lr, lr, #65536	; 0x10000
 800269c:	f8de b008 	ldr.w	fp, [lr, #8]
 80026a0:	fa06 f609 	lsl.w	r6, r6, r9
 80026a4:	ea2b 0606 	bic.w	r6, fp, r6
 80026a8:	f8df b118 	ldr.w	fp, [pc, #280]	; 80027c4 <HAL_GPIO_Init+0x20c>
 80026ac:	4558      	cmp	r0, fp
 80026ae:	d013      	beq.n	80026d8 <HAL_GPIO_Init+0x120>
 80026b0:	f50b 6b80 	add.w	fp, fp, #1024	; 0x400
 80026b4:	4558      	cmp	r0, fp
 80026b6:	d06b      	beq.n	8002790 <HAL_GPIO_Init+0x1d8>
 80026b8:	f8df b10c 	ldr.w	fp, [pc, #268]	; 80027c8 <HAL_GPIO_Init+0x210>
 80026bc:	4558      	cmp	r0, fp
 80026be:	d060      	beq.n	8002782 <HAL_GPIO_Init+0x1ca>
 80026c0:	f8df b108 	ldr.w	fp, [pc, #264]	; 80027cc <HAL_GPIO_Init+0x214>
 80026c4:	4558      	cmp	r0, fp
 80026c6:	bf0c      	ite	eq
 80026c8:	f04f 0b03 	moveq.w	fp, #3
 80026cc:	f04f 0b04 	movne.w	fp, #4
 80026d0:	fa0b f909 	lsl.w	r9, fp, r9
 80026d4:	ea46 0609 	orr.w	r6, r6, r9
 80026d8:	f8ce 6008 	str.w	r6, [lr, #8]
 80026dc:	682e      	ldr	r6, [r5, #0]
 80026de:	f414 3f80 	tst.w	r4, #65536	; 0x10000
 80026e2:	bf14      	ite	ne
 80026e4:	ea46 060c 	orrne.w	r6, r6, ip
 80026e8:	ea26 060c 	biceq.w	r6, r6, ip
 80026ec:	602e      	str	r6, [r5, #0]
 80026ee:	686e      	ldr	r6, [r5, #4]
 80026f0:	f414 3f00 	tst.w	r4, #131072	; 0x20000
 80026f4:	bf14      	ite	ne
 80026f6:	ea46 060c 	orrne.w	r6, r6, ip
 80026fa:	ea26 060c 	biceq.w	r6, r6, ip
 80026fe:	606e      	str	r6, [r5, #4]
 8002700:	68ae      	ldr	r6, [r5, #8]
 8002702:	f414 1f80 	tst.w	r4, #1048576	; 0x100000
 8002706:	bf14      	ite	ne
 8002708:	ea46 060c 	orrne.w	r6, r6, ip
 800270c:	ea26 060c 	biceq.w	r6, r6, ip
 8002710:	60ae      	str	r6, [r5, #8]
 8002712:	f414 1f00 	tst.w	r4, #2097152	; 0x200000
 8002716:	68ec      	ldr	r4, [r5, #12]
 8002718:	d01f      	beq.n	800275a <HAL_GPIO_Init+0x1a2>
 800271a:	ea44 040c 	orr.w	r4, r4, ip
 800271e:	60ec      	str	r4, [r5, #12]
 8002720:	680e      	ldr	r6, [r1, #0]
 8002722:	3301      	adds	r3, #1
 8002724:	fa36 f403 	lsrs.w	r4, r6, r3
 8002728:	f102 0204 	add.w	r2, r2, #4
 800272c:	f47f af5a 	bne.w	80025e4 <HAL_GPIO_Init+0x2c>
 8002730:	b003      	add	sp, #12
 8002732:	e8bd 8ff0 	ldmia.w	sp!, {r4, r5, r6, r7, r8, r9, sl, fp, pc}
 8002736:	4546      	cmp	r6, r8
 8002738:	d00a      	beq.n	8002750 <HAL_GPIO_Init+0x198>
 800273a:	f67f af6c 	bls.w	8002616 <HAL_GPIO_Init+0x5e>
 800273e:	f8df e090 	ldr.w	lr, [pc, #144]	; 80027d0 <HAL_GPIO_Init+0x218>
 8002742:	4576      	cmp	r6, lr
 8002744:	d004      	beq.n	8002750 <HAL_GPIO_Init+0x198>
 8002746:	f50e 3e80 	add.w	lr, lr, #65536	; 0x10000
 800274a:	4576      	cmp	r6, lr
 800274c:	f47f af72 	bne.w	8002634 <HAL_GPIO_Init+0x7c>
 8002750:	688e      	ldr	r6, [r1, #8]
 8002752:	bb3e      	cbnz	r6, 80027a4 <HAL_GPIO_Init+0x1ec>
 8002754:	f04f 0a04 	mov.w	sl, #4
 8002758:	e76c      	b.n	8002634 <HAL_GPIO_Init+0x7c>
 800275a:	ea24 040c 	bic.w	r4, r4, ip
 800275e:	60ec      	str	r4, [r5, #12]
 8002760:	680e      	ldr	r6, [r1, #0]
 8002762:	e738      	b.n	80025d6 <HAL_GPIO_Init+0x1e>
 8002764:	68cc      	ldr	r4, [r1, #12]
 8002766:	f104 0a04 	add.w	sl, r4, #4
 800276a:	e763      	b.n	8002634 <HAL_GPIO_Init+0x7c>
 800276c:	68cc      	ldr	r4, [r1, #12]
 800276e:	f104 0a08 	add.w	sl, r4, #8
 8002772:	e75f      	b.n	8002634 <HAL_GPIO_Init+0x7c>
 8002774:	f8d1 a00c 	ldr.w	sl, [r1, #12]
 8002778:	e75c      	b.n	8002634 <HAL_GPIO_Init+0x7c>
 800277a:	68cc      	ldr	r4, [r1, #12]
 800277c:	f104 0a0c 	add.w	sl, r4, #12
 8002780:	e758      	b.n	8002634 <HAL_GPIO_Init+0x7c>
 8002782:	f04f 0b02 	mov.w	fp, #2
 8002786:	fa0b f909 	lsl.w	r9, fp, r9
 800278a:	ea46 0609 	orr.w	r6, r6, r9
 800278e:	e7a3      	b.n	80026d8 <HAL_GPIO_Init+0x120>
 8002790:	f04f 0b01 	mov.w	fp, #1
 8002794:	fa0b f909 	lsl.w	r9, fp, r9
 8002798:	ea46 0609 	orr.w	r6, r6, r9
 800279c:	e79c      	b.n	80026d8 <HAL_GPIO_Init+0x120>
 800279e:	f04f 0a00 	mov.w	sl, #0
 80027a2:	e747      	b.n	8002634 <HAL_GPIO_Init+0x7c>
 80027a4:	2e01      	cmp	r6, #1
 80027a6:	f04f 0a08 	mov.w	sl, #8
 80027aa:	bf0c      	ite	eq
 80027ac:	6104      	streq	r4, [r0, #16]
 80027ae:	6144      	strne	r4, [r0, #20]
 80027b0:	e740      	b.n	8002634 <HAL_GPIO_Init+0x7c>
 80027b2:	bf00      	nop
 80027b4:	40021000 	.word	0x40021000
 80027b8:	40010400 	.word	0x40010400
 80027bc:	10220000 	.word	0x10220000
 80027c0:	10120000 	.word	0x10120000
 80027c4:	40010800 	.word	0x40010800
 80027c8:	40011000 	.word	0x40011000
 80027cc:	40011400 	.word	0x40011400
 80027d0:	10310000 	.word	0x10310000

080027d4 <HAL_GPIO_WritePin>:
 80027d4:	b902      	cbnz	r2, 80027d8 <HAL_GPIO_WritePin+0x4>
 80027d6:	0409      	lsls	r1, r1, #16
 80027d8:	6101      	str	r1, [r0, #16]
 80027da:	4770      	bx	lr

080027dc <HAL_I2C_Init>:
 80027dc:	2800      	cmp	r0, #0
 80027de:	f000 80b9 	beq.w	8002954 <HAL_I2C_Init+0x178>
 80027e2:	b538      	push	{r3, r4, r5, lr}
 80027e4:	f890 303d 	ldrb.w	r3, [r0, #61]	; 0x3d
 80027e8:	4604      	mov	r4, r0
 80027ea:	f003 02ff 	and.w	r2, r3, #255	; 0xff
 80027ee:	2b00      	cmp	r3, #0
 80027f0:	f000 8098 	beq.w	8002924 <HAL_I2C_Init+0x148>
 80027f4:	2224      	movs	r2, #36	; 0x24
 80027f6:	6823      	ldr	r3, [r4, #0]
 80027f8:	f884 203d 	strb.w	r2, [r4, #61]	; 0x3d
 80027fc:	681a      	ldr	r2, [r3, #0]
 80027fe:	f022 0201 	bic.w	r2, r2, #1
 8002802:	601a      	str	r2, [r3, #0]
 8002804:	681a      	ldr	r2, [r3, #0]
 8002806:	f442 4200 	orr.w	r2, r2, #32768	; 0x8000
 800280a:	601a      	str	r2, [r3, #0]
 800280c:	681a      	ldr	r2, [r3, #0]
 800280e:	f422 4200 	bic.w	r2, r2, #32768	; 0x8000
 8002812:	601a      	str	r2, [r3, #0]
 8002814:	f000 fba6 	bl	8002f64 <HAL_RCC_GetPCLK1Freq>
 8002818:	6863      	ldr	r3, [r4, #4]
 800281a:	494f      	ldr	r1, [pc, #316]	; (8002958 <HAL_I2C_Init+0x17c>)
 800281c:	428b      	cmp	r3, r1
 800281e:	d84f      	bhi.n	80028c0 <HAL_I2C_Init+0xe4>
 8002820:	4a4e      	ldr	r2, [pc, #312]	; (800295c <HAL_I2C_Init+0x180>)
 8002822:	4290      	cmp	r0, r2
 8002824:	d97c      	bls.n	8002920 <HAL_I2C_Init+0x144>
 8002826:	4d4e      	ldr	r5, [pc, #312]	; (8002960 <HAL_I2C_Init+0x184>)
 8002828:	005a      	lsls	r2, r3, #1
 800282a:	fba5 3500 	umull	r3, r5, r5, r0
 800282e:	1e43      	subs	r3, r0, #1
 8002830:	fbb3 f3f2 	udiv	r3, r3, r2
 8002834:	f640 7efc 	movw	lr, #4092	; 0xffc
 8002838:	6822      	ldr	r2, [r4, #0]
 800283a:	0ca9      	lsrs	r1, r5, #18
 800283c:	6850      	ldr	r0, [r2, #4]
 800283e:	f101 0c01 	add.w	ip, r1, #1
 8002842:	f020 003f 	bic.w	r0, r0, #63	; 0x3f
 8002846:	ea40 4095 	orr.w	r0, r0, r5, lsr #18
 800284a:	6050      	str	r0, [r2, #4]
 800284c:	6a11      	ldr	r1, [r2, #32]
 800284e:	3301      	adds	r3, #1
 8002850:	f021 013f 	bic.w	r1, r1, #63	; 0x3f
 8002854:	ea41 010c 	orr.w	r1, r1, ip
 8002858:	6211      	str	r1, [r2, #32]
 800285a:	69d1      	ldr	r1, [r2, #28]
 800285c:	ea13 0f0e 	tst.w	r3, lr
 8002860:	f421 414f 	bic.w	r1, r1, #52992	; 0xcf00
 8002864:	f021 01ff 	bic.w	r1, r1, #255	; 0xff
 8002868:	d161      	bne.n	800292e <HAL_I2C_Init+0x152>
 800286a:	2304      	movs	r3, #4
 800286c:	430b      	orrs	r3, r1
 800286e:	61d3      	str	r3, [r2, #28]
 8002870:	6811      	ldr	r1, [r2, #0]
 8002872:	e9d4 3007 	ldrd	r3, r0, [r4, #28]
 8002876:	f021 01c0 	bic.w	r1, r1, #192	; 0xc0
 800287a:	4303      	orrs	r3, r0
 800287c:	430b      	orrs	r3, r1
 800287e:	6013      	str	r3, [r2, #0]
 8002880:	6891      	ldr	r1, [r2, #8]
 8002882:	e9d4 0303 	ldrd	r0, r3, [r4, #12]
 8002886:	f421 4103 	bic.w	r1, r1, #33536	; 0x8300
 800288a:	4303      	orrs	r3, r0
 800288c:	f021 01ff 	bic.w	r1, r1, #255	; 0xff
 8002890:	430b      	orrs	r3, r1
 8002892:	6093      	str	r3, [r2, #8]
 8002894:	68d0      	ldr	r0, [r2, #12]
 8002896:	e9d4 3105 	ldrd	r3, r1, [r4, #20]
 800289a:	f020 00ff 	bic.w	r0, r0, #255	; 0xff
 800289e:	430b      	orrs	r3, r1
 80028a0:	4303      	orrs	r3, r0
 80028a2:	60d3      	str	r3, [r2, #12]
 80028a4:	6813      	ldr	r3, [r2, #0]
 80028a6:	2100      	movs	r1, #0
 80028a8:	f043 0301 	orr.w	r3, r3, #1
 80028ac:	6013      	str	r3, [r2, #0]
 80028ae:	2320      	movs	r3, #32
 80028b0:	6421      	str	r1, [r4, #64]	; 0x40
 80028b2:	f884 303d 	strb.w	r3, [r4, #61]	; 0x3d
 80028b6:	6321      	str	r1, [r4, #48]	; 0x30
 80028b8:	f884 103e 	strb.w	r1, [r4, #62]	; 0x3e
 80028bc:	4608      	mov	r0, r1
 80028be:	bd38      	pop	{r3, r4, r5, pc}
 80028c0:	4a28      	ldr	r2, [pc, #160]	; (8002964 <HAL_I2C_Init+0x188>)
 80028c2:	4290      	cmp	r0, r2
 80028c4:	d92c      	bls.n	8002920 <HAL_I2C_Init+0x144>
 80028c6:	4d26      	ldr	r5, [pc, #152]	; (8002960 <HAL_I2C_Init+0x184>)
 80028c8:	fba5 2c00 	umull	r2, ip, r5, r0
 80028cc:	f44f 7296 	mov.w	r2, #300	; 0x12c
 80028d0:	ea4f 419c 	mov.w	r1, ip, lsr #18
 80028d4:	fb02 f101 	mul.w	r1, r2, r1
 80028d8:	4d23      	ldr	r5, [pc, #140]	; (8002968 <HAL_I2C_Init+0x18c>)
 80028da:	6822      	ldr	r2, [r4, #0]
 80028dc:	fba5 5101 	umull	r5, r1, r5, r1
 80028e0:	6855      	ldr	r5, [r2, #4]
 80028e2:	0989      	lsrs	r1, r1, #6
 80028e4:	f025 053f 	bic.w	r5, r5, #63	; 0x3f
 80028e8:	ea45 459c 	orr.w	r5, r5, ip, lsr #18
 80028ec:	6055      	str	r5, [r2, #4]
 80028ee:	6a15      	ldr	r5, [r2, #32]
 80028f0:	3101      	adds	r1, #1
 80028f2:	f025 053f 	bic.w	r5, r5, #63	; 0x3f
 80028f6:	4329      	orrs	r1, r5
 80028f8:	6211      	str	r1, [r2, #32]
 80028fa:	69d1      	ldr	r1, [r2, #28]
 80028fc:	68a5      	ldr	r5, [r4, #8]
 80028fe:	f421 414f 	bic.w	r1, r1, #52992	; 0xcf00
 8002902:	f021 01ff 	bic.w	r1, r1, #255	; 0xff
 8002906:	b9ad      	cbnz	r5, 8002934 <HAL_I2C_Init+0x158>
 8002908:	3801      	subs	r0, #1
 800290a:	eb03 0343 	add.w	r3, r3, r3, lsl #1
 800290e:	fbb0 f3f3 	udiv	r3, r0, r3
 8002912:	3301      	adds	r3, #1
 8002914:	f3c3 030b 	ubfx	r3, r3, #0, #12
 8002918:	b1d3      	cbz	r3, 8002950 <HAL_I2C_Init+0x174>
 800291a:	f443 4300 	orr.w	r3, r3, #32768	; 0x8000
 800291e:	e7a5      	b.n	800286c <HAL_I2C_Init+0x90>
 8002920:	2001      	movs	r0, #1
 8002922:	bd38      	pop	{r3, r4, r5, pc}
 8002924:	f880 203c 	strb.w	r2, [r0, #60]	; 0x3c
 8002928:	f7fe fd80 	bl	800142c <HAL_I2C_MspInit>
 800292c:	e762      	b.n	80027f4 <HAL_I2C_Init+0x18>
 800292e:	f3c3 030b 	ubfx	r3, r3, #0, #12
 8002932:	e79b      	b.n	800286c <HAL_I2C_Init+0x90>
 8002934:	eb03 0383 	add.w	r3, r3, r3, lsl #2
 8002938:	3801      	subs	r0, #1
 800293a:	eb03 0383 	add.w	r3, r3, r3, lsl #2
 800293e:	fbb0 f3f3 	udiv	r3, r0, r3
 8002942:	3301      	adds	r3, #1
 8002944:	f3c3 030b 	ubfx	r3, r3, #0, #12
 8002948:	b113      	cbz	r3, 8002950 <HAL_I2C_Init+0x174>
 800294a:	f443 4340 	orr.w	r3, r3, #49152	; 0xc000
 800294e:	e78d      	b.n	800286c <HAL_I2C_Init+0x90>
 8002950:	2301      	movs	r3, #1
 8002952:	e78b      	b.n	800286c <HAL_I2C_Init+0x90>
 8002954:	2001      	movs	r0, #1
 8002956:	4770      	bx	lr
 8002958:	000186a0 	.word	0x000186a0
 800295c:	001e847f 	.word	0x001e847f
 8002960:	431bde83 	.word	0x431bde83
 8002964:	003d08ff 	.word	0x003d08ff
 8002968:	10624dd3 	.word	0x10624dd3

0800296c <HAL_RCC_OscConfig>:
 800296c:	2800      	cmp	r0, #0
 800296e:	f000 81b6 	beq.w	8002cde <HAL_RCC_OscConfig+0x372>
 8002972:	e92d 41f0 	stmdb	sp!, {r4, r5, r6, r7, r8, lr}
 8002976:	6803      	ldr	r3, [r0, #0]
 8002978:	4604      	mov	r4, r0
 800297a:	07dd      	lsls	r5, r3, #31
 800297c:	b082      	sub	sp, #8
 800297e:	d535      	bpl.n	80029ec <HAL_RCC_OscConfig+0x80>
 8002980:	499a      	ldr	r1, [pc, #616]	; (8002bec <HAL_RCC_OscConfig+0x280>)
 8002982:	684a      	ldr	r2, [r1, #4]
 8002984:	f002 020c 	and.w	r2, r2, #12
 8002988:	2a04      	cmp	r2, #4
 800298a:	f000 80ef 	beq.w	8002b6c <HAL_RCC_OscConfig+0x200>
 800298e:	684a      	ldr	r2, [r1, #4]
 8002990:	f002 020c 	and.w	r2, r2, #12
 8002994:	2a08      	cmp	r2, #8
 8002996:	f000 80e5 	beq.w	8002b64 <HAL_RCC_OscConfig+0x1f8>
 800299a:	6863      	ldr	r3, [r4, #4]
 800299c:	f5b3 3f80 	cmp.w	r3, #65536	; 0x10000
 80029a0:	d010      	beq.n	80029c4 <HAL_RCC_OscConfig+0x58>
 80029a2:	2b00      	cmp	r3, #0
 80029a4:	f000 810c 	beq.w	8002bc0 <HAL_RCC_OscConfig+0x254>
 80029a8:	f5b3 2fa0 	cmp.w	r3, #327680	; 0x50000
 80029ac:	f000 8182 	beq.w	8002cb4 <HAL_RCC_OscConfig+0x348>
 80029b0:	4b8e      	ldr	r3, [pc, #568]	; (8002bec <HAL_RCC_OscConfig+0x280>)
 80029b2:	681a      	ldr	r2, [r3, #0]
 80029b4:	f422 3280 	bic.w	r2, r2, #65536	; 0x10000
 80029b8:	601a      	str	r2, [r3, #0]
 80029ba:	681a      	ldr	r2, [r3, #0]
 80029bc:	f422 2280 	bic.w	r2, r2, #262144	; 0x40000
 80029c0:	601a      	str	r2, [r3, #0]
 80029c2:	e004      	b.n	80029ce <HAL_RCC_OscConfig+0x62>
 80029c4:	4a89      	ldr	r2, [pc, #548]	; (8002bec <HAL_RCC_OscConfig+0x280>)
 80029c6:	6813      	ldr	r3, [r2, #0]
 80029c8:	f443 3380 	orr.w	r3, r3, #65536	; 0x10000
 80029cc:	6013      	str	r3, [r2, #0]
 80029ce:	f7fe ffc9 	bl	8001964 <HAL_GetTick>
 80029d2:	4e86      	ldr	r6, [pc, #536]	; (8002bec <HAL_RCC_OscConfig+0x280>)
 80029d4:	4605      	mov	r5, r0
 80029d6:	e005      	b.n	80029e4 <HAL_RCC_OscConfig+0x78>
 80029d8:	f7fe ffc4 	bl	8001964 <HAL_GetTick>
 80029dc:	1b40      	subs	r0, r0, r5
 80029de:	2864      	cmp	r0, #100	; 0x64
 80029e0:	f200 80ea 	bhi.w	8002bb8 <HAL_RCC_OscConfig+0x24c>
 80029e4:	6833      	ldr	r3, [r6, #0]
 80029e6:	039a      	lsls	r2, r3, #14
 80029e8:	d5f6      	bpl.n	80029d8 <HAL_RCC_OscConfig+0x6c>
 80029ea:	6823      	ldr	r3, [r4, #0]
 80029ec:	079f      	lsls	r7, r3, #30
 80029ee:	d528      	bpl.n	8002a42 <HAL_RCC_OscConfig+0xd6>
 80029f0:	4a7e      	ldr	r2, [pc, #504]	; (8002bec <HAL_RCC_OscConfig+0x280>)
 80029f2:	6851      	ldr	r1, [r2, #4]
 80029f4:	f011 0f0c 	tst.w	r1, #12
 80029f8:	f000 808d 	beq.w	8002b16 <HAL_RCC_OscConfig+0x1aa>
 80029fc:	6851      	ldr	r1, [r2, #4]
 80029fe:	f001 010c 	and.w	r1, r1, #12
 8002a02:	2908      	cmp	r1, #8
 8002a04:	f000 8083 	beq.w	8002b0e <HAL_RCC_OscConfig+0x1a2>
 8002a08:	6923      	ldr	r3, [r4, #16]
 8002a0a:	2b00      	cmp	r3, #0
 8002a0c:	f000 8118 	beq.w	8002c40 <HAL_RCC_OscConfig+0x2d4>
 8002a10:	2201      	movs	r2, #1
 8002a12:	4b77      	ldr	r3, [pc, #476]	; (8002bf0 <HAL_RCC_OscConfig+0x284>)
 8002a14:	4e75      	ldr	r6, [pc, #468]	; (8002bec <HAL_RCC_OscConfig+0x280>)
 8002a16:	601a      	str	r2, [r3, #0]
 8002a18:	f7fe ffa4 	bl	8001964 <HAL_GetTick>
 8002a1c:	4605      	mov	r5, r0
 8002a1e:	e005      	b.n	8002a2c <HAL_RCC_OscConfig+0xc0>
 8002a20:	f7fe ffa0 	bl	8001964 <HAL_GetTick>
 8002a24:	1b40      	subs	r0, r0, r5
 8002a26:	2802      	cmp	r0, #2
 8002a28:	f200 80c6 	bhi.w	8002bb8 <HAL_RCC_OscConfig+0x24c>
 8002a2c:	6833      	ldr	r3, [r6, #0]
 8002a2e:	0798      	lsls	r0, r3, #30
 8002a30:	d5f6      	bpl.n	8002a20 <HAL_RCC_OscConfig+0xb4>
 8002a32:	6833      	ldr	r3, [r6, #0]
 8002a34:	6962      	ldr	r2, [r4, #20]
 8002a36:	f023 03f8 	bic.w	r3, r3, #248	; 0xf8
 8002a3a:	ea43 03c2 	orr.w	r3, r3, r2, lsl #3
 8002a3e:	6033      	str	r3, [r6, #0]
 8002a40:	6823      	ldr	r3, [r4, #0]
 8002a42:	071a      	lsls	r2, r3, #28
 8002a44:	d41f      	bmi.n	8002a86 <HAL_RCC_OscConfig+0x11a>
 8002a46:	075d      	lsls	r5, r3, #29
 8002a48:	d542      	bpl.n	8002ad0 <HAL_RCC_OscConfig+0x164>
 8002a4a:	4b68      	ldr	r3, [pc, #416]	; (8002bec <HAL_RCC_OscConfig+0x280>)
 8002a4c:	69da      	ldr	r2, [r3, #28]
 8002a4e:	00d0      	lsls	r0, r2, #3
 8002a50:	d57d      	bpl.n	8002b4e <HAL_RCC_OscConfig+0x1e2>
 8002a52:	2500      	movs	r5, #0
 8002a54:	4e67      	ldr	r6, [pc, #412]	; (8002bf4 <HAL_RCC_OscConfig+0x288>)
 8002a56:	6833      	ldr	r3, [r6, #0]
 8002a58:	05d9      	lsls	r1, r3, #23
 8002a5a:	f140 809d 	bpl.w	8002b98 <HAL_RCC_OscConfig+0x22c>
 8002a5e:	68e3      	ldr	r3, [r4, #12]
 8002a60:	2b01      	cmp	r3, #1
 8002a62:	f000 80fe 	beq.w	8002c62 <HAL_RCC_OscConfig+0x2f6>
 8002a66:	2b00      	cmp	r3, #0
 8002a68:	f000 80ca 	beq.w	8002c00 <HAL_RCC_OscConfig+0x294>
 8002a6c:	2b05      	cmp	r3, #5
 8002a6e:	4b5f      	ldr	r3, [pc, #380]	; (8002bec <HAL_RCC_OscConfig+0x280>)
 8002a70:	6a1a      	ldr	r2, [r3, #32]
 8002a72:	f000 812c 	beq.w	8002cce <HAL_RCC_OscConfig+0x362>
 8002a76:	f022 0201 	bic.w	r2, r2, #1
 8002a7a:	621a      	str	r2, [r3, #32]
 8002a7c:	6a1a      	ldr	r2, [r3, #32]
 8002a7e:	f022 0204 	bic.w	r2, r2, #4
 8002a82:	621a      	str	r2, [r3, #32]
 8002a84:	e0f2      	b.n	8002c6c <HAL_RCC_OscConfig+0x300>
 8002a86:	69a3      	ldr	r3, [r4, #24]
 8002a88:	2b00      	cmp	r3, #0
 8002a8a:	d04f      	beq.n	8002b2c <HAL_RCC_OscConfig+0x1c0>
 8002a8c:	2201      	movs	r2, #1
 8002a8e:	4b58      	ldr	r3, [pc, #352]	; (8002bf0 <HAL_RCC_OscConfig+0x284>)
 8002a90:	4e56      	ldr	r6, [pc, #344]	; (8002bec <HAL_RCC_OscConfig+0x280>)
 8002a92:	f8c3 2480 	str.w	r2, [r3, #1152]	; 0x480
 8002a96:	f7fe ff65 	bl	8001964 <HAL_GetTick>
 8002a9a:	4605      	mov	r5, r0
 8002a9c:	e005      	b.n	8002aaa <HAL_RCC_OscConfig+0x13e>
 8002a9e:	f7fe ff61 	bl	8001964 <HAL_GetTick>
 8002aa2:	1b40      	subs	r0, r0, r5
 8002aa4:	2802      	cmp	r0, #2
 8002aa6:	f200 8087 	bhi.w	8002bb8 <HAL_RCC_OscConfig+0x24c>
 8002aaa:	6a73      	ldr	r3, [r6, #36]	; 0x24
 8002aac:	079b      	lsls	r3, r3, #30
 8002aae:	d5f6      	bpl.n	8002a9e <HAL_RCC_OscConfig+0x132>
 8002ab0:	4b51      	ldr	r3, [pc, #324]	; (8002bf8 <HAL_RCC_OscConfig+0x28c>)
 8002ab2:	4a52      	ldr	r2, [pc, #328]	; (8002bfc <HAL_RCC_OscConfig+0x290>)
 8002ab4:	681b      	ldr	r3, [r3, #0]
 8002ab6:	fba2 2303 	umull	r2, r3, r2, r3
 8002aba:	0a5b      	lsrs	r3, r3, #9
 8002abc:	9301      	str	r3, [sp, #4]
 8002abe:	bf00      	nop
 8002ac0:	9b01      	ldr	r3, [sp, #4]
 8002ac2:	1e5a      	subs	r2, r3, #1
 8002ac4:	9201      	str	r2, [sp, #4]
 8002ac6:	2b00      	cmp	r3, #0
 8002ac8:	d1f9      	bne.n	8002abe <HAL_RCC_OscConfig+0x152>
 8002aca:	6823      	ldr	r3, [r4, #0]
 8002acc:	075d      	lsls	r5, r3, #29
 8002ace:	d4bc      	bmi.n	8002a4a <HAL_RCC_OscConfig+0xde>
 8002ad0:	69e0      	ldr	r0, [r4, #28]
 8002ad2:	b1c0      	cbz	r0, 8002b06 <HAL_RCC_OscConfig+0x19a>
 8002ad4:	4d45      	ldr	r5, [pc, #276]	; (8002bec <HAL_RCC_OscConfig+0x280>)
 8002ad6:	686b      	ldr	r3, [r5, #4]
 8002ad8:	f003 030c 	and.w	r3, r3, #12
 8002adc:	2b08      	cmp	r3, #8
 8002ade:	f000 80d8 	beq.w	8002c92 <HAL_RCC_OscConfig+0x326>
 8002ae2:	2200      	movs	r2, #0
 8002ae4:	4b42      	ldr	r3, [pc, #264]	; (8002bf0 <HAL_RCC_OscConfig+0x284>)
 8002ae6:	2802      	cmp	r0, #2
 8002ae8:	661a      	str	r2, [r3, #96]	; 0x60
 8002aea:	f000 80fa 	beq.w	8002ce2 <HAL_RCC_OscConfig+0x376>
 8002aee:	f7fe ff39 	bl	8001964 <HAL_GetTick>
 8002af2:	4604      	mov	r4, r0
 8002af4:	e004      	b.n	8002b00 <HAL_RCC_OscConfig+0x194>
 8002af6:	f7fe ff35 	bl	8001964 <HAL_GetTick>
 8002afa:	1b00      	subs	r0, r0, r4
 8002afc:	2802      	cmp	r0, #2
 8002afe:	d85b      	bhi.n	8002bb8 <HAL_RCC_OscConfig+0x24c>
 8002b00:	682b      	ldr	r3, [r5, #0]
 8002b02:	019b      	lsls	r3, r3, #6
 8002b04:	d4f7      	bmi.n	8002af6 <HAL_RCC_OscConfig+0x18a>
 8002b06:	2000      	movs	r0, #0
 8002b08:	b002      	add	sp, #8
 8002b0a:	e8bd 81f0 	ldmia.w	sp!, {r4, r5, r6, r7, r8, pc}
 8002b0e:	6852      	ldr	r2, [r2, #4]
 8002b10:	03d6      	lsls	r6, r2, #15
 8002b12:	f53f af79 	bmi.w	8002a08 <HAL_RCC_OscConfig+0x9c>
 8002b16:	4a35      	ldr	r2, [pc, #212]	; (8002bec <HAL_RCC_OscConfig+0x280>)
 8002b18:	6812      	ldr	r2, [r2, #0]
 8002b1a:	0795      	lsls	r5, r2, #30
 8002b1c:	d530      	bpl.n	8002b80 <HAL_RCC_OscConfig+0x214>
 8002b1e:	6922      	ldr	r2, [r4, #16]
 8002b20:	2a01      	cmp	r2, #1
 8002b22:	d02d      	beq.n	8002b80 <HAL_RCC_OscConfig+0x214>
 8002b24:	2001      	movs	r0, #1
 8002b26:	b002      	add	sp, #8
 8002b28:	e8bd 81f0 	ldmia.w	sp!, {r4, r5, r6, r7, r8, pc}
 8002b2c:	4a30      	ldr	r2, [pc, #192]	; (8002bf0 <HAL_RCC_OscConfig+0x284>)
 8002b2e:	4e2f      	ldr	r6, [pc, #188]	; (8002bec <HAL_RCC_OscConfig+0x280>)
 8002b30:	f8c2 3480 	str.w	r3, [r2, #1152]	; 0x480
 8002b34:	f7fe ff16 	bl	8001964 <HAL_GetTick>
 8002b38:	4605      	mov	r5, r0
 8002b3a:	e004      	b.n	8002b46 <HAL_RCC_OscConfig+0x1da>
 8002b3c:	f7fe ff12 	bl	8001964 <HAL_GetTick>
 8002b40:	1b40      	subs	r0, r0, r5
 8002b42:	2802      	cmp	r0, #2
 8002b44:	d838      	bhi.n	8002bb8 <HAL_RCC_OscConfig+0x24c>
 8002b46:	6a73      	ldr	r3, [r6, #36]	; 0x24
 8002b48:	079f      	lsls	r7, r3, #30
 8002b4a:	d4f7      	bmi.n	8002b3c <HAL_RCC_OscConfig+0x1d0>
 8002b4c:	e7bd      	b.n	8002aca <HAL_RCC_OscConfig+0x15e>
 8002b4e:	69da      	ldr	r2, [r3, #28]
 8002b50:	2501      	movs	r5, #1
 8002b52:	f042 5280 	orr.w	r2, r2, #268435456	; 0x10000000
 8002b56:	61da      	str	r2, [r3, #28]
 8002b58:	69db      	ldr	r3, [r3, #28]
 8002b5a:	f003 5380 	and.w	r3, r3, #268435456	; 0x10000000
 8002b5e:	9300      	str	r3, [sp, #0]
 8002b60:	9b00      	ldr	r3, [sp, #0]
 8002b62:	e777      	b.n	8002a54 <HAL_RCC_OscConfig+0xe8>
 8002b64:	684a      	ldr	r2, [r1, #4]
 8002b66:	03d0      	lsls	r0, r2, #15
 8002b68:	f57f af17 	bpl.w	800299a <HAL_RCC_OscConfig+0x2e>
 8002b6c:	4a1f      	ldr	r2, [pc, #124]	; (8002bec <HAL_RCC_OscConfig+0x280>)
 8002b6e:	6812      	ldr	r2, [r2, #0]
 8002b70:	0391      	lsls	r1, r2, #14
 8002b72:	f57f af3b 	bpl.w	80029ec <HAL_RCC_OscConfig+0x80>
 8002b76:	6862      	ldr	r2, [r4, #4]
 8002b78:	2a00      	cmp	r2, #0
 8002b7a:	f47f af37 	bne.w	80029ec <HAL_RCC_OscConfig+0x80>
 8002b7e:	e7d1      	b.n	8002b24 <HAL_RCC_OscConfig+0x1b8>
 8002b80:	491a      	ldr	r1, [pc, #104]	; (8002bec <HAL_RCC_OscConfig+0x280>)
 8002b82:	6960      	ldr	r0, [r4, #20]
 8002b84:	680a      	ldr	r2, [r1, #0]
 8002b86:	f022 02f8 	bic.w	r2, r2, #248	; 0xf8
 8002b8a:	ea42 02c0 	orr.w	r2, r2, r0, lsl #3
 8002b8e:	600a      	str	r2, [r1, #0]
 8002b90:	071a      	lsls	r2, r3, #28
 8002b92:	f57f af58 	bpl.w	8002a46 <HAL_RCC_OscConfig+0xda>
 8002b96:	e776      	b.n	8002a86 <HAL_RCC_OscConfig+0x11a>
 8002b98:	6833      	ldr	r3, [r6, #0]
 8002b9a:	f443 7380 	orr.w	r3, r3, #256	; 0x100
 8002b9e:	6033      	str	r3, [r6, #0]
 8002ba0:	f7fe fee0 	bl	8001964 <HAL_GetTick>
 8002ba4:	4607      	mov	r7, r0
 8002ba6:	6833      	ldr	r3, [r6, #0]
 8002ba8:	05da      	lsls	r2, r3, #23
 8002baa:	f53f af58 	bmi.w	8002a5e <HAL_RCC_OscConfig+0xf2>
 8002bae:	f7fe fed9 	bl	8001964 <HAL_GetTick>
 8002bb2:	1bc0      	subs	r0, r0, r7
 8002bb4:	2864      	cmp	r0, #100	; 0x64
 8002bb6:	d9f6      	bls.n	8002ba6 <HAL_RCC_OscConfig+0x23a>
 8002bb8:	2003      	movs	r0, #3
 8002bba:	b002      	add	sp, #8
 8002bbc:	e8bd 81f0 	ldmia.w	sp!, {r4, r5, r6, r7, r8, pc}
 8002bc0:	4d0a      	ldr	r5, [pc, #40]	; (8002bec <HAL_RCC_OscConfig+0x280>)
 8002bc2:	682b      	ldr	r3, [r5, #0]
 8002bc4:	f423 3380 	bic.w	r3, r3, #65536	; 0x10000
 8002bc8:	602b      	str	r3, [r5, #0]
 8002bca:	682b      	ldr	r3, [r5, #0]
 8002bcc:	f423 2380 	bic.w	r3, r3, #262144	; 0x40000
 8002bd0:	602b      	str	r3, [r5, #0]
 8002bd2:	f7fe fec7 	bl	8001964 <HAL_GetTick>
 8002bd6:	4606      	mov	r6, r0
 8002bd8:	e004      	b.n	8002be4 <HAL_RCC_OscConfig+0x278>
 8002bda:	f7fe fec3 	bl	8001964 <HAL_GetTick>
 8002bde:	1b80      	subs	r0, r0, r6
 8002be0:	2864      	cmp	r0, #100	; 0x64
 8002be2:	d8e9      	bhi.n	8002bb8 <HAL_RCC_OscConfig+0x24c>
 8002be4:	682b      	ldr	r3, [r5, #0]
 8002be6:	039b      	lsls	r3, r3, #14
 8002be8:	d4f7      	bmi.n	8002bda <HAL_RCC_OscConfig+0x26e>
 8002bea:	e6fe      	b.n	80029ea <HAL_RCC_OscConfig+0x7e>
 8002bec:	40021000 	.word	0x40021000
 8002bf0:	42420000 	.word	0x42420000
 8002bf4:	40007000 	.word	0x40007000
 8002bf8:	20000000 	.word	0x20000000
 8002bfc:	10624dd3 	.word	0x10624dd3
 8002c00:	4e50      	ldr	r6, [pc, #320]	; (8002d44 <HAL_RCC_OscConfig+0x3d8>)
 8002c02:	f241 3888 	movw	r8, #5000	; 0x1388
 8002c06:	6a33      	ldr	r3, [r6, #32]
 8002c08:	f023 0301 	bic.w	r3, r3, #1
 8002c0c:	6233      	str	r3, [r6, #32]
 8002c0e:	6a33      	ldr	r3, [r6, #32]
 8002c10:	f023 0304 	bic.w	r3, r3, #4
 8002c14:	6233      	str	r3, [r6, #32]
 8002c16:	f7fe fea5 	bl	8001964 <HAL_GetTick>
 8002c1a:	4607      	mov	r7, r0
 8002c1c:	e004      	b.n	8002c28 <HAL_RCC_OscConfig+0x2bc>
 8002c1e:	f7fe fea1 	bl	8001964 <HAL_GetTick>
 8002c22:	1bc0      	subs	r0, r0, r7
 8002c24:	4540      	cmp	r0, r8
 8002c26:	d8c7      	bhi.n	8002bb8 <HAL_RCC_OscConfig+0x24c>
 8002c28:	6a33      	ldr	r3, [r6, #32]
 8002c2a:	0798      	lsls	r0, r3, #30
 8002c2c:	d4f7      	bmi.n	8002c1e <HAL_RCC_OscConfig+0x2b2>
 8002c2e:	2d00      	cmp	r5, #0
 8002c30:	f43f af4e 	beq.w	8002ad0 <HAL_RCC_OscConfig+0x164>
 8002c34:	4a43      	ldr	r2, [pc, #268]	; (8002d44 <HAL_RCC_OscConfig+0x3d8>)
 8002c36:	69d3      	ldr	r3, [r2, #28]
 8002c38:	f023 5380 	bic.w	r3, r3, #268435456	; 0x10000000
 8002c3c:	61d3      	str	r3, [r2, #28]
 8002c3e:	e747      	b.n	8002ad0 <HAL_RCC_OscConfig+0x164>
 8002c40:	4a41      	ldr	r2, [pc, #260]	; (8002d48 <HAL_RCC_OscConfig+0x3dc>)
 8002c42:	4e40      	ldr	r6, [pc, #256]	; (8002d44 <HAL_RCC_OscConfig+0x3d8>)
 8002c44:	6013      	str	r3, [r2, #0]
 8002c46:	f7fe fe8d 	bl	8001964 <HAL_GetTick>
 8002c4a:	4605      	mov	r5, r0
 8002c4c:	e004      	b.n	8002c58 <HAL_RCC_OscConfig+0x2ec>
 8002c4e:	f7fe fe89 	bl	8001964 <HAL_GetTick>
 8002c52:	1b40      	subs	r0, r0, r5
 8002c54:	2802      	cmp	r0, #2
 8002c56:	d8af      	bhi.n	8002bb8 <HAL_RCC_OscConfig+0x24c>
 8002c58:	6833      	ldr	r3, [r6, #0]
 8002c5a:	0799      	lsls	r1, r3, #30
 8002c5c:	d4f7      	bmi.n	8002c4e <HAL_RCC_OscConfig+0x2e2>
 8002c5e:	6823      	ldr	r3, [r4, #0]
 8002c60:	e6ef      	b.n	8002a42 <HAL_RCC_OscConfig+0xd6>
 8002c62:	4a38      	ldr	r2, [pc, #224]	; (8002d44 <HAL_RCC_OscConfig+0x3d8>)
 8002c64:	6a13      	ldr	r3, [r2, #32]
 8002c66:	f043 0301 	orr.w	r3, r3, #1
 8002c6a:	6213      	str	r3, [r2, #32]
 8002c6c:	f7fe fe7a 	bl	8001964 <HAL_GetTick>
 8002c70:	f241 3888 	movw	r8, #5000	; 0x1388
 8002c74:	4606      	mov	r6, r0
 8002c76:	4f33      	ldr	r7, [pc, #204]	; (8002d44 <HAL_RCC_OscConfig+0x3d8>)
 8002c78:	e004      	b.n	8002c84 <HAL_RCC_OscConfig+0x318>
 8002c7a:	f7fe fe73 	bl	8001964 <HAL_GetTick>
 8002c7e:	1b80      	subs	r0, r0, r6
 8002c80:	4540      	cmp	r0, r8
 8002c82:	d899      	bhi.n	8002bb8 <HAL_RCC_OscConfig+0x24c>
 8002c84:	6a3b      	ldr	r3, [r7, #32]
 8002c86:	079b      	lsls	r3, r3, #30
 8002c88:	d5f7      	bpl.n	8002c7a <HAL_RCC_OscConfig+0x30e>
 8002c8a:	2d00      	cmp	r5, #0
 8002c8c:	f43f af20 	beq.w	8002ad0 <HAL_RCC_OscConfig+0x164>
 8002c90:	e7d0      	b.n	8002c34 <HAL_RCC_OscConfig+0x2c8>
 8002c92:	2801      	cmp	r0, #1
 8002c94:	f43f af38 	beq.w	8002b08 <HAL_RCC_OscConfig+0x19c>
 8002c98:	686b      	ldr	r3, [r5, #4]
 8002c9a:	6a22      	ldr	r2, [r4, #32]
 8002c9c:	f403 3180 	and.w	r1, r3, #65536	; 0x10000
 8002ca0:	4291      	cmp	r1, r2
 8002ca2:	f47f af3f 	bne.w	8002b24 <HAL_RCC_OscConfig+0x1b8>
 8002ca6:	6a60      	ldr	r0, [r4, #36]	; 0x24
 8002ca8:	f403 1370 	and.w	r3, r3, #3932160	; 0x3c0000
 8002cac:	1a18      	subs	r0, r3, r0
 8002cae:	bf18      	it	ne
 8002cb0:	2001      	movne	r0, #1
 8002cb2:	e729      	b.n	8002b08 <HAL_RCC_OscConfig+0x19c>
 8002cb4:	f103 4380 	add.w	r3, r3, #1073741824	; 0x40000000
 8002cb8:	f5a3 333c 	sub.w	r3, r3, #192512	; 0x2f000
 8002cbc:	681a      	ldr	r2, [r3, #0]
 8002cbe:	f442 2280 	orr.w	r2, r2, #262144	; 0x40000
 8002cc2:	601a      	str	r2, [r3, #0]
 8002cc4:	681a      	ldr	r2, [r3, #0]
 8002cc6:	f442 3280 	orr.w	r2, r2, #65536	; 0x10000
 8002cca:	601a      	str	r2, [r3, #0]
 8002ccc:	e67f      	b.n	80029ce <HAL_RCC_OscConfig+0x62>
 8002cce:	f042 0204 	orr.w	r2, r2, #4
 8002cd2:	621a      	str	r2, [r3, #32]
 8002cd4:	6a1a      	ldr	r2, [r3, #32]
 8002cd6:	f042 0201 	orr.w	r2, r2, #1
 8002cda:	621a      	str	r2, [r3, #32]
 8002cdc:	e7c6      	b.n	8002c6c <HAL_RCC_OscConfig+0x300>
 8002cde:	2001      	movs	r0, #1
 8002ce0:	4770      	bx	lr
 8002ce2:	f7fe fe3f 	bl	8001964 <HAL_GetTick>
 8002ce6:	4606      	mov	r6, r0
 8002ce8:	e005      	b.n	8002cf6 <HAL_RCC_OscConfig+0x38a>
 8002cea:	f7fe fe3b 	bl	8001964 <HAL_GetTick>
 8002cee:	1b80      	subs	r0, r0, r6
 8002cf0:	2802      	cmp	r0, #2
 8002cf2:	f63f af61 	bhi.w	8002bb8 <HAL_RCC_OscConfig+0x24c>
 8002cf6:	682b      	ldr	r3, [r5, #0]
 8002cf8:	0199      	lsls	r1, r3, #6
 8002cfa:	d4f6      	bmi.n	8002cea <HAL_RCC_OscConfig+0x37e>
 8002cfc:	6a23      	ldr	r3, [r4, #32]
 8002cfe:	f5b3 3f80 	cmp.w	r3, #65536	; 0x10000
 8002d02:	d105      	bne.n	8002d10 <HAL_RCC_OscConfig+0x3a4>
 8002d04:	686a      	ldr	r2, [r5, #4]
 8002d06:	68a1      	ldr	r1, [r4, #8]
 8002d08:	f422 3200 	bic.w	r2, r2, #131072	; 0x20000
 8002d0c:	430a      	orrs	r2, r1
 8002d0e:	606a      	str	r2, [r5, #4]
 8002d10:	2001      	movs	r0, #1
 8002d12:	4d0c      	ldr	r5, [pc, #48]	; (8002d44 <HAL_RCC_OscConfig+0x3d8>)
 8002d14:	6a61      	ldr	r1, [r4, #36]	; 0x24
 8002d16:	686a      	ldr	r2, [r5, #4]
 8002d18:	430b      	orrs	r3, r1
 8002d1a:	f422 1274 	bic.w	r2, r2, #3997696	; 0x3d0000
 8002d1e:	490a      	ldr	r1, [pc, #40]	; (8002d48 <HAL_RCC_OscConfig+0x3dc>)
 8002d20:	4313      	orrs	r3, r2
 8002d22:	606b      	str	r3, [r5, #4]
 8002d24:	6608      	str	r0, [r1, #96]	; 0x60
 8002d26:	f7fe fe1d 	bl	8001964 <HAL_GetTick>
 8002d2a:	4604      	mov	r4, r0
 8002d2c:	e005      	b.n	8002d3a <HAL_RCC_OscConfig+0x3ce>
 8002d2e:	f7fe fe19 	bl	8001964 <HAL_GetTick>
 8002d32:	1b00      	subs	r0, r0, r4
 8002d34:	2802      	cmp	r0, #2
 8002d36:	f63f af3f 	bhi.w	8002bb8 <HAL_RCC_OscConfig+0x24c>
 8002d3a:	682b      	ldr	r3, [r5, #0]
 8002d3c:	019a      	lsls	r2, r3, #6
 8002d3e:	d5f6      	bpl.n	8002d2e <HAL_RCC_OscConfig+0x3c2>
 8002d40:	e6e1      	b.n	8002b06 <HAL_RCC_OscConfig+0x19a>
 8002d42:	bf00      	nop
 8002d44:	40021000 	.word	0x40021000
 8002d48:	42420000 	.word	0x42420000

08002d4c <HAL_RCC_ClockConfig>:
 8002d4c:	2800      	cmp	r0, #0
 8002d4e:	f000 80b1 	beq.w	8002eb4 <HAL_RCC_ClockConfig+0x168>
 8002d52:	4a5e      	ldr	r2, [pc, #376]	; (8002ecc <HAL_RCC_ClockConfig+0x180>)
 8002d54:	e92d 41f0 	stmdb	sp!, {r4, r5, r6, r7, r8, lr}
 8002d58:	6813      	ldr	r3, [r2, #0]
 8002d5a:	4604      	mov	r4, r0
 8002d5c:	f003 0307 	and.w	r3, r3, #7
 8002d60:	428b      	cmp	r3, r1
 8002d62:	460d      	mov	r5, r1
 8002d64:	b086      	sub	sp, #24
 8002d66:	d20d      	bcs.n	8002d84 <HAL_RCC_ClockConfig+0x38>
 8002d68:	6813      	ldr	r3, [r2, #0]
 8002d6a:	f023 0307 	bic.w	r3, r3, #7
 8002d6e:	430b      	orrs	r3, r1
 8002d70:	6013      	str	r3, [r2, #0]
 8002d72:	6813      	ldr	r3, [r2, #0]
 8002d74:	f003 0307 	and.w	r3, r3, #7
 8002d78:	428b      	cmp	r3, r1
 8002d7a:	d003      	beq.n	8002d84 <HAL_RCC_ClockConfig+0x38>
 8002d7c:	2001      	movs	r0, #1
 8002d7e:	b006      	add	sp, #24
 8002d80:	e8bd 81f0 	ldmia.w	sp!, {r4, r5, r6, r7, r8, pc}
 8002d84:	6823      	ldr	r3, [r4, #0]
 8002d86:	079e      	lsls	r6, r3, #30
 8002d88:	d514      	bpl.n	8002db4 <HAL_RCC_ClockConfig+0x68>
 8002d8a:	0758      	lsls	r0, r3, #29
 8002d8c:	d504      	bpl.n	8002d98 <HAL_RCC_ClockConfig+0x4c>
 8002d8e:	4950      	ldr	r1, [pc, #320]	; (8002ed0 <HAL_RCC_ClockConfig+0x184>)
 8002d90:	684a      	ldr	r2, [r1, #4]
 8002d92:	f442 62e0 	orr.w	r2, r2, #1792	; 0x700
 8002d96:	604a      	str	r2, [r1, #4]
 8002d98:	0719      	lsls	r1, r3, #28
 8002d9a:	d504      	bpl.n	8002da6 <HAL_RCC_ClockConfig+0x5a>
 8002d9c:	494c      	ldr	r1, [pc, #304]	; (8002ed0 <HAL_RCC_ClockConfig+0x184>)
 8002d9e:	684a      	ldr	r2, [r1, #4]
 8002da0:	f442 5260 	orr.w	r2, r2, #14336	; 0x3800
 8002da4:	604a      	str	r2, [r1, #4]
 8002da6:	494a      	ldr	r1, [pc, #296]	; (8002ed0 <HAL_RCC_ClockConfig+0x184>)
 8002da8:	68a0      	ldr	r0, [r4, #8]
 8002daa:	684a      	ldr	r2, [r1, #4]
 8002dac:	f022 02f0 	bic.w	r2, r2, #240	; 0xf0
 8002db0:	4302      	orrs	r2, r0
 8002db2:	604a      	str	r2, [r1, #4]
 8002db4:	07da      	lsls	r2, r3, #31
 8002db6:	d520      	bpl.n	8002dfa <HAL_RCC_ClockConfig+0xae>
 8002db8:	6862      	ldr	r2, [r4, #4]
 8002dba:	4b45      	ldr	r3, [pc, #276]	; (8002ed0 <HAL_RCC_ClockConfig+0x184>)
 8002dbc:	2a01      	cmp	r2, #1
 8002dbe:	681b      	ldr	r3, [r3, #0]
 8002dc0:	d07a      	beq.n	8002eb8 <HAL_RCC_ClockConfig+0x16c>
 8002dc2:	2a02      	cmp	r2, #2
 8002dc4:	d073      	beq.n	8002eae <HAL_RCC_ClockConfig+0x162>
 8002dc6:	079e      	lsls	r6, r3, #30
 8002dc8:	d5d8      	bpl.n	8002d7c <HAL_RCC_ClockConfig+0x30>
 8002dca:	4e41      	ldr	r6, [pc, #260]	; (8002ed0 <HAL_RCC_ClockConfig+0x184>)
 8002dcc:	f241 3888 	movw	r8, #5000	; 0x1388
 8002dd0:	6873      	ldr	r3, [r6, #4]
 8002dd2:	f023 0303 	bic.w	r3, r3, #3
 8002dd6:	4313      	orrs	r3, r2
 8002dd8:	6073      	str	r3, [r6, #4]
 8002dda:	f7fe fdc3 	bl	8001964 <HAL_GetTick>
 8002dde:	4607      	mov	r7, r0
 8002de0:	e004      	b.n	8002dec <HAL_RCC_ClockConfig+0xa0>
 8002de2:	f7fe fdbf 	bl	8001964 <HAL_GetTick>
 8002de6:	1bc0      	subs	r0, r0, r7
 8002de8:	4540      	cmp	r0, r8
 8002dea:	d868      	bhi.n	8002ebe <HAL_RCC_ClockConfig+0x172>
 8002dec:	6873      	ldr	r3, [r6, #4]
 8002dee:	6862      	ldr	r2, [r4, #4]
 8002df0:	f003 030c 	and.w	r3, r3, #12
 8002df4:	ebb3 0f82 	cmp.w	r3, r2, lsl #2
 8002df8:	d1f3      	bne.n	8002de2 <HAL_RCC_ClockConfig+0x96>
 8002dfa:	4a34      	ldr	r2, [pc, #208]	; (8002ecc <HAL_RCC_ClockConfig+0x180>)
 8002dfc:	6813      	ldr	r3, [r2, #0]
 8002dfe:	f003 0307 	and.w	r3, r3, #7
 8002e02:	42ab      	cmp	r3, r5
 8002e04:	d909      	bls.n	8002e1a <HAL_RCC_ClockConfig+0xce>
 8002e06:	6813      	ldr	r3, [r2, #0]
 8002e08:	f023 0307 	bic.w	r3, r3, #7
 8002e0c:	432b      	orrs	r3, r5
 8002e0e:	6013      	str	r3, [r2, #0]
 8002e10:	6813      	ldr	r3, [r2, #0]
 8002e12:	f003 0307 	and.w	r3, r3, #7
 8002e16:	42ab      	cmp	r3, r5
 8002e18:	d1b0      	bne.n	8002d7c <HAL_RCC_ClockConfig+0x30>
 8002e1a:	6823      	ldr	r3, [r4, #0]
 8002e1c:	0758      	lsls	r0, r3, #29
 8002e1e:	d506      	bpl.n	8002e2e <HAL_RCC_ClockConfig+0xe2>
 8002e20:	492b      	ldr	r1, [pc, #172]	; (8002ed0 <HAL_RCC_ClockConfig+0x184>)
 8002e22:	68e0      	ldr	r0, [r4, #12]
 8002e24:	684a      	ldr	r2, [r1, #4]
 8002e26:	f422 62e0 	bic.w	r2, r2, #1792	; 0x700
 8002e2a:	4302      	orrs	r2, r0
 8002e2c:	604a      	str	r2, [r1, #4]
 8002e2e:	0719      	lsls	r1, r3, #28
 8002e30:	d507      	bpl.n	8002e42 <HAL_RCC_ClockConfig+0xf6>
 8002e32:	4a27      	ldr	r2, [pc, #156]	; (8002ed0 <HAL_RCC_ClockConfig+0x184>)
 8002e34:	6921      	ldr	r1, [r4, #16]
 8002e36:	6853      	ldr	r3, [r2, #4]
 8002e38:	f423 5360 	bic.w	r3, r3, #14336	; 0x3800
 8002e3c:	ea43 03c1 	orr.w	r3, r3, r1, lsl #3
 8002e40:	6053      	str	r3, [r2, #4]
 8002e42:	f240 2401 	movw	r4, #513	; 0x201
 8002e46:	4b23      	ldr	r3, [pc, #140]	; (8002ed4 <HAL_RCC_ClockConfig+0x188>)
 8002e48:	ad06      	add	r5, sp, #24
 8002e4a:	cb0f      	ldmia	r3, {r0, r1, r2, r3}
 8002e4c:	e905 000f 	stmdb	r5, {r0, r1, r2, r3}
 8002e50:	491f      	ldr	r1, [pc, #124]	; (8002ed0 <HAL_RCC_ClockConfig+0x184>)
 8002e52:	f8ad 4004 	strh.w	r4, [sp, #4]
 8002e56:	684a      	ldr	r2, [r1, #4]
 8002e58:	f002 030c 	and.w	r3, r2, #12
 8002e5c:	2b08      	cmp	r3, #8
 8002e5e:	d011      	beq.n	8002e84 <HAL_RCC_ClockConfig+0x138>
 8002e60:	4b1d      	ldr	r3, [pc, #116]	; (8002ed8 <HAL_RCC_ClockConfig+0x18c>)
 8002e62:	4a1b      	ldr	r2, [pc, #108]	; (8002ed0 <HAL_RCC_ClockConfig+0x184>)
 8002e64:	481d      	ldr	r0, [pc, #116]	; (8002edc <HAL_RCC_ClockConfig+0x190>)
 8002e66:	6852      	ldr	r2, [r2, #4]
 8002e68:	491d      	ldr	r1, [pc, #116]	; (8002ee0 <HAL_RCC_ClockConfig+0x194>)
 8002e6a:	f3c2 1203 	ubfx	r2, r2, #4, #4
 8002e6e:	5c80      	ldrb	r0, [r0, r2]
 8002e70:	4a1c      	ldr	r2, [pc, #112]	; (8002ee4 <HAL_RCC_ClockConfig+0x198>)
 8002e72:	40c3      	lsrs	r3, r0
 8002e74:	6808      	ldr	r0, [r1, #0]
 8002e76:	6013      	str	r3, [r2, #0]
 8002e78:	f7fe fd32 	bl	80018e0 <HAL_InitTick>
 8002e7c:	2000      	movs	r0, #0
 8002e7e:	b006      	add	sp, #24
 8002e80:	e8bd 81f0 	ldmia.w	sp!, {r4, r5, r6, r7, r8, pc}
 8002e84:	f3c2 4383 	ubfx	r3, r2, #18, #4
 8002e88:	3318      	adds	r3, #24
 8002e8a:	446b      	add	r3, sp
 8002e8c:	03d2      	lsls	r2, r2, #15
 8002e8e:	f813 3c10 	ldrb.w	r3, [r3, #-16]
 8002e92:	d516      	bpl.n	8002ec2 <HAL_RCC_ClockConfig+0x176>
 8002e94:	684a      	ldr	r2, [r1, #4]
 8002e96:	4910      	ldr	r1, [pc, #64]	; (8002ed8 <HAL_RCC_ClockConfig+0x18c>)
 8002e98:	f3c2 4240 	ubfx	r2, r2, #17, #1
 8002e9c:	fb01 f303 	mul.w	r3, r1, r3
 8002ea0:	3218      	adds	r2, #24
 8002ea2:	446a      	add	r2, sp
 8002ea4:	f812 2c14 	ldrb.w	r2, [r2, #-20]
 8002ea8:	fbb3 f3f2 	udiv	r3, r3, r2
 8002eac:	e7d9      	b.n	8002e62 <HAL_RCC_ClockConfig+0x116>
 8002eae:	019f      	lsls	r7, r3, #6
 8002eb0:	d48b      	bmi.n	8002dca <HAL_RCC_ClockConfig+0x7e>
 8002eb2:	e763      	b.n	8002d7c <HAL_RCC_ClockConfig+0x30>
 8002eb4:	2001      	movs	r0, #1
 8002eb6:	4770      	bx	lr
 8002eb8:	039b      	lsls	r3, r3, #14
 8002eba:	d486      	bmi.n	8002dca <HAL_RCC_ClockConfig+0x7e>
 8002ebc:	e75e      	b.n	8002d7c <HAL_RCC_ClockConfig+0x30>
 8002ebe:	2003      	movs	r0, #3
 8002ec0:	e75d      	b.n	8002d7e <HAL_RCC_ClockConfig+0x32>
 8002ec2:	4a09      	ldr	r2, [pc, #36]	; (8002ee8 <HAL_RCC_ClockConfig+0x19c>)
 8002ec4:	fb02 f303 	mul.w	r3, r2, r3
 8002ec8:	e7cb      	b.n	8002e62 <HAL_RCC_ClockConfig+0x116>
 8002eca:	bf00      	nop
 8002ecc:	40022000 	.word	0x40022000
 8002ed0:	40021000 	.word	0x40021000
 8002ed4:	080087f8 	.word	0x080087f8
 8002ed8:	007a1200 	.word	0x007a1200
 8002edc:	080087e0 	.word	0x080087e0
 8002ee0:	20000008 	.word	0x20000008
 8002ee4:	20000000 	.word	0x20000000
 8002ee8:	003d0900 	.word	0x003d0900

08002eec <HAL_RCC_GetSysClockFreq>:
 8002eec:	f240 2c01 	movw	ip, #513	; 0x201
 8002ef0:	b500      	push	{lr}
 8002ef2:	4b18      	ldr	r3, [pc, #96]	; (8002f54 <HAL_RCC_GetSysClockFreq+0x68>)
 8002ef4:	b087      	sub	sp, #28
 8002ef6:	f10d 0e18 	add.w	lr, sp, #24
 8002efa:	cb0f      	ldmia	r3, {r0, r1, r2, r3}
 8002efc:	e90e 000f 	stmdb	lr, {r0, r1, r2, r3}
 8002f00:	4a15      	ldr	r2, [pc, #84]	; (8002f58 <HAL_RCC_GetSysClockFreq+0x6c>)
 8002f02:	f8ad c004 	strh.w	ip, [sp, #4]
 8002f06:	6853      	ldr	r3, [r2, #4]
 8002f08:	f003 010c 	and.w	r1, r3, #12
 8002f0c:	2908      	cmp	r1, #8
 8002f0e:	d003      	beq.n	8002f18 <HAL_RCC_GetSysClockFreq+0x2c>
 8002f10:	4812      	ldr	r0, [pc, #72]	; (8002f5c <HAL_RCC_GetSysClockFreq+0x70>)
 8002f12:	b007      	add	sp, #28
 8002f14:	f85d fb04 	ldr.w	pc, [sp], #4
 8002f18:	f3c3 4183 	ubfx	r1, r3, #18, #4
 8002f1c:	3118      	adds	r1, #24
 8002f1e:	4469      	add	r1, sp
 8002f20:	03db      	lsls	r3, r3, #15
 8002f22:	f811 0c10 	ldrb.w	r0, [r1, #-16]
 8002f26:	d50e      	bpl.n	8002f46 <HAL_RCC_GetSysClockFreq+0x5a>
 8002f28:	6853      	ldr	r3, [r2, #4]
 8002f2a:	4a0c      	ldr	r2, [pc, #48]	; (8002f5c <HAL_RCC_GetSysClockFreq+0x70>)
 8002f2c:	f3c3 4340 	ubfx	r3, r3, #17, #1
 8002f30:	fb02 f000 	mul.w	r0, r2, r0
 8002f34:	3318      	adds	r3, #24
 8002f36:	446b      	add	r3, sp
 8002f38:	f813 3c14 	ldrb.w	r3, [r3, #-20]
 8002f3c:	fbb0 f0f3 	udiv	r0, r0, r3
 8002f40:	b007      	add	sp, #28
 8002f42:	f85d fb04 	ldr.w	pc, [sp], #4
 8002f46:	4b06      	ldr	r3, [pc, #24]	; (8002f60 <HAL_RCC_GetSysClockFreq+0x74>)
 8002f48:	fb03 f000 	mul.w	r0, r3, r0
 8002f4c:	b007      	add	sp, #28
 8002f4e:	f85d fb04 	ldr.w	pc, [sp], #4
 8002f52:	bf00      	nop
 8002f54:	080087f8 	.word	0x080087f8
 8002f58:	40021000 	.word	0x40021000
 8002f5c:	007a1200 	.word	0x007a1200
 8002f60:	003d0900 	.word	0x003d0900

08002f64 <HAL_RCC_GetPCLK1Freq>:
 8002f64:	4b04      	ldr	r3, [pc, #16]	; (8002f78 <HAL_RCC_GetPCLK1Freq+0x14>)
 8002f66:	4a05      	ldr	r2, [pc, #20]	; (8002f7c <HAL_RCC_GetPCLK1Freq+0x18>)
 8002f68:	685b      	ldr	r3, [r3, #4]
 8002f6a:	4905      	ldr	r1, [pc, #20]	; (8002f80 <HAL_RCC_GetPCLK1Freq+0x1c>)
 8002f6c:	f3c3 2302 	ubfx	r3, r3, #8, #3
 8002f70:	5ccb      	ldrb	r3, [r1, r3]
 8002f72:	6810      	ldr	r0, [r2, #0]
 8002f74:	40d8      	lsrs	r0, r3
 8002f76:	4770      	bx	lr
 8002f78:	40021000 	.word	0x40021000
 8002f7c:	20000000 	.word	0x20000000
 8002f80:	080087f0 	.word	0x080087f0

08002f84 <HAL_RCC_GetPCLK2Freq>:
 8002f84:	4b04      	ldr	r3, [pc, #16]	; (8002f98 <HAL_RCC_GetPCLK2Freq+0x14>)
 8002f86:	4a05      	ldr	r2, [pc, #20]	; (8002f9c <HAL_RCC_GetPCLK2Freq+0x18>)
 8002f88:	685b      	ldr	r3, [r3, #4]
 8002f8a:	4905      	ldr	r1, [pc, #20]	; (8002fa0 <HAL_RCC_GetPCLK2Freq+0x1c>)
 8002f8c:	f3c3 23c2 	ubfx	r3, r3, #11, #3
 8002f90:	5ccb      	ldrb	r3, [r1, r3]
 8002f92:	6810      	ldr	r0, [r2, #0]
 8002f94:	40d8      	lsrs	r0, r3
 8002f96:	4770      	bx	lr
 8002f98:	40021000 	.word	0x40021000
 8002f9c:	20000000 	.word	0x20000000
 8002fa0:	080087f0 	.word	0x080087f0

08002fa4 <HAL_RCCEx_PeriphCLKConfig>:
 8002fa4:	e92d 41f0 	stmdb	sp!, {r4, r5, r6, r7, r8, lr}
 8002fa8:	4604      	mov	r4, r0
 8002faa:	6800      	ldr	r0, [r0, #0]
 8002fac:	b082      	sub	sp, #8
 8002fae:	07c1      	lsls	r1, r0, #31
 8002fb0:	d52c      	bpl.n	800300c <HAL_RCCEx_PeriphCLKConfig+0x68>
 8002fb2:	4b3a      	ldr	r3, [pc, #232]	; (800309c <HAL_RCCEx_PeriphCLKConfig+0xf8>)
 8002fb4:	69da      	ldr	r2, [r3, #28]
 8002fb6:	00d2      	lsls	r2, r2, #3
 8002fb8:	d53f      	bpl.n	800303a <HAL_RCCEx_PeriphCLKConfig+0x96>
 8002fba:	4d39      	ldr	r5, [pc, #228]	; (80030a0 <HAL_RCCEx_PeriphCLKConfig+0xfc>)
 8002fbc:	2600      	movs	r6, #0
 8002fbe:	682b      	ldr	r3, [r5, #0]
 8002fc0:	05df      	lsls	r7, r3, #23
 8002fc2:	d548      	bpl.n	8003056 <HAL_RCCEx_PeriphCLKConfig+0xb2>
 8002fc4:	4d35      	ldr	r5, [pc, #212]	; (800309c <HAL_RCCEx_PeriphCLKConfig+0xf8>)
 8002fc6:	6a2b      	ldr	r3, [r5, #32]
 8002fc8:	f413 7340 	ands.w	r3, r3, #768	; 0x300
 8002fcc:	d011      	beq.n	8002ff2 <HAL_RCCEx_PeriphCLKConfig+0x4e>
 8002fce:	6861      	ldr	r1, [r4, #4]
 8002fd0:	f401 7240 	and.w	r2, r1, #768	; 0x300
 8002fd4:	429a      	cmp	r2, r3
 8002fd6:	d00d      	beq.n	8002ff4 <HAL_RCCEx_PeriphCLKConfig+0x50>
 8002fd8:	2701      	movs	r7, #1
 8002fda:	2000      	movs	r0, #0
 8002fdc:	6a2b      	ldr	r3, [r5, #32]
 8002fde:	4a31      	ldr	r2, [pc, #196]	; (80030a4 <HAL_RCCEx_PeriphCLKConfig+0x100>)
 8002fe0:	f423 7140 	bic.w	r1, r3, #768	; 0x300
 8002fe4:	f8c2 7440 	str.w	r7, [r2, #1088]	; 0x440
 8002fe8:	f8c2 0440 	str.w	r0, [r2, #1088]	; 0x440
 8002fec:	6229      	str	r1, [r5, #32]
 8002fee:	07d9      	lsls	r1, r3, #31
 8002ff0:	d444      	bmi.n	800307c <HAL_RCCEx_PeriphCLKConfig+0xd8>
 8002ff2:	6861      	ldr	r1, [r4, #4]
 8002ff4:	4a29      	ldr	r2, [pc, #164]	; (800309c <HAL_RCCEx_PeriphCLKConfig+0xf8>)
 8002ff6:	6a13      	ldr	r3, [r2, #32]
 8002ff8:	f423 7340 	bic.w	r3, r3, #768	; 0x300
 8002ffc:	430b      	orrs	r3, r1
 8002ffe:	6213      	str	r3, [r2, #32]
 8003000:	b11e      	cbz	r6, 800300a <HAL_RCCEx_PeriphCLKConfig+0x66>
 8003002:	69d3      	ldr	r3, [r2, #28]
 8003004:	f023 5380 	bic.w	r3, r3, #268435456	; 0x10000000
 8003008:	61d3      	str	r3, [r2, #28]
 800300a:	6820      	ldr	r0, [r4, #0]
 800300c:	0783      	lsls	r3, r0, #30
 800300e:	d506      	bpl.n	800301e <HAL_RCCEx_PeriphCLKConfig+0x7a>
 8003010:	4922      	ldr	r1, [pc, #136]	; (800309c <HAL_RCCEx_PeriphCLKConfig+0xf8>)
 8003012:	68a3      	ldr	r3, [r4, #8]
 8003014:	684a      	ldr	r2, [r1, #4]
 8003016:	f422 4240 	bic.w	r2, r2, #49152	; 0xc000
 800301a:	431a      	orrs	r2, r3
 800301c:	604a      	str	r2, [r1, #4]
 800301e:	f010 0010 	ands.w	r0, r0, #16
 8003022:	d007      	beq.n	8003034 <HAL_RCCEx_PeriphCLKConfig+0x90>
 8003024:	2000      	movs	r0, #0
 8003026:	4a1d      	ldr	r2, [pc, #116]	; (800309c <HAL_RCCEx_PeriphCLKConfig+0xf8>)
 8003028:	68e1      	ldr	r1, [r4, #12]
 800302a:	6853      	ldr	r3, [r2, #4]
 800302c:	f423 0380 	bic.w	r3, r3, #4194304	; 0x400000
 8003030:	430b      	orrs	r3, r1
 8003032:	6053      	str	r3, [r2, #4]
 8003034:	b002      	add	sp, #8
 8003036:	e8bd 81f0 	ldmia.w	sp!, {r4, r5, r6, r7, r8, pc}
 800303a:	69da      	ldr	r2, [r3, #28]
 800303c:	4d18      	ldr	r5, [pc, #96]	; (80030a0 <HAL_RCCEx_PeriphCLKConfig+0xfc>)
 800303e:	f042 5280 	orr.w	r2, r2, #268435456	; 0x10000000
 8003042:	61da      	str	r2, [r3, #28]
 8003044:	69db      	ldr	r3, [r3, #28]
 8003046:	2601      	movs	r6, #1
 8003048:	f003 5380 	and.w	r3, r3, #268435456	; 0x10000000
 800304c:	9301      	str	r3, [sp, #4]
 800304e:	9b01      	ldr	r3, [sp, #4]
 8003050:	682b      	ldr	r3, [r5, #0]
 8003052:	05df      	lsls	r7, r3, #23
 8003054:	d4b6      	bmi.n	8002fc4 <HAL_RCCEx_PeriphCLKConfig+0x20>
 8003056:	682b      	ldr	r3, [r5, #0]
 8003058:	f443 7380 	orr.w	r3, r3, #256	; 0x100
 800305c:	602b      	str	r3, [r5, #0]
 800305e:	f7fe fc81 	bl	8001964 <HAL_GetTick>
 8003062:	4607      	mov	r7, r0
 8003064:	682b      	ldr	r3, [r5, #0]
 8003066:	05d8      	lsls	r0, r3, #23
 8003068:	d4ac      	bmi.n	8002fc4 <HAL_RCCEx_PeriphCLKConfig+0x20>
 800306a:	f7fe fc7b 	bl	8001964 <HAL_GetTick>
 800306e:	1bc3      	subs	r3, r0, r7
 8003070:	2b64      	cmp	r3, #100	; 0x64
 8003072:	d9f7      	bls.n	8003064 <HAL_RCCEx_PeriphCLKConfig+0xc0>
 8003074:	2003      	movs	r0, #3
 8003076:	b002      	add	sp, #8
 8003078:	e8bd 81f0 	ldmia.w	sp!, {r4, r5, r6, r7, r8, pc}
 800307c:	f7fe fc72 	bl	8001964 <HAL_GetTick>
 8003080:	f241 3888 	movw	r8, #5000	; 0x1388
 8003084:	4607      	mov	r7, r0
 8003086:	e004      	b.n	8003092 <HAL_RCCEx_PeriphCLKConfig+0xee>
 8003088:	f7fe fc6c 	bl	8001964 <HAL_GetTick>
 800308c:	1bc0      	subs	r0, r0, r7
 800308e:	4540      	cmp	r0, r8
 8003090:	d8f0      	bhi.n	8003074 <HAL_RCCEx_PeriphCLKConfig+0xd0>
 8003092:	6a2b      	ldr	r3, [r5, #32]
 8003094:	079a      	lsls	r2, r3, #30
 8003096:	d5f7      	bpl.n	8003088 <HAL_RCCEx_PeriphCLKConfig+0xe4>
 8003098:	e7ab      	b.n	8002ff2 <HAL_RCCEx_PeriphCLKConfig+0x4e>
 800309a:	bf00      	nop
 800309c:	40021000 	.word	0x40021000
 80030a0:	40007000 	.word	0x40007000
 80030a4:	42420000 	.word	0x42420000

080030a8 <HAL_RCCEx_GetPeriphCLKFreq>:
 80030a8:	4684      	mov	ip, r0
 80030aa:	b500      	push	{lr}
 80030ac:	4b36      	ldr	r3, [pc, #216]	; (8003188 <HAL_RCCEx_GetPeriphCLKFreq+0xe0>)
 80030ae:	b087      	sub	sp, #28
 80030b0:	f10d 0e18 	add.w	lr, sp, #24
 80030b4:	cb0f      	ldmia	r3, {r0, r1, r2, r3}
 80030b6:	e90e 000f 	stmdb	lr, {r0, r1, r2, r3}
 80030ba:	4660      	mov	r0, ip
 80030bc:	f240 2301 	movw	r3, #513	; 0x201
 80030c0:	2802      	cmp	r0, #2
 80030c2:	f8ad 3004 	strh.w	r3, [sp, #4]
 80030c6:	d007      	beq.n	80030d8 <HAL_RCCEx_GetPeriphCLKFreq+0x30>
 80030c8:	2810      	cmp	r0, #16
 80030ca:	d02a      	beq.n	8003122 <HAL_RCCEx_GetPeriphCLKFreq+0x7a>
 80030cc:	2801      	cmp	r0, #1
 80030ce:	d010      	beq.n	80030f2 <HAL_RCCEx_GetPeriphCLKFreq+0x4a>
 80030d0:	2000      	movs	r0, #0
 80030d2:	b007      	add	sp, #28
 80030d4:	f85d fb04 	ldr.w	pc, [sp], #4
 80030d8:	f7ff ff54 	bl	8002f84 <HAL_RCC_GetPCLK2Freq>
 80030dc:	4b2b      	ldr	r3, [pc, #172]	; (800318c <HAL_RCCEx_GetPeriphCLKFreq+0xe4>)
 80030de:	685b      	ldr	r3, [r3, #4]
 80030e0:	f3c3 3381 	ubfx	r3, r3, #14, #2
 80030e4:	3301      	adds	r3, #1
 80030e6:	005b      	lsls	r3, r3, #1
 80030e8:	fbb0 f0f3 	udiv	r0, r0, r3
 80030ec:	b007      	add	sp, #28
 80030ee:	f85d fb04 	ldr.w	pc, [sp], #4
 80030f2:	f240 3202 	movw	r2, #770	; 0x302
 80030f6:	4925      	ldr	r1, [pc, #148]	; (800318c <HAL_RCCEx_GetPeriphCLKFreq+0xe4>)
 80030f8:	6a0b      	ldr	r3, [r1, #32]
 80030fa:	401a      	ands	r2, r3
 80030fc:	f5b2 7f81 	cmp.w	r2, #258	; 0x102
 8003100:	d033      	beq.n	800316a <HAL_RCCEx_GetPeriphCLKFreq+0xc2>
 8003102:	f403 7340 	and.w	r3, r3, #768	; 0x300
 8003106:	f5b3 7f00 	cmp.w	r3, #512	; 0x200
 800310a:	d031      	beq.n	8003170 <HAL_RCCEx_GetPeriphCLKFreq+0xc8>
 800310c:	f5b3 7f40 	cmp.w	r3, #768	; 0x300
 8003110:	d1de      	bne.n	80030d0 <HAL_RCCEx_GetPeriphCLKFreq+0x28>
 8003112:	f24f 4324 	movw	r3, #62500	; 0xf424
 8003116:	6808      	ldr	r0, [r1, #0]
 8003118:	f410 3000 	ands.w	r0, r0, #131072	; 0x20000
 800311c:	bf18      	it	ne
 800311e:	4618      	movne	r0, r3
 8003120:	e7d7      	b.n	80030d2 <HAL_RCCEx_GetPeriphCLKFreq+0x2a>
 8003122:	4b1a      	ldr	r3, [pc, #104]	; (800318c <HAL_RCCEx_GetPeriphCLKFreq+0xe4>)
 8003124:	685a      	ldr	r2, [r3, #4]
 8003126:	6818      	ldr	r0, [r3, #0]
 8003128:	f010 7080 	ands.w	r0, r0, #16777216	; 0x1000000
 800312c:	d0d1      	beq.n	80030d2 <HAL_RCCEx_GetPeriphCLKFreq+0x2a>
 800312e:	f3c2 4183 	ubfx	r1, r2, #18, #4
 8003132:	3118      	adds	r1, #24
 8003134:	4469      	add	r1, sp
 8003136:	03d2      	lsls	r2, r2, #15
 8003138:	f811 0c10 	ldrb.w	r0, [r1, #-16]
 800313c:	d520      	bpl.n	8003180 <HAL_RCCEx_GetPeriphCLKFreq+0xd8>
 800313e:	685b      	ldr	r3, [r3, #4]
 8003140:	4a13      	ldr	r2, [pc, #76]	; (8003190 <HAL_RCCEx_GetPeriphCLKFreq+0xe8>)
 8003142:	f3c3 4340 	ubfx	r3, r3, #17, #1
 8003146:	3318      	adds	r3, #24
 8003148:	446b      	add	r3, sp
 800314a:	f813 3c14 	ldrb.w	r3, [r3, #-20]
 800314e:	fbb2 f3f3 	udiv	r3, r2, r3
 8003152:	fb03 f000 	mul.w	r0, r3, r0
 8003156:	4b0d      	ldr	r3, [pc, #52]	; (800318c <HAL_RCCEx_GetPeriphCLKFreq+0xe4>)
 8003158:	685b      	ldr	r3, [r3, #4]
 800315a:	025b      	lsls	r3, r3, #9
 800315c:	d4b9      	bmi.n	80030d2 <HAL_RCCEx_GetPeriphCLKFreq+0x2a>
 800315e:	4b0d      	ldr	r3, [pc, #52]	; (8003194 <HAL_RCCEx_GetPeriphCLKFreq+0xec>)
 8003160:	0040      	lsls	r0, r0, #1
 8003162:	fba3 3000 	umull	r3, r0, r3, r0
 8003166:	0840      	lsrs	r0, r0, #1
 8003168:	e7b3      	b.n	80030d2 <HAL_RCCEx_GetPeriphCLKFreq+0x2a>
 800316a:	f44f 4000 	mov.w	r0, #32768	; 0x8000
 800316e:	e7b0      	b.n	80030d2 <HAL_RCCEx_GetPeriphCLKFreq+0x2a>
 8003170:	f649 4340 	movw	r3, #40000	; 0x9c40
 8003174:	6a48      	ldr	r0, [r1, #36]	; 0x24
 8003176:	f010 0002 	ands.w	r0, r0, #2
 800317a:	bf18      	it	ne
 800317c:	4618      	movne	r0, r3
 800317e:	e7a8      	b.n	80030d2 <HAL_RCCEx_GetPeriphCLKFreq+0x2a>
 8003180:	4b05      	ldr	r3, [pc, #20]	; (8003198 <HAL_RCCEx_GetPeriphCLKFreq+0xf0>)
 8003182:	fb03 f000 	mul.w	r0, r3, r0
 8003186:	e7e6      	b.n	8003156 <HAL_RCCEx_GetPeriphCLKFreq+0xae>
 8003188:	080087f8 	.word	0x080087f8
 800318c:	40021000 	.word	0x40021000
 8003190:	007a1200 	.word	0x007a1200
 8003194:	aaaaaaab 	.word	0xaaaaaaab
 8003198:	003d0900 	.word	0x003d0900

0800319c <SPI_WaitFlagStateUntilTimeout.constprop.1>:
 800319c:	e92d 41f0 	stmdb	sp!, {r4, r5, r6, r7, r8, lr}
 80031a0:	461d      	mov	r5, r3
 80031a2:	4616      	mov	r6, r2
 80031a4:	b082      	sub	sp, #8
 80031a6:	460c      	mov	r4, r1
 80031a8:	4607      	mov	r7, r0
 80031aa:	f7fe fbdb 	bl	8001964 <HAL_GetTick>
 80031ae:	4435      	add	r5, r6
 80031b0:	1a2d      	subs	r5, r5, r0
 80031b2:	f7fe fbd7 	bl	8001964 <HAL_GetTick>
 80031b6:	4680      	mov	r8, r0
 80031b8:	4b26      	ldr	r3, [pc, #152]	; (8003254 <SPI_WaitFlagStateUntilTimeout.constprop.1+0xb8>)
 80031ba:	681b      	ldr	r3, [r3, #0]
 80031bc:	f3c3 33cb 	ubfx	r3, r3, #15, #12
 80031c0:	fb05 f303 	mul.w	r3, r5, r3
 80031c4:	9301      	str	r3, [sp, #4]
 80031c6:	1c73      	adds	r3, r6, #1
 80031c8:	6839      	ldr	r1, [r7, #0]
 80031ca:	d107      	bne.n	80031dc <SPI_WaitFlagStateUntilTimeout.constprop.1+0x40>
 80031cc:	688b      	ldr	r3, [r1, #8]
 80031ce:	ea34 0303 	bics.w	r3, r4, r3
 80031d2:	d0fb      	beq.n	80031cc <SPI_WaitFlagStateUntilTimeout.constprop.1+0x30>
 80031d4:	2000      	movs	r0, #0
 80031d6:	b002      	add	sp, #8
 80031d8:	e8bd 81f0 	ldmia.w	sp!, {r4, r5, r6, r7, r8, pc}
 80031dc:	688b      	ldr	r3, [r1, #8]
 80031de:	ea34 0303 	bics.w	r3, r4, r3
 80031e2:	d1f7      	bne.n	80031d4 <SPI_WaitFlagStateUntilTimeout.constprop.1+0x38>
 80031e4:	f7fe fbbe 	bl	8001964 <HAL_GetTick>
 80031e8:	eba0 0308 	sub.w	r3, r0, r8
 80031ec:	42ab      	cmp	r3, r5
 80031ee:	d207      	bcs.n	8003200 <SPI_WaitFlagStateUntilTimeout.constprop.1+0x64>
 80031f0:	9b01      	ldr	r3, [sp, #4]
 80031f2:	2b00      	cmp	r3, #0
 80031f4:	9b01      	ldr	r3, [sp, #4]
 80031f6:	bf08      	it	eq
 80031f8:	2500      	moveq	r5, #0
 80031fa:	3b01      	subs	r3, #1
 80031fc:	9301      	str	r3, [sp, #4]
 80031fe:	e7e2      	b.n	80031c6 <SPI_WaitFlagStateUntilTimeout.constprop.1+0x2a>
 8003200:	e9d7 3100 	ldrd	r3, r1, [r7]
 8003204:	685a      	ldr	r2, [r3, #4]
 8003206:	f5b1 7f82 	cmp.w	r1, #260	; 0x104
 800320a:	f022 02e0 	bic.w	r2, r2, #224	; 0xe0
 800320e:	605a      	str	r2, [r3, #4]
 8003210:	d014      	beq.n	800323c <SPI_WaitFlagStateUntilTimeout.constprop.1+0xa0>
 8003212:	6aba      	ldr	r2, [r7, #40]	; 0x28
 8003214:	f5b2 5f00 	cmp.w	r2, #8192	; 0x2000
 8003218:	d007      	beq.n	800322a <SPI_WaitFlagStateUntilTimeout.constprop.1+0x8e>
 800321a:	2201      	movs	r2, #1
 800321c:	2300      	movs	r3, #0
 800321e:	2003      	movs	r0, #3
 8003220:	f887 2051 	strb.w	r2, [r7, #81]	; 0x51
 8003224:	f887 3050 	strb.w	r3, [r7, #80]	; 0x50
 8003228:	e7d5      	b.n	80031d6 <SPI_WaitFlagStateUntilTimeout.constprop.1+0x3a>
 800322a:	681a      	ldr	r2, [r3, #0]
 800322c:	f422 5200 	bic.w	r2, r2, #8192	; 0x2000
 8003230:	601a      	str	r2, [r3, #0]
 8003232:	681a      	ldr	r2, [r3, #0]
 8003234:	f442 5200 	orr.w	r2, r2, #8192	; 0x2000
 8003238:	601a      	str	r2, [r3, #0]
 800323a:	e7ee      	b.n	800321a <SPI_WaitFlagStateUntilTimeout.constprop.1+0x7e>
 800323c:	68ba      	ldr	r2, [r7, #8]
 800323e:	f5b2 4f00 	cmp.w	r2, #32768	; 0x8000
 8003242:	d002      	beq.n	800324a <SPI_WaitFlagStateUntilTimeout.constprop.1+0xae>
 8003244:	f5b2 6f80 	cmp.w	r2, #1024	; 0x400
 8003248:	d1e3      	bne.n	8003212 <SPI_WaitFlagStateUntilTimeout.constprop.1+0x76>
 800324a:	681a      	ldr	r2, [r3, #0]
 800324c:	f022 0240 	bic.w	r2, r2, #64	; 0x40
 8003250:	601a      	str	r2, [r3, #0]
 8003252:	e7de      	b.n	8003212 <SPI_WaitFlagStateUntilTimeout.constprop.1+0x76>
 8003254:	20000000 	.word	0x20000000

08003258 <SPI_WaitFlagStateUntilTimeout.constprop.0>:
 8003258:	b570      	push	{r4, r5, r6, lr}
 800325a:	460c      	mov	r4, r1
 800325c:	b082      	sub	sp, #8
 800325e:	4606      	mov	r6, r0
 8003260:	f7fe fb80 	bl	8001964 <HAL_GetTick>
 8003264:	3464      	adds	r4, #100	; 0x64
 8003266:	1a24      	subs	r4, r4, r0
 8003268:	f7fe fb7c 	bl	8001964 <HAL_GetTick>
 800326c:	4b27      	ldr	r3, [pc, #156]	; (800330c <SPI_WaitFlagStateUntilTimeout.constprop.0+0xb4>)
 800326e:	6832      	ldr	r2, [r6, #0]
 8003270:	681b      	ldr	r3, [r3, #0]
 8003272:	f3c3 33cb 	ubfx	r3, r3, #15, #12
 8003276:	fb04 f303 	mul.w	r3, r4, r3
 800327a:	9301      	str	r3, [sp, #4]
 800327c:	6893      	ldr	r3, [r2, #8]
 800327e:	061a      	lsls	r2, r3, #24
 8003280:	d527      	bpl.n	80032d2 <SPI_WaitFlagStateUntilTimeout.constprop.0+0x7a>
 8003282:	4605      	mov	r5, r0
 8003284:	e00a      	b.n	800329c <SPI_WaitFlagStateUntilTimeout.constprop.0+0x44>
 8003286:	9a01      	ldr	r2, [sp, #4]
 8003288:	9b01      	ldr	r3, [sp, #4]
 800328a:	6831      	ldr	r1, [r6, #0]
 800328c:	3b01      	subs	r3, #1
 800328e:	9301      	str	r3, [sp, #4]
 8003290:	688b      	ldr	r3, [r1, #8]
 8003292:	2a00      	cmp	r2, #0
 8003294:	bf08      	it	eq
 8003296:	2400      	moveq	r4, #0
 8003298:	061b      	lsls	r3, r3, #24
 800329a:	d51a      	bpl.n	80032d2 <SPI_WaitFlagStateUntilTimeout.constprop.0+0x7a>
 800329c:	f7fe fb62 	bl	8001964 <HAL_GetTick>
 80032a0:	1b43      	subs	r3, r0, r5
 80032a2:	42a3      	cmp	r3, r4
 80032a4:	d3ef      	bcc.n	8003286 <SPI_WaitFlagStateUntilTimeout.constprop.0+0x2e>
 80032a6:	e9d6 3100 	ldrd	r3, r1, [r6]
 80032aa:	685a      	ldr	r2, [r3, #4]
 80032ac:	f5b1 7f82 	cmp.w	r1, #260	; 0x104
 80032b0:	f022 02e0 	bic.w	r2, r2, #224	; 0xe0
 80032b4:	605a      	str	r2, [r3, #4]
 80032b6:	d018      	beq.n	80032ea <SPI_WaitFlagStateUntilTimeout.constprop.0+0x92>
 80032b8:	6ab2      	ldr	r2, [r6, #40]	; 0x28
 80032ba:	f5b2 5f00 	cmp.w	r2, #8192	; 0x2000
 80032be:	d00b      	beq.n	80032d8 <SPI_WaitFlagStateUntilTimeout.constprop.0+0x80>
 80032c0:	2201      	movs	r2, #1
 80032c2:	2300      	movs	r3, #0
 80032c4:	2003      	movs	r0, #3
 80032c6:	f886 2051 	strb.w	r2, [r6, #81]	; 0x51
 80032ca:	f886 3050 	strb.w	r3, [r6, #80]	; 0x50
 80032ce:	b002      	add	sp, #8
 80032d0:	bd70      	pop	{r4, r5, r6, pc}
 80032d2:	2000      	movs	r0, #0
 80032d4:	b002      	add	sp, #8
 80032d6:	bd70      	pop	{r4, r5, r6, pc}
 80032d8:	681a      	ldr	r2, [r3, #0]
 80032da:	f422 5200 	bic.w	r2, r2, #8192	; 0x2000
 80032de:	601a      	str	r2, [r3, #0]
 80032e0:	681a      	ldr	r2, [r3, #0]
 80032e2:	f442 5200 	orr.w	r2, r2, #8192	; 0x2000
 80032e6:	601a      	str	r2, [r3, #0]
 80032e8:	e7ea      	b.n	80032c0 <SPI_WaitFlagStateUntilTimeout.constprop.0+0x68>
 80032ea:	68b2      	ldr	r2, [r6, #8]
 80032ec:	f5b2 4f00 	cmp.w	r2, #32768	; 0x8000
 80032f0:	d002      	beq.n	80032f8 <SPI_WaitFlagStateUntilTimeout.constprop.0+0xa0>
 80032f2:	f5b2 6f80 	cmp.w	r2, #1024	; 0x400
 80032f6:	d1df      	bne.n	80032b8 <SPI_WaitFlagStateUntilTimeout.constprop.0+0x60>
 80032f8:	681a      	ldr	r2, [r3, #0]
 80032fa:	f022 0240 	bic.w	r2, r2, #64	; 0x40
 80032fe:	601a      	str	r2, [r3, #0]
 8003300:	6ab2      	ldr	r2, [r6, #40]	; 0x28
 8003302:	f5b2 5f00 	cmp.w	r2, #8192	; 0x2000
 8003306:	d1db      	bne.n	80032c0 <SPI_WaitFlagStateUntilTimeout.constprop.0+0x68>
 8003308:	e7e6      	b.n	80032d8 <SPI_WaitFlagStateUntilTimeout.constprop.0+0x80>
 800330a:	bf00      	nop
 800330c:	20000000 	.word	0x20000000

08003310 <HAL_SPI_Init>:
 8003310:	2800      	cmp	r0, #0
 8003312:	d058      	beq.n	80033c6 <HAL_SPI_Init+0xb6>
 8003314:	b5f8      	push	{r3, r4, r5, r6, r7, lr}
 8003316:	6a43      	ldr	r3, [r0, #36]	; 0x24
 8003318:	4604      	mov	r4, r0
 800331a:	2b00      	cmp	r3, #0
 800331c:	d044      	beq.n	80033a8 <HAL_SPI_Init+0x98>
 800331e:	2300      	movs	r3, #0
 8003320:	e9c0 3304 	strd	r3, r3, [r0, #16]
 8003324:	2300      	movs	r3, #0
 8003326:	f894 2051 	ldrb.w	r2, [r4, #81]	; 0x51
 800332a:	62a3      	str	r3, [r4, #40]	; 0x28
 800332c:	f002 01ff 	and.w	r1, r2, #255	; 0xff
 8003330:	2a00      	cmp	r2, #0
 8003332:	d03f      	beq.n	80033b4 <HAL_SPI_Init+0xa4>
 8003334:	469c      	mov	ip, r3
 8003336:	e9d4 3201 	ldrd	r3, r2, [r4, #4]
 800333a:	2602      	movs	r6, #2
 800333c:	f04f 0e01 	mov.w	lr, #1
 8003340:	2500      	movs	r5, #0
 8003342:	f402 4204 	and.w	r2, r2, #33792	; 0x8400
 8003346:	f403 7382 	and.w	r3, r3, #260	; 0x104
 800334a:	4313      	orrs	r3, r2
 800334c:	68e2      	ldr	r2, [r4, #12]
 800334e:	69a0      	ldr	r0, [r4, #24]
 8003350:	f402 6200 	and.w	r2, r2, #2048	; 0x800
 8003354:	4313      	orrs	r3, r2
 8003356:	6922      	ldr	r2, [r4, #16]
 8003358:	f884 6051 	strb.w	r6, [r4, #81]	; 0x51
 800335c:	4032      	ands	r2, r6
 800335e:	4313      	orrs	r3, r2
 8003360:	6962      	ldr	r2, [r4, #20]
 8003362:	6821      	ldr	r1, [r4, #0]
 8003364:	ea02 020e 	and.w	r2, r2, lr
 8003368:	431a      	orrs	r2, r3
 800336a:	69e3      	ldr	r3, [r4, #28]
 800336c:	6a26      	ldr	r6, [r4, #32]
 800336e:	f003 0738 	and.w	r7, r3, #56	; 0x38
 8003372:	f400 7300 	and.w	r3, r0, #512	; 0x200
 8003376:	4313      	orrs	r3, r2
 8003378:	f006 0680 	and.w	r6, r6, #128	; 0x80
 800337c:	680a      	ldr	r2, [r1, #0]
 800337e:	433b      	orrs	r3, r7
 8003380:	4333      	orrs	r3, r6
 8003382:	0c00      	lsrs	r0, r0, #16
 8003384:	ea43 030c 	orr.w	r3, r3, ip
 8003388:	f000 0004 	and.w	r0, r0, #4
 800338c:	f022 0240 	bic.w	r2, r2, #64	; 0x40
 8003390:	600a      	str	r2, [r1, #0]
 8003392:	600b      	str	r3, [r1, #0]
 8003394:	6048      	str	r0, [r1, #4]
 8003396:	69cb      	ldr	r3, [r1, #28]
 8003398:	4628      	mov	r0, r5
 800339a:	f423 6300 	bic.w	r3, r3, #2048	; 0x800
 800339e:	61cb      	str	r3, [r1, #28]
 80033a0:	6565      	str	r5, [r4, #84]	; 0x54
 80033a2:	f884 e051 	strb.w	lr, [r4, #81]	; 0x51
 80033a6:	bdf8      	pop	{r3, r4, r5, r6, r7, pc}
 80033a8:	6842      	ldr	r2, [r0, #4]
 80033aa:	f5b2 7f82 	cmp.w	r2, #260	; 0x104
 80033ae:	d0b9      	beq.n	8003324 <HAL_SPI_Init+0x14>
 80033b0:	61c3      	str	r3, [r0, #28]
 80033b2:	e7b7      	b.n	8003324 <HAL_SPI_Init+0x14>
 80033b4:	4620      	mov	r0, r4
 80033b6:	f884 1050 	strb.w	r1, [r4, #80]	; 0x50
 80033ba:	f7fe f86b 	bl	8001494 <HAL_SPI_MspInit>
 80033be:	6aa3      	ldr	r3, [r4, #40]	; 0x28
 80033c0:	f403 5c00 	and.w	ip, r3, #8192	; 0x2000
 80033c4:	e7b7      	b.n	8003336 <HAL_SPI_Init+0x26>
 80033c6:	2001      	movs	r0, #1
 80033c8:	4770      	bx	lr
 80033ca:	bf00      	nop

080033cc <HAL_SPI_Transmit>:
 80033cc:	e92d 41f0 	stmdb	sp!, {r4, r5, r6, r7, r8, lr}
 80033d0:	461d      	mov	r5, r3
 80033d2:	f890 3050 	ldrb.w	r3, [r0, #80]	; 0x50
 80033d6:	b082      	sub	sp, #8
 80033d8:	2b01      	cmp	r3, #1
 80033da:	d074      	beq.n	80034c6 <HAL_SPI_Transmit+0xfa>
 80033dc:	2301      	movs	r3, #1
 80033de:	4604      	mov	r4, r0
 80033e0:	f880 3050 	strb.w	r3, [r0, #80]	; 0x50
 80033e4:	4688      	mov	r8, r1
 80033e6:	4617      	mov	r7, r2
 80033e8:	f7fe fabc 	bl	8001964 <HAL_GetTick>
 80033ec:	f894 3051 	ldrb.w	r3, [r4, #81]	; 0x51
 80033f0:	4606      	mov	r6, r0
 80033f2:	2b01      	cmp	r3, #1
 80033f4:	b2d8      	uxtb	r0, r3
 80033f6:	d009      	beq.n	800340c <HAL_SPI_Transmit+0x40>
 80033f8:	2002      	movs	r0, #2
 80033fa:	2201      	movs	r2, #1
 80033fc:	2300      	movs	r3, #0
 80033fe:	f884 2051 	strb.w	r2, [r4, #81]	; 0x51
 8003402:	f884 3050 	strb.w	r3, [r4, #80]	; 0x50
 8003406:	b002      	add	sp, #8
 8003408:	e8bd 81f0 	ldmia.w	sp!, {r4, r5, r6, r7, r8, pc}
 800340c:	f1b8 0f00 	cmp.w	r8, #0
 8003410:	d0f3      	beq.n	80033fa <HAL_SPI_Transmit+0x2e>
 8003412:	2f00      	cmp	r7, #0
 8003414:	d0f1      	beq.n	80033fa <HAL_SPI_Transmit+0x2e>
 8003416:	2300      	movs	r3, #0
 8003418:	2203      	movs	r2, #3
 800341a:	63a3      	str	r3, [r4, #56]	; 0x38
 800341c:	f884 2051 	strb.w	r2, [r4, #81]	; 0x51
 8003420:	87a3      	strh	r3, [r4, #60]	; 0x3c
 8003422:	6563      	str	r3, [r4, #84]	; 0x54
 8003424:	6463      	str	r3, [r4, #68]	; 0x44
 8003426:	86e7      	strh	r7, [r4, #54]	; 0x36
 8003428:	6423      	str	r3, [r4, #64]	; 0x40
 800342a:	87e3      	strh	r3, [r4, #62]	; 0x3e
 800342c:	68a3      	ldr	r3, [r4, #8]
 800342e:	6820      	ldr	r0, [r4, #0]
 8003430:	f5b3 4f00 	cmp.w	r3, #32768	; 0x8000
 8003434:	4602      	mov	r2, r0
 8003436:	f8c4 8030 	str.w	r8, [r4, #48]	; 0x30
 800343a:	86a7      	strh	r7, [r4, #52]	; 0x34
 800343c:	d076      	beq.n	800352c <HAL_SPI_Transmit+0x160>
 800343e:	6803      	ldr	r3, [r0, #0]
 8003440:	065b      	lsls	r3, r3, #25
 8003442:	d403      	bmi.n	800344c <HAL_SPI_Transmit+0x80>
 8003444:	6803      	ldr	r3, [r0, #0]
 8003446:	f043 0340 	orr.w	r3, r3, #64	; 0x40
 800344a:	6003      	str	r3, [r0, #0]
 800344c:	68e3      	ldr	r3, [r4, #12]
 800344e:	f5b3 6f00 	cmp.w	r3, #2048	; 0x800
 8003452:	6863      	ldr	r3, [r4, #4]
 8003454:	d03b      	beq.n	80034ce <HAL_SPI_Transmit+0x102>
 8003456:	2b00      	cmp	r3, #0
 8003458:	f000 808a 	beq.w	8003570 <HAL_SPI_Transmit+0x1a4>
 800345c:	2f01      	cmp	r7, #1
 800345e:	f000 8087 	beq.w	8003570 <HAL_SPI_Transmit+0x1a4>
 8003462:	8ee3      	ldrh	r3, [r4, #54]	; 0x36
 8003464:	b29b      	uxth	r3, r3
 8003466:	b1bb      	cbz	r3, 8003498 <HAL_SPI_Transmit+0xcc>
 8003468:	2d00      	cmp	r5, #0
 800346a:	f000 80be 	beq.w	80035ea <HAL_SPI_Transmit+0x21e>
 800346e:	1c6f      	adds	r7, r5, #1
 8003470:	d173      	bne.n	800355a <HAL_SPI_Transmit+0x18e>
 8003472:	6823      	ldr	r3, [r4, #0]
 8003474:	689a      	ldr	r2, [r3, #8]
 8003476:	0790      	lsls	r0, r2, #30
 8003478:	f140 8085 	bpl.w	8003586 <HAL_SPI_Transmit+0x1ba>
 800347c:	6b22      	ldr	r2, [r4, #48]	; 0x30
 800347e:	7812      	ldrb	r2, [r2, #0]
 8003480:	731a      	strb	r2, [r3, #12]
 8003482:	8ee1      	ldrh	r1, [r4, #54]	; 0x36
 8003484:	6b23      	ldr	r3, [r4, #48]	; 0x30
 8003486:	3901      	subs	r1, #1
 8003488:	b289      	uxth	r1, r1
 800348a:	86e1      	strh	r1, [r4, #54]	; 0x36
 800348c:	8ee1      	ldrh	r1, [r4, #54]	; 0x36
 800348e:	3301      	adds	r3, #1
 8003490:	b289      	uxth	r1, r1
 8003492:	6323      	str	r3, [r4, #48]	; 0x30
 8003494:	2900      	cmp	r1, #0
 8003496:	d1ec      	bne.n	8003472 <HAL_SPI_Transmit+0xa6>
 8003498:	4633      	mov	r3, r6
 800349a:	462a      	mov	r2, r5
 800349c:	2180      	movs	r1, #128	; 0x80
 800349e:	4620      	mov	r0, r4
 80034a0:	f7ff fe7c 	bl	800319c <SPI_WaitFlagStateUntilTimeout.constprop.1>
 80034a4:	2800      	cmp	r0, #0
 80034a6:	f040 80b9 	bne.w	800361c <HAL_SPI_Transmit+0x250>
 80034aa:	68a3      	ldr	r3, [r4, #8]
 80034ac:	b933      	cbnz	r3, 80034bc <HAL_SPI_Transmit+0xf0>
 80034ae:	6822      	ldr	r2, [r4, #0]
 80034b0:	9301      	str	r3, [sp, #4]
 80034b2:	68d3      	ldr	r3, [r2, #12]
 80034b4:	9301      	str	r3, [sp, #4]
 80034b6:	6893      	ldr	r3, [r2, #8]
 80034b8:	9301      	str	r3, [sp, #4]
 80034ba:	9b01      	ldr	r3, [sp, #4]
 80034bc:	6d60      	ldr	r0, [r4, #84]	; 0x54
 80034be:	3800      	subs	r0, #0
 80034c0:	bf18      	it	ne
 80034c2:	2001      	movne	r0, #1
 80034c4:	e799      	b.n	80033fa <HAL_SPI_Transmit+0x2e>
 80034c6:	2002      	movs	r0, #2
 80034c8:	b002      	add	sp, #8
 80034ca:	e8bd 81f0 	ldmia.w	sp!, {r4, r5, r6, r7, r8, pc}
 80034ce:	2b00      	cmp	r3, #0
 80034d0:	d179      	bne.n	80035c6 <HAL_SPI_Transmit+0x1fa>
 80034d2:	4641      	mov	r1, r8
 80034d4:	f831 3b02 	ldrh.w	r3, [r1], #2
 80034d8:	60c3      	str	r3, [r0, #12]
 80034da:	8ee3      	ldrh	r3, [r4, #54]	; 0x36
 80034dc:	6321      	str	r1, [r4, #48]	; 0x30
 80034de:	3b01      	subs	r3, #1
 80034e0:	b29b      	uxth	r3, r3
 80034e2:	86e3      	strh	r3, [r4, #54]	; 0x36
 80034e4:	8ee3      	ldrh	r3, [r4, #54]	; 0x36
 80034e6:	b29b      	uxth	r3, r3
 80034e8:	2b00      	cmp	r3, #0
 80034ea:	d0d5      	beq.n	8003498 <HAL_SPI_Transmit+0xcc>
 80034ec:	2d00      	cmp	r5, #0
 80034ee:	f000 8091 	beq.w	8003614 <HAL_SPI_Transmit+0x248>
 80034f2:	1c69      	adds	r1, r5, #1
 80034f4:	d15e      	bne.n	80035b4 <HAL_SPI_Transmit+0x1e8>
 80034f6:	6883      	ldr	r3, [r0, #8]
 80034f8:	079a      	lsls	r2, r3, #30
 80034fa:	d50f      	bpl.n	800351c <HAL_SPI_Transmit+0x150>
 80034fc:	6b22      	ldr	r2, [r4, #48]	; 0x30
 80034fe:	f832 3b02 	ldrh.w	r3, [r2], #2
 8003502:	60c3      	str	r3, [r0, #12]
 8003504:	8ee3      	ldrh	r3, [r4, #54]	; 0x36
 8003506:	6322      	str	r2, [r4, #48]	; 0x30
 8003508:	3b01      	subs	r3, #1
 800350a:	b29b      	uxth	r3, r3
 800350c:	86e3      	strh	r3, [r4, #54]	; 0x36
 800350e:	8ee3      	ldrh	r3, [r4, #54]	; 0x36
 8003510:	b29b      	uxth	r3, r3
 8003512:	2b00      	cmp	r3, #0
 8003514:	d0c0      	beq.n	8003498 <HAL_SPI_Transmit+0xcc>
 8003516:	6883      	ldr	r3, [r0, #8]
 8003518:	079a      	lsls	r2, r3, #30
 800351a:	d4ef      	bmi.n	80034fc <HAL_SPI_Transmit+0x130>
 800351c:	f7fe fa22 	bl	8001964 <HAL_GetTick>
 8003520:	8ee3      	ldrh	r3, [r4, #54]	; 0x36
 8003522:	b29b      	uxth	r3, r3
 8003524:	2b00      	cmp	r3, #0
 8003526:	d0b7      	beq.n	8003498 <HAL_SPI_Transmit+0xcc>
 8003528:	6820      	ldr	r0, [r4, #0]
 800352a:	e7e4      	b.n	80034f6 <HAL_SPI_Transmit+0x12a>
 800352c:	6803      	ldr	r3, [r0, #0]
 800352e:	f023 0340 	bic.w	r3, r3, #64	; 0x40
 8003532:	6003      	str	r3, [r0, #0]
 8003534:	6803      	ldr	r3, [r0, #0]
 8003536:	f443 4380 	orr.w	r3, r3, #16384	; 0x4000
 800353a:	6003      	str	r3, [r0, #0]
 800353c:	e77f      	b.n	800343e <HAL_SPI_Transmit+0x72>
 800353e:	6b22      	ldr	r2, [r4, #48]	; 0x30
 8003540:	7812      	ldrb	r2, [r2, #0]
 8003542:	731a      	strb	r2, [r3, #12]
 8003544:	8ee3      	ldrh	r3, [r4, #54]	; 0x36
 8003546:	6b22      	ldr	r2, [r4, #48]	; 0x30
 8003548:	3b01      	subs	r3, #1
 800354a:	3201      	adds	r2, #1
 800354c:	b29b      	uxth	r3, r3
 800354e:	86e3      	strh	r3, [r4, #54]	; 0x36
 8003550:	6322      	str	r2, [r4, #48]	; 0x30
 8003552:	8ee3      	ldrh	r3, [r4, #54]	; 0x36
 8003554:	b29b      	uxth	r3, r3
 8003556:	2b00      	cmp	r3, #0
 8003558:	d09e      	beq.n	8003498 <HAL_SPI_Transmit+0xcc>
 800355a:	6823      	ldr	r3, [r4, #0]
 800355c:	689a      	ldr	r2, [r3, #8]
 800355e:	0791      	lsls	r1, r2, #30
 8003560:	d4ed      	bmi.n	800353e <HAL_SPI_Transmit+0x172>
 8003562:	f7fe f9ff 	bl	8001964 <HAL_GetTick>
 8003566:	1b83      	subs	r3, r0, r6
 8003568:	429d      	cmp	r5, r3
 800356a:	d8f2      	bhi.n	8003552 <HAL_SPI_Transmit+0x186>
 800356c:	2003      	movs	r0, #3
 800356e:	e744      	b.n	80033fa <HAL_SPI_Transmit+0x2e>
 8003570:	f898 3000 	ldrb.w	r3, [r8]
 8003574:	7303      	strb	r3, [r0, #12]
 8003576:	8ee3      	ldrh	r3, [r4, #54]	; 0x36
 8003578:	6b22      	ldr	r2, [r4, #48]	; 0x30
 800357a:	3b01      	subs	r3, #1
 800357c:	3201      	adds	r2, #1
 800357e:	b29b      	uxth	r3, r3
 8003580:	6322      	str	r2, [r4, #48]	; 0x30
 8003582:	86e3      	strh	r3, [r4, #54]	; 0x36
 8003584:	e76d      	b.n	8003462 <HAL_SPI_Transmit+0x96>
 8003586:	f7fe f9ed 	bl	8001964 <HAL_GetTick>
 800358a:	8ee3      	ldrh	r3, [r4, #54]	; 0x36
 800358c:	b29b      	uxth	r3, r3
 800358e:	2b00      	cmp	r3, #0
 8003590:	f47f af6f 	bne.w	8003472 <HAL_SPI_Transmit+0xa6>
 8003594:	e780      	b.n	8003498 <HAL_SPI_Transmit+0xcc>
 8003596:	6b21      	ldr	r1, [r4, #48]	; 0x30
 8003598:	f831 3b02 	ldrh.w	r3, [r1], #2
 800359c:	60d3      	str	r3, [r2, #12]
 800359e:	8ee3      	ldrh	r3, [r4, #54]	; 0x36
 80035a0:	6321      	str	r1, [r4, #48]	; 0x30
 80035a2:	3b01      	subs	r3, #1
 80035a4:	b29b      	uxth	r3, r3
 80035a6:	86e3      	strh	r3, [r4, #54]	; 0x36
 80035a8:	8ee3      	ldrh	r3, [r4, #54]	; 0x36
 80035aa:	b29b      	uxth	r3, r3
 80035ac:	2b00      	cmp	r3, #0
 80035ae:	f43f af73 	beq.w	8003498 <HAL_SPI_Transmit+0xcc>
 80035b2:	6822      	ldr	r2, [r4, #0]
 80035b4:	6893      	ldr	r3, [r2, #8]
 80035b6:	079b      	lsls	r3, r3, #30
 80035b8:	d4ed      	bmi.n	8003596 <HAL_SPI_Transmit+0x1ca>
 80035ba:	f7fe f9d3 	bl	8001964 <HAL_GetTick>
 80035be:	1b83      	subs	r3, r0, r6
 80035c0:	429d      	cmp	r5, r3
 80035c2:	d9d3      	bls.n	800356c <HAL_SPI_Transmit+0x1a0>
 80035c4:	e7f0      	b.n	80035a8 <HAL_SPI_Transmit+0x1dc>
 80035c6:	2f01      	cmp	r7, #1
 80035c8:	d18c      	bne.n	80034e4 <HAL_SPI_Transmit+0x118>
 80035ca:	e782      	b.n	80034d2 <HAL_SPI_Transmit+0x106>
 80035cc:	6b22      	ldr	r2, [r4, #48]	; 0x30
 80035ce:	7812      	ldrb	r2, [r2, #0]
 80035d0:	731a      	strb	r2, [r3, #12]
 80035d2:	8ee3      	ldrh	r3, [r4, #54]	; 0x36
 80035d4:	6b22      	ldr	r2, [r4, #48]	; 0x30
 80035d6:	3b01      	subs	r3, #1
 80035d8:	b29b      	uxth	r3, r3
 80035da:	86e3      	strh	r3, [r4, #54]	; 0x36
 80035dc:	8ee3      	ldrh	r3, [r4, #54]	; 0x36
 80035de:	3201      	adds	r2, #1
 80035e0:	b29b      	uxth	r3, r3
 80035e2:	6322      	str	r2, [r4, #48]	; 0x30
 80035e4:	2b00      	cmp	r3, #0
 80035e6:	f43f af57 	beq.w	8003498 <HAL_SPI_Transmit+0xcc>
 80035ea:	6823      	ldr	r3, [r4, #0]
 80035ec:	689a      	ldr	r2, [r3, #8]
 80035ee:	0792      	lsls	r2, r2, #30
 80035f0:	d4ec      	bmi.n	80035cc <HAL_SPI_Transmit+0x200>
 80035f2:	f7fe f9b7 	bl	8001964 <HAL_GetTick>
 80035f6:	e7b9      	b.n	800356c <HAL_SPI_Transmit+0x1a0>
 80035f8:	6b22      	ldr	r2, [r4, #48]	; 0x30
 80035fa:	f832 3b02 	ldrh.w	r3, [r2], #2
 80035fe:	60c3      	str	r3, [r0, #12]
 8003600:	8ee3      	ldrh	r3, [r4, #54]	; 0x36
 8003602:	6322      	str	r2, [r4, #48]	; 0x30
 8003604:	3b01      	subs	r3, #1
 8003606:	b29b      	uxth	r3, r3
 8003608:	86e3      	strh	r3, [r4, #54]	; 0x36
 800360a:	8ee3      	ldrh	r3, [r4, #54]	; 0x36
 800360c:	b29b      	uxth	r3, r3
 800360e:	2b00      	cmp	r3, #0
 8003610:	f43f af42 	beq.w	8003498 <HAL_SPI_Transmit+0xcc>
 8003614:	6883      	ldr	r3, [r0, #8]
 8003616:	079f      	lsls	r7, r3, #30
 8003618:	d5eb      	bpl.n	80035f2 <HAL_SPI_Transmit+0x226>
 800361a:	e7ed      	b.n	80035f8 <HAL_SPI_Transmit+0x22c>
 800361c:	2220      	movs	r2, #32
 800361e:	6d63      	ldr	r3, [r4, #84]	; 0x54
 8003620:	4313      	orrs	r3, r2
 8003622:	6563      	str	r3, [r4, #84]	; 0x54
 8003624:	6562      	str	r2, [r4, #84]	; 0x54
 8003626:	e740      	b.n	80034aa <HAL_SPI_Transmit+0xde>

08003628 <HAL_SPI_Transmit_DMA>:
 8003628:	b570      	push	{r4, r5, r6, lr}
 800362a:	f890 3050 	ldrb.w	r3, [r0, #80]	; 0x50
 800362e:	2b01      	cmp	r3, #1
 8003630:	d056      	beq.n	80036e0 <HAL_SPI_Transmit_DMA+0xb8>
 8003632:	4604      	mov	r4, r0
 8003634:	2001      	movs	r0, #1
 8003636:	f894 3051 	ldrb.w	r3, [r4, #81]	; 0x51
 800363a:	f884 0050 	strb.w	r0, [r4, #80]	; 0x50
 800363e:	4283      	cmp	r3, r0
 8003640:	b2dd      	uxtb	r5, r3
 8003642:	d005      	beq.n	8003650 <HAL_SPI_Transmit_DMA+0x28>
 8003644:	2502      	movs	r5, #2
 8003646:	2300      	movs	r3, #0
 8003648:	f884 3050 	strb.w	r3, [r4, #80]	; 0x50
 800364c:	4628      	mov	r0, r5
 800364e:	bd70      	pop	{r4, r5, r6, pc}
 8003650:	2900      	cmp	r1, #0
 8003652:	d0f8      	beq.n	8003646 <HAL_SPI_Transmit_DMA+0x1e>
 8003654:	2a00      	cmp	r2, #0
 8003656:	d0f6      	beq.n	8003646 <HAL_SPI_Transmit_DMA+0x1e>
 8003658:	2300      	movs	r3, #0
 800365a:	2603      	movs	r6, #3
 800365c:	68a0      	ldr	r0, [r4, #8]
 800365e:	f884 6051 	strb.w	r6, [r4, #81]	; 0x51
 8003662:	f5b0 4f00 	cmp.w	r0, #32768	; 0x8000
 8003666:	6563      	str	r3, [r4, #84]	; 0x54
 8003668:	86a2      	strh	r2, [r4, #52]	; 0x34
 800366a:	86e2      	strh	r2, [r4, #54]	; 0x36
 800366c:	e9c4 3310 	strd	r3, r3, [r4, #64]	; 0x40
 8003670:	6822      	ldr	r2, [r4, #0]
 8003672:	6321      	str	r1, [r4, #48]	; 0x30
 8003674:	63a3      	str	r3, [r4, #56]	; 0x38
 8003676:	87a3      	strh	r3, [r4, #60]	; 0x3c
 8003678:	87e3      	strh	r3, [r4, #62]	; 0x3e
 800367a:	d028      	beq.n	80036ce <HAL_SPI_Transmit_DMA+0xa6>
 800367c:	2300      	movs	r3, #0
 800367e:	6ca0      	ldr	r0, [r4, #72]	; 0x48
 8003680:	4e19      	ldr	r6, [pc, #100]	; (80036e8 <HAL_SPI_Transmit_DMA+0xc0>)
 8003682:	6343      	str	r3, [r0, #52]	; 0x34
 8003684:	8ee3      	ldrh	r3, [r4, #54]	; 0x36
 8003686:	62c6      	str	r6, [r0, #44]	; 0x2c
 8003688:	4e18      	ldr	r6, [pc, #96]	; (80036ec <HAL_SPI_Transmit_DMA+0xc4>)
 800368a:	320c      	adds	r2, #12
 800368c:	6286      	str	r6, [r0, #40]	; 0x28
 800368e:	4e18      	ldr	r6, [pc, #96]	; (80036f0 <HAL_SPI_Transmit_DMA+0xc8>)
 8003690:	b29b      	uxth	r3, r3
 8003692:	6306      	str	r6, [r0, #48]	; 0x30
 8003694:	f7fe fe48 	bl	8002328 <HAL_DMA_Start_IT>
 8003698:	b988      	cbnz	r0, 80036be <HAL_SPI_Transmit_DMA+0x96>
 800369a:	6823      	ldr	r3, [r4, #0]
 800369c:	681a      	ldr	r2, [r3, #0]
 800369e:	0652      	lsls	r2, r2, #25
 80036a0:	d403      	bmi.n	80036aa <HAL_SPI_Transmit_DMA+0x82>
 80036a2:	681a      	ldr	r2, [r3, #0]
 80036a4:	f042 0240 	orr.w	r2, r2, #64	; 0x40
 80036a8:	601a      	str	r2, [r3, #0]
 80036aa:	685a      	ldr	r2, [r3, #4]
 80036ac:	2500      	movs	r5, #0
 80036ae:	f042 0220 	orr.w	r2, r2, #32
 80036b2:	605a      	str	r2, [r3, #4]
 80036b4:	685a      	ldr	r2, [r3, #4]
 80036b6:	f042 0202 	orr.w	r2, r2, #2
 80036ba:	605a      	str	r2, [r3, #4]
 80036bc:	e7c3      	b.n	8003646 <HAL_SPI_Transmit_DMA+0x1e>
 80036be:	2201      	movs	r2, #1
 80036c0:	6d63      	ldr	r3, [r4, #84]	; 0x54
 80036c2:	f043 0310 	orr.w	r3, r3, #16
 80036c6:	6563      	str	r3, [r4, #84]	; 0x54
 80036c8:	f884 2051 	strb.w	r2, [r4, #81]	; 0x51
 80036cc:	e7bb      	b.n	8003646 <HAL_SPI_Transmit_DMA+0x1e>
 80036ce:	6813      	ldr	r3, [r2, #0]
 80036d0:	f023 0340 	bic.w	r3, r3, #64	; 0x40
 80036d4:	6013      	str	r3, [r2, #0]
 80036d6:	6813      	ldr	r3, [r2, #0]
 80036d8:	f443 4380 	orr.w	r3, r3, #16384	; 0x4000
 80036dc:	6013      	str	r3, [r2, #0]
 80036de:	e7cd      	b.n	800367c <HAL_SPI_Transmit_DMA+0x54>
 80036e0:	2502      	movs	r5, #2
 80036e2:	4628      	mov	r0, r5
 80036e4:	bd70      	pop	{r4, r5, r6, pc}
 80036e6:	bf00      	nop
 80036e8:	080036f9 	.word	0x080036f9
 80036ec:	0800372d 	.word	0x0800372d
 80036f0:	08003709 	.word	0x08003709

080036f4 <HAL_SPI_TxHalfCpltCallback>:
 80036f4:	4770      	bx	lr
 80036f6:	bf00      	nop

080036f8 <SPI_DMAHalfTransmitCplt>:
 80036f8:	b508      	push	{r3, lr}
 80036fa:	6a40      	ldr	r0, [r0, #36]	; 0x24
 80036fc:	f7ff fffa 	bl	80036f4 <HAL_SPI_TxHalfCpltCallback>
 8003700:	bd08      	pop	{r3, pc}
 8003702:	bf00      	nop

08003704 <HAL_SPI_ErrorCallback>:
 8003704:	4770      	bx	lr
 8003706:	bf00      	nop

08003708 <SPI_DMAError>:
 8003708:	2101      	movs	r1, #1
 800370a:	6a40      	ldr	r0, [r0, #36]	; 0x24
 800370c:	b508      	push	{r3, lr}
 800370e:	6802      	ldr	r2, [r0, #0]
 8003710:	6853      	ldr	r3, [r2, #4]
 8003712:	f023 0303 	bic.w	r3, r3, #3
 8003716:	6053      	str	r3, [r2, #4]
 8003718:	6d43      	ldr	r3, [r0, #84]	; 0x54
 800371a:	f043 0310 	orr.w	r3, r3, #16
 800371e:	6543      	str	r3, [r0, #84]	; 0x54
 8003720:	f880 1051 	strb.w	r1, [r0, #81]	; 0x51
 8003724:	f7ff ffee 	bl	8003704 <HAL_SPI_ErrorCallback>
 8003728:	bd08      	pop	{r3, pc}
 800372a:	bf00      	nop

0800372c <SPI_DMATransmitCplt>:
 800372c:	b530      	push	{r4, r5, lr}
 800372e:	4605      	mov	r5, r0
 8003730:	b083      	sub	sp, #12
 8003732:	6a44      	ldr	r4, [r0, #36]	; 0x24
 8003734:	f7fe f916 	bl	8001964 <HAL_GetTick>
 8003738:	682b      	ldr	r3, [r5, #0]
 800373a:	681b      	ldr	r3, [r3, #0]
 800373c:	069b      	lsls	r3, r3, #26
 800373e:	d41d      	bmi.n	800377c <SPI_DMATransmitCplt+0x50>
 8003740:	6823      	ldr	r3, [r4, #0]
 8003742:	4601      	mov	r1, r0
 8003744:	685a      	ldr	r2, [r3, #4]
 8003746:	4620      	mov	r0, r4
 8003748:	f022 0220 	bic.w	r2, r2, #32
 800374c:	605a      	str	r2, [r3, #4]
 800374e:	685a      	ldr	r2, [r3, #4]
 8003750:	f022 0202 	bic.w	r2, r2, #2
 8003754:	605a      	str	r2, [r3, #4]
 8003756:	f7ff fd7f 	bl	8003258 <SPI_WaitFlagStateUntilTimeout.constprop.0>
 800375a:	b9a0      	cbnz	r0, 8003786 <SPI_DMATransmitCplt+0x5a>
 800375c:	68a3      	ldr	r3, [r4, #8]
 800375e:	b933      	cbnz	r3, 800376e <SPI_DMATransmitCplt+0x42>
 8003760:	6822      	ldr	r2, [r4, #0]
 8003762:	9301      	str	r3, [sp, #4]
 8003764:	68d3      	ldr	r3, [r2, #12]
 8003766:	9301      	str	r3, [sp, #4]
 8003768:	6893      	ldr	r3, [r2, #8]
 800376a:	9301      	str	r3, [sp, #4]
 800376c:	9b01      	ldr	r3, [sp, #4]
 800376e:	2301      	movs	r3, #1
 8003770:	2200      	movs	r2, #0
 8003772:	86e2      	strh	r2, [r4, #54]	; 0x36
 8003774:	f884 3051 	strb.w	r3, [r4, #81]	; 0x51
 8003778:	6d63      	ldr	r3, [r4, #84]	; 0x54
 800377a:	b983      	cbnz	r3, 800379e <SPI_DMATransmitCplt+0x72>
 800377c:	4620      	mov	r0, r4
 800377e:	f001 f83f 	bl	8004800 <HAL_SPI_TxCpltCallback>
 8003782:	b003      	add	sp, #12
 8003784:	bd30      	pop	{r4, r5, pc}
 8003786:	6d63      	ldr	r3, [r4, #84]	; 0x54
 8003788:	f043 0320 	orr.w	r3, r3, #32
 800378c:	6563      	str	r3, [r4, #84]	; 0x54
 800378e:	6d63      	ldr	r3, [r4, #84]	; 0x54
 8003790:	f043 0320 	orr.w	r3, r3, #32
 8003794:	6563      	str	r3, [r4, #84]	; 0x54
 8003796:	68a3      	ldr	r3, [r4, #8]
 8003798:	2b00      	cmp	r3, #0
 800379a:	d1e8      	bne.n	800376e <SPI_DMATransmitCplt+0x42>
 800379c:	e7e0      	b.n	8003760 <SPI_DMATransmitCplt+0x34>
 800379e:	4620      	mov	r0, r4
 80037a0:	f7ff ffb0 	bl	8003704 <HAL_SPI_ErrorCallback>
 80037a4:	b003      	add	sp, #12
 80037a6:	bd30      	pop	{r4, r5, pc}

080037a8 <HAL_TIM_Base_Init>:
 80037a8:	2800      	cmp	r0, #0
 80037aa:	d066      	beq.n	800387a <HAL_TIM_Base_Init+0xd2>
 80037ac:	b510      	push	{r4, lr}
 80037ae:	f890 303d 	ldrb.w	r3, [r0, #61]	; 0x3d
 80037b2:	4604      	mov	r4, r0
 80037b4:	f003 02ff 	and.w	r2, r3, #255	; 0xff
 80037b8:	2b00      	cmp	r3, #0
 80037ba:	d045      	beq.n	8003848 <HAL_TIM_Base_Init+0xa0>
 80037bc:	2302      	movs	r3, #2
 80037be:	6822      	ldr	r2, [r4, #0]
 80037c0:	492f      	ldr	r1, [pc, #188]	; (8003880 <HAL_TIM_Base_Init+0xd8>)
 80037c2:	f884 303d 	strb.w	r3, [r4, #61]	; 0x3d
 80037c6:	428a      	cmp	r2, r1
 80037c8:	6813      	ldr	r3, [r2, #0]
 80037ca:	d042      	beq.n	8003852 <HAL_TIM_Base_Init+0xaa>
 80037cc:	f1b2 4f80 	cmp.w	r2, #1073741824	; 0x40000000
 80037d0:	d011      	beq.n	80037f6 <HAL_TIM_Base_Init+0x4e>
 80037d2:	f5a1 3194 	sub.w	r1, r1, #75776	; 0x12800
 80037d6:	428a      	cmp	r2, r1
 80037d8:	d00d      	beq.n	80037f6 <HAL_TIM_Base_Init+0x4e>
 80037da:	f501 6180 	add.w	r1, r1, #1024	; 0x400
 80037de:	428a      	cmp	r2, r1
 80037e0:	d009      	beq.n	80037f6 <HAL_TIM_Base_Init+0x4e>
 80037e2:	69a0      	ldr	r0, [r4, #24]
 80037e4:	f023 0380 	bic.w	r3, r3, #128	; 0x80
 80037e8:	4303      	orrs	r3, r0
 80037ea:	68e1      	ldr	r1, [r4, #12]
 80037ec:	6013      	str	r3, [r2, #0]
 80037ee:	6863      	ldr	r3, [r4, #4]
 80037f0:	62d1      	str	r1, [r2, #44]	; 0x2c
 80037f2:	6293      	str	r3, [r2, #40]	; 0x28
 80037f4:	e010      	b.n	8003818 <HAL_TIM_Base_Init+0x70>
 80037f6:	68a1      	ldr	r1, [r4, #8]
 80037f8:	f023 0370 	bic.w	r3, r3, #112	; 0x70
 80037fc:	6920      	ldr	r0, [r4, #16]
 80037fe:	430b      	orrs	r3, r1
 8003800:	f423 7340 	bic.w	r3, r3, #768	; 0x300
 8003804:	69a1      	ldr	r1, [r4, #24]
 8003806:	4303      	orrs	r3, r0
 8003808:	f023 0380 	bic.w	r3, r3, #128	; 0x80
 800380c:	68e0      	ldr	r0, [r4, #12]
 800380e:	430b      	orrs	r3, r1
 8003810:	6861      	ldr	r1, [r4, #4]
 8003812:	6013      	str	r3, [r2, #0]
 8003814:	62d0      	str	r0, [r2, #44]	; 0x2c
 8003816:	6291      	str	r1, [r2, #40]	; 0x28
 8003818:	2301      	movs	r3, #1
 800381a:	6153      	str	r3, [r2, #20]
 800381c:	f884 3046 	strb.w	r3, [r4, #70]	; 0x46
 8003820:	f884 303e 	strb.w	r3, [r4, #62]	; 0x3e
 8003824:	f884 303f 	strb.w	r3, [r4, #63]	; 0x3f
 8003828:	f884 3040 	strb.w	r3, [r4, #64]	; 0x40
 800382c:	f884 3041 	strb.w	r3, [r4, #65]	; 0x41
 8003830:	f884 3042 	strb.w	r3, [r4, #66]	; 0x42
 8003834:	f884 3043 	strb.w	r3, [r4, #67]	; 0x43
 8003838:	f884 3044 	strb.w	r3, [r4, #68]	; 0x44
 800383c:	f884 3045 	strb.w	r3, [r4, #69]	; 0x45
 8003840:	f884 303d 	strb.w	r3, [r4, #61]	; 0x3d
 8003844:	2000      	movs	r0, #0
 8003846:	bd10      	pop	{r4, pc}
 8003848:	f880 203c 	strb.w	r2, [r0, #60]	; 0x3c
 800384c:	f7fd fe82 	bl	8001554 <HAL_TIM_Base_MspInit>
 8003850:	e7b4      	b.n	80037bc <HAL_TIM_Base_Init+0x14>
 8003852:	68a0      	ldr	r0, [r4, #8]
 8003854:	f023 0370 	bic.w	r3, r3, #112	; 0x70
 8003858:	6921      	ldr	r1, [r4, #16]
 800385a:	4303      	orrs	r3, r0
 800385c:	f423 7340 	bic.w	r3, r3, #768	; 0x300
 8003860:	430b      	orrs	r3, r1
 8003862:	69a1      	ldr	r1, [r4, #24]
 8003864:	f023 0380 	bic.w	r3, r3, #128	; 0x80
 8003868:	430b      	orrs	r3, r1
 800386a:	6013      	str	r3, [r2, #0]
 800386c:	68e3      	ldr	r3, [r4, #12]
 800386e:	62d3      	str	r3, [r2, #44]	; 0x2c
 8003870:	6863      	ldr	r3, [r4, #4]
 8003872:	6293      	str	r3, [r2, #40]	; 0x28
 8003874:	6963      	ldr	r3, [r4, #20]
 8003876:	6313      	str	r3, [r2, #48]	; 0x30
 8003878:	e7ce      	b.n	8003818 <HAL_TIM_Base_Init+0x70>
 800387a:	2001      	movs	r0, #1
 800387c:	4770      	bx	lr
 800387e:	bf00      	nop
 8003880:	40012c00 	.word	0x40012c00

08003884 <HAL_TIM_Base_Start>:
 8003884:	f890 303d 	ldrb.w	r3, [r0, #61]	; 0x3d
 8003888:	2b01      	cmp	r3, #1
 800388a:	d11c      	bne.n	80038c6 <HAL_TIM_Base_Start+0x42>
 800388c:	2102      	movs	r1, #2
 800388e:	6803      	ldr	r3, [r0, #0]
 8003890:	4a0f      	ldr	r2, [pc, #60]	; (80038d0 <HAL_TIM_Base_Start+0x4c>)
 8003892:	f880 103d 	strb.w	r1, [r0, #61]	; 0x3d
 8003896:	4293      	cmp	r3, r2
 8003898:	d00a      	beq.n	80038b0 <HAL_TIM_Base_Start+0x2c>
 800389a:	f1b3 4f80 	cmp.w	r3, #1073741824	; 0x40000000
 800389e:	d007      	beq.n	80038b0 <HAL_TIM_Base_Start+0x2c>
 80038a0:	f5a2 3294 	sub.w	r2, r2, #75776	; 0x12800
 80038a4:	4293      	cmp	r3, r2
 80038a6:	d003      	beq.n	80038b0 <HAL_TIM_Base_Start+0x2c>
 80038a8:	f502 6280 	add.w	r2, r2, #1024	; 0x400
 80038ac:	4293      	cmp	r3, r2
 80038ae:	d104      	bne.n	80038ba <HAL_TIM_Base_Start+0x36>
 80038b0:	689a      	ldr	r2, [r3, #8]
 80038b2:	f002 0207 	and.w	r2, r2, #7
 80038b6:	2a06      	cmp	r2, #6
 80038b8:	d007      	beq.n	80038ca <HAL_TIM_Base_Start+0x46>
 80038ba:	681a      	ldr	r2, [r3, #0]
 80038bc:	2000      	movs	r0, #0
 80038be:	f042 0201 	orr.w	r2, r2, #1
 80038c2:	601a      	str	r2, [r3, #0]
 80038c4:	4770      	bx	lr
 80038c6:	2001      	movs	r0, #1
 80038c8:	4770      	bx	lr
 80038ca:	2000      	movs	r0, #0
 80038cc:	4770      	bx	lr
 80038ce:	bf00      	nop
 80038d0:	40012c00 	.word	0x40012c00

080038d4 <HAL_TIM_PWM_MspInit>:
 80038d4:	4770      	bx	lr
 80038d6:	bf00      	nop

080038d8 <HAL_TIM_PWM_Init>:
 80038d8:	2800      	cmp	r0, #0
 80038da:	d066      	beq.n	80039aa <HAL_TIM_PWM_Init+0xd2>
 80038dc:	b510      	push	{r4, lr}
 80038de:	f890 303d 	ldrb.w	r3, [r0, #61]	; 0x3d
 80038e2:	4604      	mov	r4, r0
 80038e4:	f003 02ff 	and.w	r2, r3, #255	; 0xff
 80038e8:	2b00      	cmp	r3, #0
 80038ea:	d045      	beq.n	8003978 <HAL_TIM_PWM_Init+0xa0>
 80038ec:	2302      	movs	r3, #2
 80038ee:	6822      	ldr	r2, [r4, #0]
 80038f0:	492f      	ldr	r1, [pc, #188]	; (80039b0 <HAL_TIM_PWM_Init+0xd8>)
 80038f2:	f884 303d 	strb.w	r3, [r4, #61]	; 0x3d
 80038f6:	428a      	cmp	r2, r1
 80038f8:	6813      	ldr	r3, [r2, #0]
 80038fa:	d042      	beq.n	8003982 <HAL_TIM_PWM_Init+0xaa>
 80038fc:	f1b2 4f80 	cmp.w	r2, #1073741824	; 0x40000000
 8003900:	d011      	beq.n	8003926 <HAL_TIM_PWM_Init+0x4e>
 8003902:	f5a1 3194 	sub.w	r1, r1, #75776	; 0x12800
 8003906:	428a      	cmp	r2, r1
 8003908:	d00d      	beq.n	8003926 <HAL_TIM_PWM_Init+0x4e>
 800390a:	f501 6180 	add.w	r1, r1, #1024	; 0x400
 800390e:	428a      	cmp	r2, r1
 8003910:	d009      	beq.n	8003926 <HAL_TIM_PWM_Init+0x4e>
 8003912:	69a0      	ldr	r0, [r4, #24]
 8003914:	f023 0380 	bic.w	r3, r3, #128	; 0x80
 8003918:	4303      	orrs	r3, r0
 800391a:	68e1      	ldr	r1, [r4, #12]
 800391c:	6013      	str	r3, [r2, #0]
 800391e:	6863      	ldr	r3, [r4, #4]
 8003920:	62d1      	str	r1, [r2, #44]	; 0x2c
 8003922:	6293      	str	r3, [r2, #40]	; 0x28
 8003924:	e010      	b.n	8003948 <HAL_TIM_PWM_Init+0x70>
 8003926:	68a1      	ldr	r1, [r4, #8]
 8003928:	f023 0370 	bic.w	r3, r3, #112	; 0x70
 800392c:	6920      	ldr	r0, [r4, #16]
 800392e:	430b      	orrs	r3, r1
 8003930:	f423 7340 	bic.w	r3, r3, #768	; 0x300
 8003934:	69a1      	ldr	r1, [r4, #24]
 8003936:	4303      	orrs	r3, r0
 8003938:	f023 0380 	bic.w	r3, r3, #128	; 0x80
 800393c:	68e0      	ldr	r0, [r4, #12]
 800393e:	430b      	orrs	r3, r1
 8003940:	6861      	ldr	r1, [r4, #4]
 8003942:	6013      	str	r3, [r2, #0]
 8003944:	62d0      	str	r0, [r2, #44]	; 0x2c
 8003946:	6291      	str	r1, [r2, #40]	; 0x28
 8003948:	2301      	movs	r3, #1
 800394a:	6153      	str	r3, [r2, #20]
 800394c:	f884 3046 	strb.w	r3, [r4, #70]	; 0x46
 8003950:	f884 303e 	strb.w	r3, [r4, #62]	; 0x3e
 8003954:	f884 303f 	strb.w	r3, [r4, #63]	; 0x3f
 8003958:	f884 3040 	strb.w	r3, [r4, #64]	; 0x40
 800395c:	f884 3041 	strb.w	r3, [r4, #65]	; 0x41
 8003960:	f884 3042 	strb.w	r3, [r4, #66]	; 0x42
 8003964:	f884 3043 	strb.w	r3, [r4, #67]	; 0x43
 8003968:	f884 3044 	strb.w	r3, [r4, #68]	; 0x44
 800396c:	f884 3045 	strb.w	r3, [r4, #69]	; 0x45
 8003970:	f884 303d 	strb.w	r3, [r4, #61]	; 0x3d
 8003974:	2000      	movs	r0, #0
 8003976:	bd10      	pop	{r4, pc}
 8003978:	f880 203c 	strb.w	r2, [r0, #60]	; 0x3c
 800397c:	f7ff ffaa 	bl	80038d4 <HAL_TIM_PWM_MspInit>
 8003980:	e7b4      	b.n	80038ec <HAL_TIM_PWM_Init+0x14>
 8003982:	68a0      	ldr	r0, [r4, #8]
 8003984:	f023 0370 	bic.w	r3, r3, #112	; 0x70
 8003988:	6921      	ldr	r1, [r4, #16]
 800398a:	4303      	orrs	r3, r0
 800398c:	f423 7340 	bic.w	r3, r3, #768	; 0x300
 8003990:	430b      	orrs	r3, r1
 8003992:	69a1      	ldr	r1, [r4, #24]
 8003994:	f023 0380 	bic.w	r3, r3, #128	; 0x80
 8003998:	430b      	orrs	r3, r1
 800399a:	6013      	str	r3, [r2, #0]
 800399c:	68e3      	ldr	r3, [r4, #12]
 800399e:	62d3      	str	r3, [r2, #44]	; 0x2c
 80039a0:	6863      	ldr	r3, [r4, #4]
 80039a2:	6293      	str	r3, [r2, #40]	; 0x28
 80039a4:	6963      	ldr	r3, [r4, #20]
 80039a6:	6313      	str	r3, [r2, #48]	; 0x30
 80039a8:	e7ce      	b.n	8003948 <HAL_TIM_PWM_Init+0x70>
 80039aa:	2001      	movs	r0, #1
 80039ac:	4770      	bx	lr
 80039ae:	bf00      	nop
 80039b0:	40012c00 	.word	0x40012c00

080039b4 <HAL_TIM_PWM_Start>:
 80039b4:	bb41      	cbnz	r1, 8003a08 <HAL_TIM_PWM_Start+0x54>
 80039b6:	f890 303e 	ldrb.w	r3, [r0, #62]	; 0x3e
 80039ba:	2b01      	cmp	r3, #1
 80039bc:	d138      	bne.n	8003a30 <HAL_TIM_PWM_Start+0x7c>
 80039be:	2302      	movs	r3, #2
 80039c0:	f880 303e 	strb.w	r3, [r0, #62]	; 0x3e
 80039c4:	2201      	movs	r2, #1
 80039c6:	6803      	ldr	r3, [r0, #0]
 80039c8:	f001 011f 	and.w	r1, r1, #31
 80039cc:	6a18      	ldr	r0, [r3, #32]
 80039ce:	fa02 f101 	lsl.w	r1, r2, r1
 80039d2:	ea20 0001 	bic.w	r0, r0, r1
 80039d6:	b410      	push	{r4}
 80039d8:	6218      	str	r0, [r3, #32]
 80039da:	6a1a      	ldr	r2, [r3, #32]
 80039dc:	4c21      	ldr	r4, [pc, #132]	; (8003a64 <HAL_TIM_PWM_Start+0xb0>)
 80039de:	4311      	orrs	r1, r2
 80039e0:	42a3      	cmp	r3, r4
 80039e2:	6219      	str	r1, [r3, #32]
 80039e4:	d026      	beq.n	8003a34 <HAL_TIM_PWM_Start+0x80>
 80039e6:	f1b3 4f80 	cmp.w	r3, #1073741824	; 0x40000000
 80039ea:	d027      	beq.n	8003a3c <HAL_TIM_PWM_Start+0x88>
 80039ec:	4a1e      	ldr	r2, [pc, #120]	; (8003a68 <HAL_TIM_PWM_Start+0xb4>)
 80039ee:	4293      	cmp	r3, r2
 80039f0:	d024      	beq.n	8003a3c <HAL_TIM_PWM_Start+0x88>
 80039f2:	f502 6280 	add.w	r2, r2, #1024	; 0x400
 80039f6:	4293      	cmp	r3, r2
 80039f8:	d020      	beq.n	8003a3c <HAL_TIM_PWM_Start+0x88>
 80039fa:	681a      	ldr	r2, [r3, #0]
 80039fc:	2000      	movs	r0, #0
 80039fe:	f042 0201 	orr.w	r2, r2, #1
 8003a02:	bc10      	pop	{r4}
 8003a04:	601a      	str	r2, [r3, #0]
 8003a06:	4770      	bx	lr
 8003a08:	2904      	cmp	r1, #4
 8003a0a:	d01f      	beq.n	8003a4c <HAL_TIM_PWM_Start+0x98>
 8003a0c:	2908      	cmp	r1, #8
 8003a0e:	d00b      	beq.n	8003a28 <HAL_TIM_PWM_Start+0x74>
 8003a10:	f890 3041 	ldrb.w	r3, [r0, #65]	; 0x41
 8003a14:	2b01      	cmp	r3, #1
 8003a16:	d10b      	bne.n	8003a30 <HAL_TIM_PWM_Start+0x7c>
 8003a18:	2904      	cmp	r1, #4
 8003a1a:	d01b      	beq.n	8003a54 <HAL_TIM_PWM_Start+0xa0>
 8003a1c:	2908      	cmp	r1, #8
 8003a1e:	d01d      	beq.n	8003a5c <HAL_TIM_PWM_Start+0xa8>
 8003a20:	2302      	movs	r3, #2
 8003a22:	f880 3041 	strb.w	r3, [r0, #65]	; 0x41
 8003a26:	e7cd      	b.n	80039c4 <HAL_TIM_PWM_Start+0x10>
 8003a28:	f890 3040 	ldrb.w	r3, [r0, #64]	; 0x40
 8003a2c:	2b01      	cmp	r3, #1
 8003a2e:	d015      	beq.n	8003a5c <HAL_TIM_PWM_Start+0xa8>
 8003a30:	2001      	movs	r0, #1
 8003a32:	4770      	bx	lr
 8003a34:	6c5a      	ldr	r2, [r3, #68]	; 0x44
 8003a36:	f442 4200 	orr.w	r2, r2, #32768	; 0x8000
 8003a3a:	645a      	str	r2, [r3, #68]	; 0x44
 8003a3c:	689a      	ldr	r2, [r3, #8]
 8003a3e:	f002 0207 	and.w	r2, r2, #7
 8003a42:	2a06      	cmp	r2, #6
 8003a44:	d1d9      	bne.n	80039fa <HAL_TIM_PWM_Start+0x46>
 8003a46:	2000      	movs	r0, #0
 8003a48:	bc10      	pop	{r4}
 8003a4a:	4770      	bx	lr
 8003a4c:	f890 303f 	ldrb.w	r3, [r0, #63]	; 0x3f
 8003a50:	2b01      	cmp	r3, #1
 8003a52:	d1ed      	bne.n	8003a30 <HAL_TIM_PWM_Start+0x7c>
 8003a54:	2302      	movs	r3, #2
 8003a56:	f880 303f 	strb.w	r3, [r0, #63]	; 0x3f
 8003a5a:	e7b3      	b.n	80039c4 <HAL_TIM_PWM_Start+0x10>
 8003a5c:	2302      	movs	r3, #2
 8003a5e:	f880 3040 	strb.w	r3, [r0, #64]	; 0x40
 8003a62:	e7af      	b.n	80039c4 <HAL_TIM_PWM_Start+0x10>
 8003a64:	40012c00 	.word	0x40012c00
 8003a68:	40000400 	.word	0x40000400

08003a6c <HAL_TIM_PWM_Start_DMA>:
 8003a6c:	b5f8      	push	{r3, r4, r5, r6, r7, lr}
 8003a6e:	460c      	mov	r4, r1
 8003a70:	4605      	mov	r5, r0
 8003a72:	4611      	mov	r1, r2
 8003a74:	2c00      	cmp	r4, #0
 8003a76:	d175      	bne.n	8003b64 <HAL_TIM_PWM_Start_DMA+0xf8>
 8003a78:	f890 203e 	ldrb.w	r2, [r0, #62]	; 0x3e
 8003a7c:	2a02      	cmp	r2, #2
 8003a7e:	b2d0      	uxtb	r0, r2
 8003a80:	d044      	beq.n	8003b0c <HAL_TIM_PWM_Start_DMA+0xa0>
 8003a82:	f895 203e 	ldrb.w	r2, [r5, #62]	; 0x3e
 8003a86:	f1a2 0201 	sub.w	r2, r2, #1
 8003a8a:	fab2 f282 	clz	r2, r2
 8003a8e:	0952      	lsrs	r2, r2, #5
 8003a90:	2a00      	cmp	r2, #0
 8003a92:	d03e      	beq.n	8003b12 <HAL_TIM_PWM_Start_DMA+0xa6>
 8003a94:	2900      	cmp	r1, #0
 8003a96:	d03a      	beq.n	8003b0e <HAL_TIM_PWM_Start_DMA+0xa2>
 8003a98:	2c00      	cmp	r4, #0
 8003a9a:	d13c      	bne.n	8003b16 <HAL_TIM_PWM_Start_DMA+0xaa>
 8003a9c:	2202      	movs	r2, #2
 8003a9e:	f885 203e 	strb.w	r2, [r5, #62]	; 0x3e
 8003aa2:	6a68      	ldr	r0, [r5, #36]	; 0x24
 8003aa4:	4e71      	ldr	r6, [pc, #452]	; (8003c6c <HAL_TIM_PWM_Start_DMA+0x200>)
 8003aa6:	682a      	ldr	r2, [r5, #0]
 8003aa8:	6286      	str	r6, [r0, #40]	; 0x28
 8003aaa:	4e71      	ldr	r6, [pc, #452]	; (8003c70 <HAL_TIM_PWM_Start_DMA+0x204>)
 8003aac:	3234      	adds	r2, #52	; 0x34
 8003aae:	62c6      	str	r6, [r0, #44]	; 0x2c
 8003ab0:	4e70      	ldr	r6, [pc, #448]	; (8003c74 <HAL_TIM_PWM_Start_DMA+0x208>)
 8003ab2:	6306      	str	r6, [r0, #48]	; 0x30
 8003ab4:	f7fe fc38 	bl	8002328 <HAL_DMA_Start_IT>
 8003ab8:	bb58      	cbnz	r0, 8003b12 <HAL_TIM_PWM_Start_DMA+0xa6>
 8003aba:	682a      	ldr	r2, [r5, #0]
 8003abc:	68d3      	ldr	r3, [r2, #12]
 8003abe:	f443 7300 	orr.w	r3, r3, #512	; 0x200
 8003ac2:	60d3      	str	r3, [r2, #12]
 8003ac4:	e000      	b.n	8003ac8 <HAL_TIM_PWM_Start_DMA+0x5c>
 8003ac6:	682a      	ldr	r2, [r5, #0]
 8003ac8:	2301      	movs	r3, #1
 8003aca:	6a10      	ldr	r0, [r2, #32]
 8003acc:	f004 041f 	and.w	r4, r4, #31
 8003ad0:	fa03 f404 	lsl.w	r4, r3, r4
 8003ad4:	ea20 0004 	bic.w	r0, r0, r4
 8003ad8:	6210      	str	r0, [r2, #32]
 8003ada:	6a13      	ldr	r3, [r2, #32]
 8003adc:	4d66      	ldr	r5, [pc, #408]	; (8003c78 <HAL_TIM_PWM_Start_DMA+0x20c>)
 8003ade:	431c      	orrs	r4, r3
 8003ae0:	42aa      	cmp	r2, r5
 8003ae2:	6214      	str	r4, [r2, #32]
 8003ae4:	f000 80a5 	beq.w	8003c32 <HAL_TIM_PWM_Start_DMA+0x1c6>
 8003ae8:	f1b2 4f80 	cmp.w	r2, #1073741824	; 0x40000000
 8003aec:	f000 80a5 	beq.w	8003c3a <HAL_TIM_PWM_Start_DMA+0x1ce>
 8003af0:	4b62      	ldr	r3, [pc, #392]	; (8003c7c <HAL_TIM_PWM_Start_DMA+0x210>)
 8003af2:	429a      	cmp	r2, r3
 8003af4:	f000 80a1 	beq.w	8003c3a <HAL_TIM_PWM_Start_DMA+0x1ce>
 8003af8:	f503 6380 	add.w	r3, r3, #1024	; 0x400
 8003afc:	429a      	cmp	r2, r3
 8003afe:	f000 809c 	beq.w	8003c3a <HAL_TIM_PWM_Start_DMA+0x1ce>
 8003b02:	2000      	movs	r0, #0
 8003b04:	6813      	ldr	r3, [r2, #0]
 8003b06:	f043 0301 	orr.w	r3, r3, #1
 8003b0a:	6013      	str	r3, [r2, #0]
 8003b0c:	bdf8      	pop	{r3, r4, r5, r6, r7, pc}
 8003b0e:	2b00      	cmp	r3, #0
 8003b10:	d0c2      	beq.n	8003a98 <HAL_TIM_PWM_Start_DMA+0x2c>
 8003b12:	2001      	movs	r0, #1
 8003b14:	bdf8      	pop	{r3, r4, r5, r6, r7, pc}
 8003b16:	2c04      	cmp	r4, #4
 8003b18:	d074      	beq.n	8003c04 <HAL_TIM_PWM_Start_DMA+0x198>
 8003b1a:	2c08      	cmp	r4, #8
 8003b1c:	d047      	beq.n	8003bae <HAL_TIM_PWM_Start_DMA+0x142>
 8003b1e:	2202      	movs	r2, #2
 8003b20:	f885 2041 	strb.w	r2, [r5, #65]	; 0x41
 8003b24:	2c0c      	cmp	r4, #12
 8003b26:	d8ce      	bhi.n	8003ac6 <HAL_TIM_PWM_Start_DMA+0x5a>
 8003b28:	a201      	add	r2, pc, #4	; (adr r2, 8003b30 <HAL_TIM_PWM_Start_DMA+0xc4>)
 8003b2a:	f852 f024 	ldr.w	pc, [r2, r4, lsl #2]
 8003b2e:	bf00      	nop
 8003b30:	08003aa3 	.word	0x08003aa3
 8003b34:	08003ac7 	.word	0x08003ac7
 8003b38:	08003ac7 	.word	0x08003ac7
 8003b3c:	08003ac7 	.word	0x08003ac7
 8003b40:	08003c0b 	.word	0x08003c0b
 8003b44:	08003ac7 	.word	0x08003ac7
 8003b48:	08003ac7 	.word	0x08003ac7
 8003b4c:	08003ac7 	.word	0x08003ac7
 8003b50:	08003ac7 	.word	0x08003ac7
 8003b54:	08003ac7 	.word	0x08003ac7
 8003b58:	08003ac7 	.word	0x08003ac7
 8003b5c:	08003ac7 	.word	0x08003ac7
 8003b60:	08003bdf 	.word	0x08003bdf
 8003b64:	2c04      	cmp	r4, #4
 8003b66:	d070      	beq.n	8003c4a <HAL_TIM_PWM_Start_DMA+0x1de>
 8003b68:	2c08      	cmp	r4, #8
 8003b6a:	bf0c      	ite	eq
 8003b6c:	f890 2040 	ldrbeq.w	r2, [r0, #64]	; 0x40
 8003b70:	f890 2041 	ldrbne.w	r2, [r0, #65]	; 0x41
 8003b74:	f1a2 0202 	sub.w	r2, r2, #2
 8003b78:	fab2 f282 	clz	r2, r2
 8003b7c:	0952      	lsrs	r2, r2, #5
 8003b7e:	b97a      	cbnz	r2, 8003ba0 <HAL_TIM_PWM_Start_DMA+0x134>
 8003b80:	2c00      	cmp	r4, #0
 8003b82:	f43f af7e 	beq.w	8003a82 <HAL_TIM_PWM_Start_DMA+0x16>
 8003b86:	2c04      	cmp	r4, #4
 8003b88:	d067      	beq.n	8003c5a <HAL_TIM_PWM_Start_DMA+0x1ee>
 8003b8a:	2c08      	cmp	r4, #8
 8003b8c:	d00a      	beq.n	8003ba4 <HAL_TIM_PWM_Start_DMA+0x138>
 8003b8e:	f895 2041 	ldrb.w	r2, [r5, #65]	; 0x41
 8003b92:	2a01      	cmp	r2, #1
 8003b94:	d1bd      	bne.n	8003b12 <HAL_TIM_PWM_Start_DMA+0xa6>
 8003b96:	2900      	cmp	r1, #0
 8003b98:	d1bf      	bne.n	8003b1a <HAL_TIM_PWM_Start_DMA+0xae>
 8003b9a:	2b00      	cmp	r3, #0
 8003b9c:	d0bd      	beq.n	8003b1a <HAL_TIM_PWM_Start_DMA+0xae>
 8003b9e:	e7b8      	b.n	8003b12 <HAL_TIM_PWM_Start_DMA+0xa6>
 8003ba0:	2002      	movs	r0, #2
 8003ba2:	bdf8      	pop	{r3, r4, r5, r6, r7, pc}
 8003ba4:	f895 2040 	ldrb.w	r2, [r5, #64]	; 0x40
 8003ba8:	2a01      	cmp	r2, #1
 8003baa:	d0f4      	beq.n	8003b96 <HAL_TIM_PWM_Start_DMA+0x12a>
 8003bac:	e7b1      	b.n	8003b12 <HAL_TIM_PWM_Start_DMA+0xa6>
 8003bae:	f04f 0e02 	mov.w	lr, #2
 8003bb2:	682a      	ldr	r2, [r5, #0]
 8003bb4:	6ae8      	ldr	r0, [r5, #44]	; 0x2c
 8003bb6:	f8df c0b4 	ldr.w	ip, [pc, #180]	; 8003c6c <HAL_TIM_PWM_Start_DMA+0x200>
 8003bba:	4f2d      	ldr	r7, [pc, #180]	; (8003c70 <HAL_TIM_PWM_Start_DMA+0x204>)
 8003bbc:	4e2d      	ldr	r6, [pc, #180]	; (8003c74 <HAL_TIM_PWM_Start_DMA+0x208>)
 8003bbe:	f885 e040 	strb.w	lr, [r5, #64]	; 0x40
 8003bc2:	323c      	adds	r2, #60	; 0x3c
 8003bc4:	e9c0 c70a 	strd	ip, r7, [r0, #40]	; 0x28
 8003bc8:	6306      	str	r6, [r0, #48]	; 0x30
 8003bca:	f7fe fbad 	bl	8002328 <HAL_DMA_Start_IT>
 8003bce:	2800      	cmp	r0, #0
 8003bd0:	d19f      	bne.n	8003b12 <HAL_TIM_PWM_Start_DMA+0xa6>
 8003bd2:	682a      	ldr	r2, [r5, #0]
 8003bd4:	68d3      	ldr	r3, [r2, #12]
 8003bd6:	f443 6300 	orr.w	r3, r3, #2048	; 0x800
 8003bda:	60d3      	str	r3, [r2, #12]
 8003bdc:	e774      	b.n	8003ac8 <HAL_TIM_PWM_Start_DMA+0x5c>
 8003bde:	6b28      	ldr	r0, [r5, #48]	; 0x30
 8003be0:	4e22      	ldr	r6, [pc, #136]	; (8003c6c <HAL_TIM_PWM_Start_DMA+0x200>)
 8003be2:	682a      	ldr	r2, [r5, #0]
 8003be4:	6286      	str	r6, [r0, #40]	; 0x28
 8003be6:	4e22      	ldr	r6, [pc, #136]	; (8003c70 <HAL_TIM_PWM_Start_DMA+0x204>)
 8003be8:	3240      	adds	r2, #64	; 0x40
 8003bea:	62c6      	str	r6, [r0, #44]	; 0x2c
 8003bec:	4e21      	ldr	r6, [pc, #132]	; (8003c74 <HAL_TIM_PWM_Start_DMA+0x208>)
 8003bee:	6306      	str	r6, [r0, #48]	; 0x30
 8003bf0:	f7fe fb9a 	bl	8002328 <HAL_DMA_Start_IT>
 8003bf4:	2800      	cmp	r0, #0
 8003bf6:	d18c      	bne.n	8003b12 <HAL_TIM_PWM_Start_DMA+0xa6>
 8003bf8:	682a      	ldr	r2, [r5, #0]
 8003bfa:	68d3      	ldr	r3, [r2, #12]
 8003bfc:	f443 5380 	orr.w	r3, r3, #4096	; 0x1000
 8003c00:	60d3      	str	r3, [r2, #12]
 8003c02:	e761      	b.n	8003ac8 <HAL_TIM_PWM_Start_DMA+0x5c>
 8003c04:	2202      	movs	r2, #2
 8003c06:	f885 203f 	strb.w	r2, [r5, #63]	; 0x3f
 8003c0a:	6aa8      	ldr	r0, [r5, #40]	; 0x28
 8003c0c:	4e17      	ldr	r6, [pc, #92]	; (8003c6c <HAL_TIM_PWM_Start_DMA+0x200>)
 8003c0e:	682a      	ldr	r2, [r5, #0]
 8003c10:	6286      	str	r6, [r0, #40]	; 0x28
 8003c12:	4e17      	ldr	r6, [pc, #92]	; (8003c70 <HAL_TIM_PWM_Start_DMA+0x204>)
 8003c14:	3238      	adds	r2, #56	; 0x38
 8003c16:	62c6      	str	r6, [r0, #44]	; 0x2c
 8003c18:	4e16      	ldr	r6, [pc, #88]	; (8003c74 <HAL_TIM_PWM_Start_DMA+0x208>)
 8003c1a:	6306      	str	r6, [r0, #48]	; 0x30
 8003c1c:	f7fe fb84 	bl	8002328 <HAL_DMA_Start_IT>
 8003c20:	2800      	cmp	r0, #0
 8003c22:	f47f af76 	bne.w	8003b12 <HAL_TIM_PWM_Start_DMA+0xa6>
 8003c26:	682a      	ldr	r2, [r5, #0]
 8003c28:	68d3      	ldr	r3, [r2, #12]
 8003c2a:	f443 6380 	orr.w	r3, r3, #1024	; 0x400
 8003c2e:	60d3      	str	r3, [r2, #12]
 8003c30:	e74a      	b.n	8003ac8 <HAL_TIM_PWM_Start_DMA+0x5c>
 8003c32:	6c53      	ldr	r3, [r2, #68]	; 0x44
 8003c34:	f443 4300 	orr.w	r3, r3, #32768	; 0x8000
 8003c38:	6453      	str	r3, [r2, #68]	; 0x44
 8003c3a:	6893      	ldr	r3, [r2, #8]
 8003c3c:	f003 0307 	and.w	r3, r3, #7
 8003c40:	2b06      	cmp	r3, #6
 8003c42:	f47f af5e 	bne.w	8003b02 <HAL_TIM_PWM_Start_DMA+0x96>
 8003c46:	2000      	movs	r0, #0
 8003c48:	bdf8      	pop	{r3, r4, r5, r6, r7, pc}
 8003c4a:	f890 203f 	ldrb.w	r2, [r0, #63]	; 0x3f
 8003c4e:	f1a2 0202 	sub.w	r2, r2, #2
 8003c52:	fab2 f282 	clz	r2, r2
 8003c56:	0952      	lsrs	r2, r2, #5
 8003c58:	e791      	b.n	8003b7e <HAL_TIM_PWM_Start_DMA+0x112>
 8003c5a:	f895 203f 	ldrb.w	r2, [r5, #63]	; 0x3f
 8003c5e:	f1a2 0201 	sub.w	r2, r2, #1
 8003c62:	fab2 f282 	clz	r2, r2
 8003c66:	0952      	lsrs	r2, r2, #5
 8003c68:	e712      	b.n	8003a90 <HAL_TIM_PWM_Start_DMA+0x24>
 8003c6a:	bf00      	nop
 8003c6c:	080040bd 	.word	0x080040bd
 8003c70:	08004141 	.word	0x08004141
 8003c74:	080041a5 	.word	0x080041a5
 8003c78:	40012c00 	.word	0x40012c00
 8003c7c:	40000400 	.word	0x40000400

08003c80 <HAL_TIM_PWM_ConfigChannel>:
 8003c80:	4603      	mov	r3, r0
 8003c82:	f890 003c 	ldrb.w	r0, [r0, #60]	; 0x3c
 8003c86:	2801      	cmp	r0, #1
 8003c88:	f000 80c0 	beq.w	8003e0c <HAL_TIM_PWM_ConfigChannel+0x18c>
 8003c8c:	2001      	movs	r0, #1
 8003c8e:	b4f0      	push	{r4, r5, r6, r7}
 8003c90:	f883 003c 	strb.w	r0, [r3, #60]	; 0x3c
 8003c94:	2a0c      	cmp	r2, #12
 8003c96:	d82d      	bhi.n	8003cf4 <HAL_TIM_PWM_ConfigChannel+0x74>
 8003c98:	e8df f002 	tbb	[pc, r2]
 8003c9c:	2c2c2c07 	.word	0x2c2c2c07
 8003ca0:	2c2c2c60 	.word	0x2c2c2c60
 8003ca4:	2c2c2c8d 	.word	0x2c2c2c8d
 8003ca8:	32          	.byte	0x32
 8003ca9:	00          	.byte	0x00
 8003caa:	681a      	ldr	r2, [r3, #0]
 8003cac:	680e      	ldr	r6, [r1, #0]
 8003cae:	6a10      	ldr	r0, [r2, #32]
 8003cb0:	f020 0001 	bic.w	r0, r0, #1
 8003cb4:	6210      	str	r0, [r2, #32]
 8003cb6:	6a10      	ldr	r0, [r2, #32]
 8003cb8:	6855      	ldr	r5, [r2, #4]
 8003cba:	6994      	ldr	r4, [r2, #24]
 8003cbc:	f020 0002 	bic.w	r0, r0, #2
 8003cc0:	f024 0473 	bic.w	r4, r4, #115	; 0x73
 8003cc4:	4334      	orrs	r4, r6
 8003cc6:	688e      	ldr	r6, [r1, #8]
 8003cc8:	4330      	orrs	r0, r6
 8003cca:	4e6a      	ldr	r6, [pc, #424]	; (8003e74 <HAL_TIM_PWM_ConfigChannel+0x1f4>)
 8003ccc:	42b2      	cmp	r2, r6
 8003cce:	f000 809f 	beq.w	8003e10 <HAL_TIM_PWM_ConfigChannel+0x190>
 8003cd2:	6055      	str	r5, [r2, #4]
 8003cd4:	684d      	ldr	r5, [r1, #4]
 8003cd6:	6194      	str	r4, [r2, #24]
 8003cd8:	690c      	ldr	r4, [r1, #16]
 8003cda:	6355      	str	r5, [r2, #52]	; 0x34
 8003cdc:	6210      	str	r0, [r2, #32]
 8003cde:	6990      	ldr	r0, [r2, #24]
 8003ce0:	f040 0008 	orr.w	r0, r0, #8
 8003ce4:	6190      	str	r0, [r2, #24]
 8003ce6:	6990      	ldr	r0, [r2, #24]
 8003ce8:	f020 0004 	bic.w	r0, r0, #4
 8003cec:	6190      	str	r0, [r2, #24]
 8003cee:	6991      	ldr	r1, [r2, #24]
 8003cf0:	4321      	orrs	r1, r4
 8003cf2:	6191      	str	r1, [r2, #24]
 8003cf4:	2200      	movs	r2, #0
 8003cf6:	f883 203c 	strb.w	r2, [r3, #60]	; 0x3c
 8003cfa:	4610      	mov	r0, r2
 8003cfc:	bcf0      	pop	{r4, r5, r6, r7}
 8003cfe:	4770      	bx	lr
 8003d00:	681a      	ldr	r2, [r3, #0]
 8003d02:	680e      	ldr	r6, [r1, #0]
 8003d04:	6a10      	ldr	r0, [r2, #32]
 8003d06:	f420 5080 	bic.w	r0, r0, #4096	; 0x1000
 8003d0a:	6210      	str	r0, [r2, #32]
 8003d0c:	6a10      	ldr	r0, [r2, #32]
 8003d0e:	6855      	ldr	r5, [r2, #4]
 8003d10:	69d4      	ldr	r4, [r2, #28]
 8003d12:	f420 5000 	bic.w	r0, r0, #8192	; 0x2000
 8003d16:	f424 44e6 	bic.w	r4, r4, #29440	; 0x7300
 8003d1a:	ea44 2406 	orr.w	r4, r4, r6, lsl #8
 8003d1e:	688e      	ldr	r6, [r1, #8]
 8003d20:	ea40 3006 	orr.w	r0, r0, r6, lsl #12
 8003d24:	4e53      	ldr	r6, [pc, #332]	; (8003e74 <HAL_TIM_PWM_ConfigChannel+0x1f4>)
 8003d26:	42b2      	cmp	r2, r6
 8003d28:	f000 808e 	beq.w	8003e48 <HAL_TIM_PWM_ConfigChannel+0x1c8>
 8003d2c:	6055      	str	r5, [r2, #4]
 8003d2e:	684d      	ldr	r5, [r1, #4]
 8003d30:	61d4      	str	r4, [r2, #28]
 8003d32:	690c      	ldr	r4, [r1, #16]
 8003d34:	6415      	str	r5, [r2, #64]	; 0x40
 8003d36:	6210      	str	r0, [r2, #32]
 8003d38:	69d0      	ldr	r0, [r2, #28]
 8003d3a:	f440 6000 	orr.w	r0, r0, #2048	; 0x800
 8003d3e:	61d0      	str	r0, [r2, #28]
 8003d40:	69d0      	ldr	r0, [r2, #28]
 8003d42:	f420 6080 	bic.w	r0, r0, #1024	; 0x400
 8003d46:	61d0      	str	r0, [r2, #28]
 8003d48:	69d1      	ldr	r1, [r2, #28]
 8003d4a:	ea41 2104 	orr.w	r1, r1, r4, lsl #8
 8003d4e:	61d1      	str	r1, [r2, #28]
 8003d50:	2200      	movs	r2, #0
 8003d52:	f883 203c 	strb.w	r2, [r3, #60]	; 0x3c
 8003d56:	4610      	mov	r0, r2
 8003d58:	bcf0      	pop	{r4, r5, r6, r7}
 8003d5a:	4770      	bx	lr
 8003d5c:	681a      	ldr	r2, [r3, #0]
 8003d5e:	680e      	ldr	r6, [r1, #0]
 8003d60:	6a10      	ldr	r0, [r2, #32]
 8003d62:	f020 0010 	bic.w	r0, r0, #16
 8003d66:	6210      	str	r0, [r2, #32]
 8003d68:	6a10      	ldr	r0, [r2, #32]
 8003d6a:	6855      	ldr	r5, [r2, #4]
 8003d6c:	6994      	ldr	r4, [r2, #24]
 8003d6e:	f020 0020 	bic.w	r0, r0, #32
 8003d72:	f424 44e6 	bic.w	r4, r4, #29440	; 0x7300
 8003d76:	ea44 2406 	orr.w	r4, r4, r6, lsl #8
 8003d7a:	688e      	ldr	r6, [r1, #8]
 8003d7c:	ea40 1006 	orr.w	r0, r0, r6, lsl #4
 8003d80:	4e3c      	ldr	r6, [pc, #240]	; (8003e74 <HAL_TIM_PWM_ConfigChannel+0x1f4>)
 8003d82:	42b2      	cmp	r2, r6
 8003d84:	d051      	beq.n	8003e2a <HAL_TIM_PWM_ConfigChannel+0x1aa>
 8003d86:	6055      	str	r5, [r2, #4]
 8003d88:	684d      	ldr	r5, [r1, #4]
 8003d8a:	6194      	str	r4, [r2, #24]
 8003d8c:	690c      	ldr	r4, [r1, #16]
 8003d8e:	6395      	str	r5, [r2, #56]	; 0x38
 8003d90:	6210      	str	r0, [r2, #32]
 8003d92:	6990      	ldr	r0, [r2, #24]
 8003d94:	f440 6000 	orr.w	r0, r0, #2048	; 0x800
 8003d98:	6190      	str	r0, [r2, #24]
 8003d9a:	6990      	ldr	r0, [r2, #24]
 8003d9c:	f420 6080 	bic.w	r0, r0, #1024	; 0x400
 8003da0:	6190      	str	r0, [r2, #24]
 8003da2:	6991      	ldr	r1, [r2, #24]
 8003da4:	ea41 2104 	orr.w	r1, r1, r4, lsl #8
 8003da8:	6191      	str	r1, [r2, #24]
 8003daa:	2200      	movs	r2, #0
 8003dac:	f883 203c 	strb.w	r2, [r3, #60]	; 0x3c
 8003db0:	4610      	mov	r0, r2
 8003db2:	bcf0      	pop	{r4, r5, r6, r7}
 8003db4:	4770      	bx	lr
 8003db6:	681a      	ldr	r2, [r3, #0]
 8003db8:	680e      	ldr	r6, [r1, #0]
 8003dba:	6a10      	ldr	r0, [r2, #32]
 8003dbc:	f420 7080 	bic.w	r0, r0, #256	; 0x100
 8003dc0:	6210      	str	r0, [r2, #32]
 8003dc2:	6a10      	ldr	r0, [r2, #32]
 8003dc4:	6855      	ldr	r5, [r2, #4]
 8003dc6:	69d4      	ldr	r4, [r2, #28]
 8003dc8:	f420 7000 	bic.w	r0, r0, #512	; 0x200
 8003dcc:	f024 0473 	bic.w	r4, r4, #115	; 0x73
 8003dd0:	4334      	orrs	r4, r6
 8003dd2:	688e      	ldr	r6, [r1, #8]
 8003dd4:	ea40 2006 	orr.w	r0, r0, r6, lsl #8
 8003dd8:	4e26      	ldr	r6, [pc, #152]	; (8003e74 <HAL_TIM_PWM_ConfigChannel+0x1f4>)
 8003dda:	42b2      	cmp	r2, r6
 8003ddc:	d03a      	beq.n	8003e54 <HAL_TIM_PWM_ConfigChannel+0x1d4>
 8003dde:	6055      	str	r5, [r2, #4]
 8003de0:	684d      	ldr	r5, [r1, #4]
 8003de2:	61d4      	str	r4, [r2, #28]
 8003de4:	690c      	ldr	r4, [r1, #16]
 8003de6:	63d5      	str	r5, [r2, #60]	; 0x3c
 8003de8:	6210      	str	r0, [r2, #32]
 8003dea:	69d0      	ldr	r0, [r2, #28]
 8003dec:	f040 0008 	orr.w	r0, r0, #8
 8003df0:	61d0      	str	r0, [r2, #28]
 8003df2:	69d0      	ldr	r0, [r2, #28]
 8003df4:	f020 0004 	bic.w	r0, r0, #4
 8003df8:	61d0      	str	r0, [r2, #28]
 8003dfa:	69d1      	ldr	r1, [r2, #28]
 8003dfc:	4321      	orrs	r1, r4
 8003dfe:	61d1      	str	r1, [r2, #28]
 8003e00:	2200      	movs	r2, #0
 8003e02:	f883 203c 	strb.w	r2, [r3, #60]	; 0x3c
 8003e06:	4610      	mov	r0, r2
 8003e08:	bcf0      	pop	{r4, r5, r6, r7}
 8003e0a:	4770      	bx	lr
 8003e0c:	2002      	movs	r0, #2
 8003e0e:	4770      	bx	lr
 8003e10:	68ce      	ldr	r6, [r1, #12]
 8003e12:	f020 0008 	bic.w	r0, r0, #8
 8003e16:	4330      	orrs	r0, r6
 8003e18:	f425 7540 	bic.w	r5, r5, #768	; 0x300
 8003e1c:	e9d1 6705 	ldrd	r6, r7, [r1, #20]
 8003e20:	433e      	orrs	r6, r7
 8003e22:	f020 0004 	bic.w	r0, r0, #4
 8003e26:	4335      	orrs	r5, r6
 8003e28:	e753      	b.n	8003cd2 <HAL_TIM_PWM_ConfigChannel+0x52>
 8003e2a:	68ce      	ldr	r6, [r1, #12]
 8003e2c:	f020 0080 	bic.w	r0, r0, #128	; 0x80
 8003e30:	ea40 1006 	orr.w	r0, r0, r6, lsl #4
 8003e34:	f425 6540 	bic.w	r5, r5, #3072	; 0xc00
 8003e38:	e9d1 6705 	ldrd	r6, r7, [r1, #20]
 8003e3c:	433e      	orrs	r6, r7
 8003e3e:	f020 0040 	bic.w	r0, r0, #64	; 0x40
 8003e42:	ea45 0586 	orr.w	r5, r5, r6, lsl #2
 8003e46:	e79e      	b.n	8003d86 <HAL_TIM_PWM_ConfigChannel+0x106>
 8003e48:	694e      	ldr	r6, [r1, #20]
 8003e4a:	f425 4580 	bic.w	r5, r5, #16384	; 0x4000
 8003e4e:	ea45 1586 	orr.w	r5, r5, r6, lsl #6
 8003e52:	e76b      	b.n	8003d2c <HAL_TIM_PWM_ConfigChannel+0xac>
 8003e54:	68ce      	ldr	r6, [r1, #12]
 8003e56:	f420 6000 	bic.w	r0, r0, #2048	; 0x800
 8003e5a:	ea40 2006 	orr.w	r0, r0, r6, lsl #8
 8003e5e:	f425 5540 	bic.w	r5, r5, #12288	; 0x3000
 8003e62:	e9d1 6705 	ldrd	r6, r7, [r1, #20]
 8003e66:	433e      	orrs	r6, r7
 8003e68:	f420 6080 	bic.w	r0, r0, #1024	; 0x400
 8003e6c:	ea45 1506 	orr.w	r5, r5, r6, lsl #4
 8003e70:	e7b5      	b.n	8003dde <HAL_TIM_PWM_ConfigChannel+0x15e>
 8003e72:	bf00      	nop
 8003e74:	40012c00 	.word	0x40012c00

08003e78 <HAL_TIM_ConfigClockSource>:
 8003e78:	f890 203c 	ldrb.w	r2, [r0, #60]	; 0x3c
 8003e7c:	2a01      	cmp	r2, #1
 8003e7e:	d075      	beq.n	8003f6c <HAL_TIM_ConfigClockSource+0xf4>
 8003e80:	b430      	push	{r4, r5}
 8003e82:	4603      	mov	r3, r0
 8003e84:	2401      	movs	r4, #1
 8003e86:	2202      	movs	r2, #2
 8003e88:	6800      	ldr	r0, [r0, #0]
 8003e8a:	f883 403c 	strb.w	r4, [r3, #60]	; 0x3c
 8003e8e:	f883 203d 	strb.w	r2, [r3, #61]	; 0x3d
 8003e92:	6884      	ldr	r4, [r0, #8]
 8003e94:	680a      	ldr	r2, [r1, #0]
 8003e96:	f424 447f 	bic.w	r4, r4, #65280	; 0xff00
 8003e9a:	f024 0477 	bic.w	r4, r4, #119	; 0x77
 8003e9e:	2a60      	cmp	r2, #96	; 0x60
 8003ea0:	6084      	str	r4, [r0, #8]
 8003ea2:	d065      	beq.n	8003f70 <HAL_TIM_ConfigClockSource+0xf8>
 8003ea4:	d831      	bhi.n	8003f0a <HAL_TIM_ConfigClockSource+0x92>
 8003ea6:	2a40      	cmp	r2, #64	; 0x40
 8003ea8:	d048      	beq.n	8003f3c <HAL_TIM_ConfigClockSource+0xc4>
 8003eaa:	d921      	bls.n	8003ef0 <HAL_TIM_ConfigClockSource+0x78>
 8003eac:	2a50      	cmp	r2, #80	; 0x50
 8003eae:	d116      	bne.n	8003ede <HAL_TIM_ConfigClockSource+0x66>
 8003eb0:	684c      	ldr	r4, [r1, #4]
 8003eb2:	68cd      	ldr	r5, [r1, #12]
 8003eb4:	6a01      	ldr	r1, [r0, #32]
 8003eb6:	f021 010a 	bic.w	r1, r1, #10
 8003eba:	4321      	orrs	r1, r4
 8003ebc:	6a04      	ldr	r4, [r0, #32]
 8003ebe:	f024 0401 	bic.w	r4, r4, #1
 8003ec2:	6204      	str	r4, [r0, #32]
 8003ec4:	6982      	ldr	r2, [r0, #24]
 8003ec6:	f022 02f0 	bic.w	r2, r2, #240	; 0xf0
 8003eca:	ea42 1205 	orr.w	r2, r2, r5, lsl #4
 8003ece:	6182      	str	r2, [r0, #24]
 8003ed0:	6201      	str	r1, [r0, #32]
 8003ed2:	6882      	ldr	r2, [r0, #8]
 8003ed4:	f022 0270 	bic.w	r2, r2, #112	; 0x70
 8003ed8:	f042 0257 	orr.w	r2, r2, #87	; 0x57
 8003edc:	6082      	str	r2, [r0, #8]
 8003ede:	2200      	movs	r2, #0
 8003ee0:	2101      	movs	r1, #1
 8003ee2:	f883 203c 	strb.w	r2, [r3, #60]	; 0x3c
 8003ee6:	f883 103d 	strb.w	r1, [r3, #61]	; 0x3d
 8003eea:	4610      	mov	r0, r2
 8003eec:	bc30      	pop	{r4, r5}
 8003eee:	4770      	bx	lr
 8003ef0:	2a20      	cmp	r2, #32
 8003ef2:	d002      	beq.n	8003efa <HAL_TIM_ConfigClockSource+0x82>
 8003ef4:	d91e      	bls.n	8003f34 <HAL_TIM_ConfigClockSource+0xbc>
 8003ef6:	2a30      	cmp	r2, #48	; 0x30
 8003ef8:	d1f1      	bne.n	8003ede <HAL_TIM_ConfigClockSource+0x66>
 8003efa:	6881      	ldr	r1, [r0, #8]
 8003efc:	f021 0170 	bic.w	r1, r1, #112	; 0x70
 8003f00:	430a      	orrs	r2, r1
 8003f02:	f042 0207 	orr.w	r2, r2, #7
 8003f06:	6082      	str	r2, [r0, #8]
 8003f08:	e7e9      	b.n	8003ede <HAL_TIM_ConfigClockSource+0x66>
 8003f0a:	2a70      	cmp	r2, #112	; 0x70
 8003f0c:	d049      	beq.n	8003fa2 <HAL_TIM_ConfigClockSource+0x12a>
 8003f0e:	f5b2 5f00 	cmp.w	r2, #8192	; 0x2000
 8003f12:	d1e4      	bne.n	8003ede <HAL_TIM_ConfigClockSource+0x66>
 8003f14:	e9d1 5201 	ldrd	r5, r2, [r1, #4]
 8003f18:	6884      	ldr	r4, [r0, #8]
 8003f1a:	432a      	orrs	r2, r5
 8003f1c:	68cd      	ldr	r5, [r1, #12]
 8003f1e:	f424 417f 	bic.w	r1, r4, #65280	; 0xff00
 8003f22:	ea42 2205 	orr.w	r2, r2, r5, lsl #8
 8003f26:	430a      	orrs	r2, r1
 8003f28:	6082      	str	r2, [r0, #8]
 8003f2a:	6882      	ldr	r2, [r0, #8]
 8003f2c:	f442 4280 	orr.w	r2, r2, #16384	; 0x4000
 8003f30:	6082      	str	r2, [r0, #8]
 8003f32:	e7d4      	b.n	8003ede <HAL_TIM_ConfigClockSource+0x66>
 8003f34:	f032 0110 	bics.w	r1, r2, #16
 8003f38:	d1d1      	bne.n	8003ede <HAL_TIM_ConfigClockSource+0x66>
 8003f3a:	e7de      	b.n	8003efa <HAL_TIM_ConfigClockSource+0x82>
 8003f3c:	684c      	ldr	r4, [r1, #4]
 8003f3e:	68cd      	ldr	r5, [r1, #12]
 8003f40:	6a01      	ldr	r1, [r0, #32]
 8003f42:	f021 010a 	bic.w	r1, r1, #10
 8003f46:	4321      	orrs	r1, r4
 8003f48:	6a04      	ldr	r4, [r0, #32]
 8003f4a:	f024 0401 	bic.w	r4, r4, #1
 8003f4e:	6204      	str	r4, [r0, #32]
 8003f50:	6982      	ldr	r2, [r0, #24]
 8003f52:	f022 02f0 	bic.w	r2, r2, #240	; 0xf0
 8003f56:	ea42 1205 	orr.w	r2, r2, r5, lsl #4
 8003f5a:	6182      	str	r2, [r0, #24]
 8003f5c:	6201      	str	r1, [r0, #32]
 8003f5e:	6882      	ldr	r2, [r0, #8]
 8003f60:	f022 0270 	bic.w	r2, r2, #112	; 0x70
 8003f64:	f042 0247 	orr.w	r2, r2, #71	; 0x47
 8003f68:	6082      	str	r2, [r0, #8]
 8003f6a:	e7b8      	b.n	8003ede <HAL_TIM_ConfigClockSource+0x66>
 8003f6c:	2002      	movs	r0, #2
 8003f6e:	4770      	bx	lr
 8003f70:	6a04      	ldr	r4, [r0, #32]
 8003f72:	68ca      	ldr	r2, [r1, #12]
 8003f74:	f024 0410 	bic.w	r4, r4, #16
 8003f78:	684d      	ldr	r5, [r1, #4]
 8003f7a:	6204      	str	r4, [r0, #32]
 8003f7c:	6981      	ldr	r1, [r0, #24]
 8003f7e:	f421 4170 	bic.w	r1, r1, #61440	; 0xf000
 8003f82:	ea41 3102 	orr.w	r1, r1, r2, lsl #12
 8003f86:	6a02      	ldr	r2, [r0, #32]
 8003f88:	6181      	str	r1, [r0, #24]
 8003f8a:	f022 02a0 	bic.w	r2, r2, #160	; 0xa0
 8003f8e:	ea42 1205 	orr.w	r2, r2, r5, lsl #4
 8003f92:	6202      	str	r2, [r0, #32]
 8003f94:	6882      	ldr	r2, [r0, #8]
 8003f96:	f022 0270 	bic.w	r2, r2, #112	; 0x70
 8003f9a:	f042 0267 	orr.w	r2, r2, #103	; 0x67
 8003f9e:	6082      	str	r2, [r0, #8]
 8003fa0:	e79d      	b.n	8003ede <HAL_TIM_ConfigClockSource+0x66>
 8003fa2:	e9d1 5201 	ldrd	r5, r2, [r1, #4]
 8003fa6:	6884      	ldr	r4, [r0, #8]
 8003fa8:	432a      	orrs	r2, r5
 8003faa:	68cd      	ldr	r5, [r1, #12]
 8003fac:	f424 417f 	bic.w	r1, r4, #65280	; 0xff00
 8003fb0:	ea42 2205 	orr.w	r2, r2, r5, lsl #8
 8003fb4:	430a      	orrs	r2, r1
 8003fb6:	6082      	str	r2, [r0, #8]
 8003fb8:	6882      	ldr	r2, [r0, #8]
 8003fba:	f042 0277 	orr.w	r2, r2, #119	; 0x77
 8003fbe:	6082      	str	r2, [r0, #8]
 8003fc0:	e78d      	b.n	8003ede <HAL_TIM_ConfigClockSource+0x66>
 8003fc2:	bf00      	nop

08003fc4 <HAL_TIM_SlaveConfigSynchro>:
 8003fc4:	f890 203c 	ldrb.w	r2, [r0, #60]	; 0x3c
 8003fc8:	2a01      	cmp	r2, #1
 8003fca:	d04a      	beq.n	8004062 <HAL_TIM_SlaveConfigSynchro+0x9e>
 8003fcc:	4603      	mov	r3, r0
 8003fce:	2202      	movs	r2, #2
 8003fd0:	f04f 0c01 	mov.w	ip, #1
 8003fd4:	6800      	ldr	r0, [r0, #0]
 8003fd6:	b470      	push	{r4, r5, r6}
 8003fd8:	f883 c03c 	strb.w	ip, [r3, #60]	; 0x3c
 8003fdc:	f883 203d 	strb.w	r2, [r3, #61]	; 0x3d
 8003fe0:	6882      	ldr	r2, [r0, #8]
 8003fe2:	684c      	ldr	r4, [r1, #4]
 8003fe4:	f022 0270 	bic.w	r2, r2, #112	; 0x70
 8003fe8:	680d      	ldr	r5, [r1, #0]
 8003fea:	4322      	orrs	r2, r4
 8003fec:	f022 0207 	bic.w	r2, r2, #7
 8003ff0:	432a      	orrs	r2, r5
 8003ff2:	2c60      	cmp	r4, #96	; 0x60
 8003ff4:	6082      	str	r2, [r0, #8]
 8003ff6:	d04e      	beq.n	8004096 <HAL_TIM_SlaveConfigSynchro+0xd2>
 8003ff8:	d825      	bhi.n	8004046 <HAL_TIM_SlaveConfigSynchro+0x82>
 8003ffa:	2c40      	cmp	r4, #64	; 0x40
 8003ffc:	d033      	beq.n	8004066 <HAL_TIM_SlaveConfigSynchro+0xa2>
 8003ffe:	2c50      	cmp	r4, #80	; 0x50
 8004000:	d110      	bne.n	8004024 <HAL_TIM_SlaveConfigSynchro+0x60>
 8004002:	688c      	ldr	r4, [r1, #8]
 8004004:	690d      	ldr	r5, [r1, #16]
 8004006:	6a01      	ldr	r1, [r0, #32]
 8004008:	f021 010a 	bic.w	r1, r1, #10
 800400c:	4321      	orrs	r1, r4
 800400e:	6a04      	ldr	r4, [r0, #32]
 8004010:	f024 0401 	bic.w	r4, r4, #1
 8004014:	6204      	str	r4, [r0, #32]
 8004016:	6982      	ldr	r2, [r0, #24]
 8004018:	f022 02f0 	bic.w	r2, r2, #240	; 0xf0
 800401c:	ea42 1205 	orr.w	r2, r2, r5, lsl #4
 8004020:	6182      	str	r2, [r0, #24]
 8004022:	6201      	str	r1, [r0, #32]
 8004024:	2100      	movs	r1, #0
 8004026:	2401      	movs	r4, #1
 8004028:	68c2      	ldr	r2, [r0, #12]
 800402a:	f022 0240 	bic.w	r2, r2, #64	; 0x40
 800402e:	60c2      	str	r2, [r0, #12]
 8004030:	68c2      	ldr	r2, [r0, #12]
 8004032:	f422 4280 	bic.w	r2, r2, #16384	; 0x4000
 8004036:	60c2      	str	r2, [r0, #12]
 8004038:	f883 403d 	strb.w	r4, [r3, #61]	; 0x3d
 800403c:	f883 103c 	strb.w	r1, [r3, #60]	; 0x3c
 8004040:	4608      	mov	r0, r1
 8004042:	bc70      	pop	{r4, r5, r6}
 8004044:	4770      	bx	lr
 8004046:	2c70      	cmp	r4, #112	; 0x70
 8004048:	d1ec      	bne.n	8004024 <HAL_TIM_SlaveConfigSynchro+0x60>
 800404a:	e9d1 5202 	ldrd	r5, r2, [r1, #8]
 800404e:	6884      	ldr	r4, [r0, #8]
 8004050:	432a      	orrs	r2, r5
 8004052:	690d      	ldr	r5, [r1, #16]
 8004054:	f424 417f 	bic.w	r1, r4, #65280	; 0xff00
 8004058:	ea42 2205 	orr.w	r2, r2, r5, lsl #8
 800405c:	430a      	orrs	r2, r1
 800405e:	6082      	str	r2, [r0, #8]
 8004060:	e7e0      	b.n	8004024 <HAL_TIM_SlaveConfigSynchro+0x60>
 8004062:	2002      	movs	r0, #2
 8004064:	4770      	bx	lr
 8004066:	2d05      	cmp	r5, #5
 8004068:	d00d      	beq.n	8004086 <HAL_TIM_SlaveConfigSynchro+0xc2>
 800406a:	6a05      	ldr	r5, [r0, #32]
 800406c:	6a04      	ldr	r4, [r0, #32]
 800406e:	690e      	ldr	r6, [r1, #16]
 8004070:	f024 0401 	bic.w	r4, r4, #1
 8004074:	6204      	str	r4, [r0, #32]
 8004076:	6982      	ldr	r2, [r0, #24]
 8004078:	f022 02f0 	bic.w	r2, r2, #240	; 0xf0
 800407c:	ea42 1206 	orr.w	r2, r2, r6, lsl #4
 8004080:	6182      	str	r2, [r0, #24]
 8004082:	6205      	str	r5, [r0, #32]
 8004084:	e7ce      	b.n	8004024 <HAL_TIM_SlaveConfigSynchro+0x60>
 8004086:	2200      	movs	r2, #0
 8004088:	f883 c03d 	strb.w	ip, [r3, #61]	; 0x3d
 800408c:	f883 203c 	strb.w	r2, [r3, #60]	; 0x3c
 8004090:	4660      	mov	r0, ip
 8004092:	bc70      	pop	{r4, r5, r6}
 8004094:	4770      	bx	lr
 8004096:	6a04      	ldr	r4, [r0, #32]
 8004098:	690a      	ldr	r2, [r1, #16]
 800409a:	f024 0410 	bic.w	r4, r4, #16
 800409e:	688d      	ldr	r5, [r1, #8]
 80040a0:	6204      	str	r4, [r0, #32]
 80040a2:	6981      	ldr	r1, [r0, #24]
 80040a4:	f421 4170 	bic.w	r1, r1, #61440	; 0xf000
 80040a8:	ea41 3102 	orr.w	r1, r1, r2, lsl #12
 80040ac:	6a02      	ldr	r2, [r0, #32]
 80040ae:	6181      	str	r1, [r0, #24]
 80040b0:	f022 02a0 	bic.w	r2, r2, #160	; 0xa0
 80040b4:	ea42 1205 	orr.w	r2, r2, r5, lsl #4
 80040b8:	6202      	str	r2, [r0, #32]
 80040ba:	e7b3      	b.n	8004024 <HAL_TIM_SlaveConfigSynchro+0x60>

080040bc <TIM_DMADelayPulseCplt>:
 80040bc:	b510      	push	{r4, lr}
 80040be:	6a44      	ldr	r4, [r0, #36]	; 0x24
 80040c0:	6a63      	ldr	r3, [r4, #36]	; 0x24
 80040c2:	4283      	cmp	r3, r0
 80040c4:	d01c      	beq.n	8004100 <TIM_DMADelayPulseCplt+0x44>
 80040c6:	6aa3      	ldr	r3, [r4, #40]	; 0x28
 80040c8:	4283      	cmp	r3, r0
 80040ca:	d00b      	beq.n	80040e4 <TIM_DMADelayPulseCplt+0x28>
 80040cc:	6ae3      	ldr	r3, [r4, #44]	; 0x2c
 80040ce:	4283      	cmp	r3, r0
 80040d0:	d023      	beq.n	800411a <TIM_DMADelayPulseCplt+0x5e>
 80040d2:	6b23      	ldr	r3, [r4, #48]	; 0x30
 80040d4:	4283      	cmp	r3, r0
 80040d6:	d029      	beq.n	800412c <TIM_DMADelayPulseCplt+0x70>
 80040d8:	4620      	mov	r0, r4
 80040da:	f001 fa07 	bl	80054ec <HAL_TIM_PWM_PulseFinishedCallback>
 80040de:	2300      	movs	r3, #0
 80040e0:	7723      	strb	r3, [r4, #28]
 80040e2:	bd10      	pop	{r4, pc}
 80040e4:	2202      	movs	r2, #2
 80040e6:	7722      	strb	r2, [r4, #28]
 80040e8:	699b      	ldr	r3, [r3, #24]
 80040ea:	2b00      	cmp	r3, #0
 80040ec:	d1f4      	bne.n	80040d8 <TIM_DMADelayPulseCplt+0x1c>
 80040ee:	2301      	movs	r3, #1
 80040f0:	4620      	mov	r0, r4
 80040f2:	f884 303f 	strb.w	r3, [r4, #63]	; 0x3f
 80040f6:	f001 f9f9 	bl	80054ec <HAL_TIM_PWM_PulseFinishedCallback>
 80040fa:	2300      	movs	r3, #0
 80040fc:	7723      	strb	r3, [r4, #28]
 80040fe:	bd10      	pop	{r4, pc}
 8004100:	2201      	movs	r2, #1
 8004102:	7722      	strb	r2, [r4, #28]
 8004104:	699b      	ldr	r3, [r3, #24]
 8004106:	2b00      	cmp	r3, #0
 8004108:	d1e6      	bne.n	80040d8 <TIM_DMADelayPulseCplt+0x1c>
 800410a:	4620      	mov	r0, r4
 800410c:	f884 203e 	strb.w	r2, [r4, #62]	; 0x3e
 8004110:	f001 f9ec 	bl	80054ec <HAL_TIM_PWM_PulseFinishedCallback>
 8004114:	2300      	movs	r3, #0
 8004116:	7723      	strb	r3, [r4, #28]
 8004118:	bd10      	pop	{r4, pc}
 800411a:	2204      	movs	r2, #4
 800411c:	7722      	strb	r2, [r4, #28]
 800411e:	699b      	ldr	r3, [r3, #24]
 8004120:	2b00      	cmp	r3, #0
 8004122:	d1d9      	bne.n	80040d8 <TIM_DMADelayPulseCplt+0x1c>
 8004124:	2301      	movs	r3, #1
 8004126:	f884 3040 	strb.w	r3, [r4, #64]	; 0x40
 800412a:	e7d5      	b.n	80040d8 <TIM_DMADelayPulseCplt+0x1c>
 800412c:	2208      	movs	r2, #8
 800412e:	7722      	strb	r2, [r4, #28]
 8004130:	699b      	ldr	r3, [r3, #24]
 8004132:	2b00      	cmp	r3, #0
 8004134:	d1d0      	bne.n	80040d8 <TIM_DMADelayPulseCplt+0x1c>
 8004136:	2301      	movs	r3, #1
 8004138:	f884 3041 	strb.w	r3, [r4, #65]	; 0x41
 800413c:	e7cc      	b.n	80040d8 <TIM_DMADelayPulseCplt+0x1c>
 800413e:	bf00      	nop

08004140 <TIM_DMADelayPulseHalfCplt>:
 8004140:	b510      	push	{r4, lr}
 8004142:	6a44      	ldr	r4, [r0, #36]	; 0x24
 8004144:	6a62      	ldr	r2, [r4, #36]	; 0x24
 8004146:	4282      	cmp	r2, r0
 8004148:	d01a      	beq.n	8004180 <TIM_DMADelayPulseHalfCplt+0x40>
 800414a:	6aa2      	ldr	r2, [r4, #40]	; 0x28
 800414c:	4603      	mov	r3, r0
 800414e:	4282      	cmp	r2, r0
 8004150:	d00e      	beq.n	8004170 <TIM_DMADelayPulseHalfCplt+0x30>
 8004152:	6ae2      	ldr	r2, [r4, #44]	; 0x2c
 8004154:	4282      	cmp	r2, r0
 8004156:	d01b      	beq.n	8004190 <TIM_DMADelayPulseHalfCplt+0x50>
 8004158:	6b22      	ldr	r2, [r4, #48]	; 0x30
 800415a:	4282      	cmp	r2, r0
 800415c:	bf08      	it	eq
 800415e:	2308      	moveq	r3, #8
 8004160:	4620      	mov	r0, r4
 8004162:	bf08      	it	eq
 8004164:	7723      	strbeq	r3, [r4, #28]
 8004166:	f001 f9bf 	bl	80054e8 <HAL_TIM_PWM_PulseFinishedHalfCpltCallback>
 800416a:	2300      	movs	r3, #0
 800416c:	7723      	strb	r3, [r4, #28]
 800416e:	bd10      	pop	{r4, pc}
 8004170:	2302      	movs	r3, #2
 8004172:	4620      	mov	r0, r4
 8004174:	7723      	strb	r3, [r4, #28]
 8004176:	f001 f9b7 	bl	80054e8 <HAL_TIM_PWM_PulseFinishedHalfCpltCallback>
 800417a:	2300      	movs	r3, #0
 800417c:	7723      	strb	r3, [r4, #28]
 800417e:	bd10      	pop	{r4, pc}
 8004180:	2301      	movs	r3, #1
 8004182:	4620      	mov	r0, r4
 8004184:	7723      	strb	r3, [r4, #28]
 8004186:	f001 f9af 	bl	80054e8 <HAL_TIM_PWM_PulseFinishedHalfCpltCallback>
 800418a:	2300      	movs	r3, #0
 800418c:	7723      	strb	r3, [r4, #28]
 800418e:	bd10      	pop	{r4, pc}
 8004190:	2304      	movs	r3, #4
 8004192:	4620      	mov	r0, r4
 8004194:	7723      	strb	r3, [r4, #28]
 8004196:	f001 f9a7 	bl	80054e8 <HAL_TIM_PWM_PulseFinishedHalfCpltCallback>
 800419a:	2300      	movs	r3, #0
 800419c:	7723      	strb	r3, [r4, #28]
 800419e:	bd10      	pop	{r4, pc}

080041a0 <HAL_TIM_ErrorCallback>:
 80041a0:	4770      	bx	lr
 80041a2:	bf00      	nop

080041a4 <TIM_DMAError>:
 80041a4:	b510      	push	{r4, lr}
 80041a6:	6a44      	ldr	r4, [r0, #36]	; 0x24
 80041a8:	6a63      	ldr	r3, [r4, #36]	; 0x24
 80041aa:	4283      	cmp	r3, r0
 80041ac:	d01c      	beq.n	80041e8 <TIM_DMAError+0x44>
 80041ae:	6aa3      	ldr	r3, [r4, #40]	; 0x28
 80041b0:	4283      	cmp	r3, r0
 80041b2:	d00e      	beq.n	80041d2 <TIM_DMAError+0x2e>
 80041b4:	6ae3      	ldr	r3, [r4, #44]	; 0x2c
 80041b6:	4283      	cmp	r3, r0
 80041b8:	d020      	beq.n	80041fc <TIM_DMAError+0x58>
 80041ba:	6b23      	ldr	r3, [r4, #48]	; 0x30
 80041bc:	4283      	cmp	r3, r0
 80041be:	d028      	beq.n	8004212 <TIM_DMAError+0x6e>
 80041c0:	2301      	movs	r3, #1
 80041c2:	4620      	mov	r0, r4
 80041c4:	f884 303d 	strb.w	r3, [r4, #61]	; 0x3d
 80041c8:	f7ff ffea 	bl	80041a0 <HAL_TIM_ErrorCallback>
 80041cc:	2300      	movs	r3, #0
 80041ce:	7723      	strb	r3, [r4, #28]
 80041d0:	bd10      	pop	{r4, pc}
 80041d2:	2301      	movs	r3, #1
 80041d4:	2202      	movs	r2, #2
 80041d6:	f884 303f 	strb.w	r3, [r4, #63]	; 0x3f
 80041da:	4620      	mov	r0, r4
 80041dc:	7722      	strb	r2, [r4, #28]
 80041de:	f7ff ffdf 	bl	80041a0 <HAL_TIM_ErrorCallback>
 80041e2:	2300      	movs	r3, #0
 80041e4:	7723      	strb	r3, [r4, #28]
 80041e6:	bd10      	pop	{r4, pc}
 80041e8:	2301      	movs	r3, #1
 80041ea:	4620      	mov	r0, r4
 80041ec:	7723      	strb	r3, [r4, #28]
 80041ee:	f884 303e 	strb.w	r3, [r4, #62]	; 0x3e
 80041f2:	f7ff ffd5 	bl	80041a0 <HAL_TIM_ErrorCallback>
 80041f6:	2300      	movs	r3, #0
 80041f8:	7723      	strb	r3, [r4, #28]
 80041fa:	bd10      	pop	{r4, pc}
 80041fc:	2301      	movs	r3, #1
 80041fe:	2204      	movs	r2, #4
 8004200:	f884 3040 	strb.w	r3, [r4, #64]	; 0x40
 8004204:	4620      	mov	r0, r4
 8004206:	7722      	strb	r2, [r4, #28]
 8004208:	f7ff ffca 	bl	80041a0 <HAL_TIM_ErrorCallback>
 800420c:	2300      	movs	r3, #0
 800420e:	7723      	strb	r3, [r4, #28]
 8004210:	bd10      	pop	{r4, pc}
 8004212:	2301      	movs	r3, #1
 8004214:	2208      	movs	r2, #8
 8004216:	f884 3041 	strb.w	r3, [r4, #65]	; 0x41
 800421a:	4620      	mov	r0, r4
 800421c:	7722      	strb	r2, [r4, #28]
 800421e:	f7ff ffbf 	bl	80041a0 <HAL_TIM_ErrorCallback>
 8004222:	2300      	movs	r3, #0
 8004224:	7723      	strb	r3, [r4, #28]
 8004226:	bd10      	pop	{r4, pc}

08004228 <HAL_TIMEx_MasterConfigSynchronization>:
 8004228:	f890 203c 	ldrb.w	r2, [r0, #60]	; 0x3c
 800422c:	2a01      	cmp	r2, #1
 800422e:	d027      	beq.n	8004280 <HAL_TIMEx_MasterConfigSynchronization+0x58>
 8004230:	4603      	mov	r3, r0
 8004232:	2002      	movs	r0, #2
 8004234:	681a      	ldr	r2, [r3, #0]
 8004236:	b430      	push	{r4, r5}
 8004238:	f883 003d 	strb.w	r0, [r3, #61]	; 0x3d
 800423c:	6850      	ldr	r0, [r2, #4]
 800423e:	680c      	ldr	r4, [r1, #0]
 8004240:	4d10      	ldr	r5, [pc, #64]	; (8004284 <HAL_TIMEx_MasterConfigSynchronization+0x5c>)
 8004242:	f020 0070 	bic.w	r0, r0, #112	; 0x70
 8004246:	4320      	orrs	r0, r4
 8004248:	42aa      	cmp	r2, r5
 800424a:	6894      	ldr	r4, [r2, #8]
 800424c:	6050      	str	r0, [r2, #4]
 800424e:	d009      	beq.n	8004264 <HAL_TIMEx_MasterConfigSynchronization+0x3c>
 8004250:	f1b2 4f80 	cmp.w	r2, #1073741824	; 0x40000000
 8004254:	d006      	beq.n	8004264 <HAL_TIMEx_MasterConfigSynchronization+0x3c>
 8004256:	480c      	ldr	r0, [pc, #48]	; (8004288 <HAL_TIMEx_MasterConfigSynchronization+0x60>)
 8004258:	4282      	cmp	r2, r0
 800425a:	d003      	beq.n	8004264 <HAL_TIMEx_MasterConfigSynchronization+0x3c>
 800425c:	f500 6080 	add.w	r0, r0, #1024	; 0x400
 8004260:	4282      	cmp	r2, r0
 8004262:	d104      	bne.n	800426e <HAL_TIMEx_MasterConfigSynchronization+0x46>
 8004264:	6849      	ldr	r1, [r1, #4]
 8004266:	f024 0480 	bic.w	r4, r4, #128	; 0x80
 800426a:	430c      	orrs	r4, r1
 800426c:	6094      	str	r4, [r2, #8]
 800426e:	2200      	movs	r2, #0
 8004270:	2101      	movs	r1, #1
 8004272:	f883 203c 	strb.w	r2, [r3, #60]	; 0x3c
 8004276:	f883 103d 	strb.w	r1, [r3, #61]	; 0x3d
 800427a:	4610      	mov	r0, r2
 800427c:	bc30      	pop	{r4, r5}
 800427e:	4770      	bx	lr
 8004280:	2002      	movs	r0, #2
 8004282:	4770      	bx	lr
 8004284:	40012c00 	.word	0x40012c00
 8004288:	40000400 	.word	0x40000400

0800428c <HAL_TIMEx_ConfigBreakDeadTime>:
 800428c:	f890 303c 	ldrb.w	r3, [r0, #60]	; 0x3c
 8004290:	2b01      	cmp	r3, #1
 8004292:	d023      	beq.n	80042dc <HAL_TIMEx_ConfigBreakDeadTime+0x50>
 8004294:	4602      	mov	r2, r0
 8004296:	e9d1 0302 	ldrd	r0, r3, [r1, #8]
 800429a:	f04f 0c00 	mov.w	ip, #0
 800429e:	f423 7340 	bic.w	r3, r3, #768	; 0x300
 80042a2:	4303      	orrs	r3, r0
 80042a4:	6848      	ldr	r0, [r1, #4]
 80042a6:	f423 6380 	bic.w	r3, r3, #1024	; 0x400
 80042aa:	4303      	orrs	r3, r0
 80042ac:	6808      	ldr	r0, [r1, #0]
 80042ae:	f423 6300 	bic.w	r3, r3, #2048	; 0x800
 80042b2:	4303      	orrs	r3, r0
 80042b4:	6908      	ldr	r0, [r1, #16]
 80042b6:	f423 5380 	bic.w	r3, r3, #4096	; 0x1000
 80042ba:	b410      	push	{r4}
 80042bc:	4303      	orrs	r3, r0
 80042be:	694c      	ldr	r4, [r1, #20]
 80042c0:	f423 5300 	bic.w	r3, r3, #8192	; 0x2000
 80042c4:	69c8      	ldr	r0, [r1, #28]
 80042c6:	4323      	orrs	r3, r4
 80042c8:	6811      	ldr	r1, [r2, #0]
 80042ca:	f423 4380 	bic.w	r3, r3, #16384	; 0x4000
 80042ce:	4303      	orrs	r3, r0
 80042d0:	644b      	str	r3, [r1, #68]	; 0x44
 80042d2:	f882 c03c 	strb.w	ip, [r2, #60]	; 0x3c
 80042d6:	4660      	mov	r0, ip
 80042d8:	bc10      	pop	{r4}
 80042da:	4770      	bx	lr
 80042dc:	2002      	movs	r0, #2
 80042de:	4770      	bx	lr

080042e0 <HAL_UART_Init>:
 80042e0:	2800      	cmp	r0, #0
 80042e2:	d064      	beq.n	80043ae <HAL_UART_Init+0xce>
 80042e4:	b5f8      	push	{r3, r4, r5, r6, r7, lr}
 80042e6:	f890 303d 	ldrb.w	r3, [r0, #61]	; 0x3d
 80042ea:	4604      	mov	r4, r0
 80042ec:	f003 02ff 	and.w	r2, r3, #255	; 0xff
 80042f0:	2b00      	cmp	r3, #0
 80042f2:	d054      	beq.n	800439e <HAL_UART_Init+0xbe>
 80042f4:	e9d4 2702 	ldrd	r2, r7, [r4, #8]
 80042f8:	2124      	movs	r1, #36	; 0x24
 80042fa:	6920      	ldr	r0, [r4, #16]
 80042fc:	6823      	ldr	r3, [r4, #0]
 80042fe:	4302      	orrs	r2, r0
 8004300:	6960      	ldr	r0, [r4, #20]
 8004302:	f884 103d 	strb.w	r1, [r4, #61]	; 0x3d
 8004306:	4302      	orrs	r2, r0
 8004308:	68d8      	ldr	r0, [r3, #12]
 800430a:	69a6      	ldr	r6, [r4, #24]
 800430c:	f420 5000 	bic.w	r0, r0, #8192	; 0x2000
 8004310:	60d8      	str	r0, [r3, #12]
 8004312:	6919      	ldr	r1, [r3, #16]
 8004314:	4d27      	ldr	r5, [pc, #156]	; (80043b4 <HAL_UART_Init+0xd4>)
 8004316:	f421 5140 	bic.w	r1, r1, #12288	; 0x3000
 800431a:	4339      	orrs	r1, r7
 800431c:	6119      	str	r1, [r3, #16]
 800431e:	68d9      	ldr	r1, [r3, #12]
 8004320:	42ab      	cmp	r3, r5
 8004322:	f421 51b0 	bic.w	r1, r1, #5632	; 0x1600
 8004326:	f021 010c 	bic.w	r1, r1, #12
 800432a:	ea42 0201 	orr.w	r2, r2, r1
 800432e:	60da      	str	r2, [r3, #12]
 8004330:	695a      	ldr	r2, [r3, #20]
 8004332:	f422 7240 	bic.w	r2, r2, #768	; 0x300
 8004336:	ea42 0206 	orr.w	r2, r2, r6
 800433a:	615a      	str	r2, [r3, #20]
 800433c:	d034      	beq.n	80043a8 <HAL_UART_Init+0xc8>
 800433e:	f7fe fe11 	bl	8002f64 <HAL_RCC_GetPCLK1Freq>
 8004342:	6862      	ldr	r2, [r4, #4]
 8004344:	eb00 0380 	add.w	r3, r0, r0, lsl #2
 8004348:	0092      	lsls	r2, r2, #2
 800434a:	eb03 0383 	add.w	r3, r3, r3, lsl #2
 800434e:	fbb3 f3f2 	udiv	r3, r3, r2
 8004352:	2664      	movs	r6, #100	; 0x64
 8004354:	2500      	movs	r5, #0
 8004356:	f04f 0c20 	mov.w	ip, #32
 800435a:	4817      	ldr	r0, [pc, #92]	; (80043b8 <HAL_UART_Init+0xd8>)
 800435c:	6821      	ldr	r1, [r4, #0]
 800435e:	fba0 7203 	umull	r7, r2, r0, r3
 8004362:	0952      	lsrs	r2, r2, #5
 8004364:	fb06 3312 	mls	r3, r6, r2, r3
 8004368:	011b      	lsls	r3, r3, #4
 800436a:	3332      	adds	r3, #50	; 0x32
 800436c:	fba0 0303 	umull	r0, r3, r0, r3
 8004370:	0112      	lsls	r2, r2, #4
 8004372:	eb02 1353 	add.w	r3, r2, r3, lsr #5
 8004376:	608b      	str	r3, [r1, #8]
 8004378:	690b      	ldr	r3, [r1, #16]
 800437a:	4628      	mov	r0, r5
 800437c:	f423 4390 	bic.w	r3, r3, #18432	; 0x4800
 8004380:	610b      	str	r3, [r1, #16]
 8004382:	694b      	ldr	r3, [r1, #20]
 8004384:	f023 032a 	bic.w	r3, r3, #42	; 0x2a
 8004388:	614b      	str	r3, [r1, #20]
 800438a:	68cb      	ldr	r3, [r1, #12]
 800438c:	f443 5300 	orr.w	r3, r3, #8192	; 0x2000
 8004390:	60cb      	str	r3, [r1, #12]
 8004392:	6425      	str	r5, [r4, #64]	; 0x40
 8004394:	f884 c03d 	strb.w	ip, [r4, #61]	; 0x3d
 8004398:	f884 c03e 	strb.w	ip, [r4, #62]	; 0x3e
 800439c:	bdf8      	pop	{r3, r4, r5, r6, r7, pc}
 800439e:	f880 203c 	strb.w	r2, [r0, #60]	; 0x3c
 80043a2:	f7fd f993 	bl	80016cc <HAL_UART_MspInit>
 80043a6:	e7a5      	b.n	80042f4 <HAL_UART_Init+0x14>
 80043a8:	f7fe fdec 	bl	8002f84 <HAL_RCC_GetPCLK2Freq>
 80043ac:	e7c9      	b.n	8004342 <HAL_UART_Init+0x62>
 80043ae:	2001      	movs	r0, #1
 80043b0:	4770      	bx	lr
 80043b2:	bf00      	nop
 80043b4:	40013800 	.word	0x40013800
 80043b8:	51eb851f 	.word	0x51eb851f

080043bc <HAL_UART_Transmit>:
 80043bc:	e92d 43f8 	stmdb	sp!, {r3, r4, r5, r6, r7, r8, r9, lr}
 80043c0:	461d      	mov	r5, r3
 80043c2:	f890 303d 	ldrb.w	r3, [r0, #61]	; 0x3d
 80043c6:	2b20      	cmp	r3, #32
 80043c8:	d168      	bne.n	800449c <HAL_UART_Transmit+0xe0>
 80043ca:	4688      	mov	r8, r1
 80043cc:	2900      	cmp	r1, #0
 80043ce:	d040      	beq.n	8004452 <HAL_UART_Transmit+0x96>
 80043d0:	4617      	mov	r7, r2
 80043d2:	2a00      	cmp	r2, #0
 80043d4:	d03d      	beq.n	8004452 <HAL_UART_Transmit+0x96>
 80043d6:	f890 303c 	ldrb.w	r3, [r0, #60]	; 0x3c
 80043da:	4604      	mov	r4, r0
 80043dc:	2b01      	cmp	r3, #1
 80043de:	d05d      	beq.n	800449c <HAL_UART_Transmit+0xe0>
 80043e0:	2321      	movs	r3, #33	; 0x21
 80043e2:	2201      	movs	r2, #1
 80043e4:	f04f 0900 	mov.w	r9, #0
 80043e8:	f880 203c 	strb.w	r2, [r0, #60]	; 0x3c
 80043ec:	f8c0 9040 	str.w	r9, [r0, #64]	; 0x40
 80043f0:	f880 303d 	strb.w	r3, [r0, #61]	; 0x3d
 80043f4:	f7fd fab6 	bl	8001964 <HAL_GetTick>
 80043f8:	68a3      	ldr	r3, [r4, #8]
 80043fa:	4606      	mov	r6, r0
 80043fc:	f5b3 5f80 	cmp.w	r3, #4096	; 0x1000
 8004400:	84a7      	strh	r7, [r4, #36]	; 0x24
 8004402:	84e7      	strh	r7, [r4, #38]	; 0x26
 8004404:	d04d      	beq.n	80044a2 <HAL_UART_Transmit+0xe6>
 8004406:	2300      	movs	r3, #0
 8004408:	f884 303c 	strb.w	r3, [r4, #60]	; 0x3c
 800440c:	8ce3      	ldrh	r3, [r4, #38]	; 0x26
 800440e:	b29b      	uxth	r3, r3
 8004410:	2b00      	cmp	r3, #0
 8004412:	d058      	beq.n	80044c6 <HAL_UART_Transmit+0x10a>
 8004414:	6823      	ldr	r3, [r4, #0]
 8004416:	1c69      	adds	r1, r5, #1
 8004418:	d11e      	bne.n	8004458 <HAL_UART_Transmit+0x9c>
 800441a:	681a      	ldr	r2, [r3, #0]
 800441c:	0612      	lsls	r2, r2, #24
 800441e:	d5fc      	bpl.n	800441a <HAL_UART_Transmit+0x5e>
 8004420:	f1b8 0f00 	cmp.w	r8, #0
 8004424:	d035      	beq.n	8004492 <HAL_UART_Transmit+0xd6>
 8004426:	f818 2b01 	ldrb.w	r2, [r8], #1
 800442a:	605a      	str	r2, [r3, #4]
 800442c:	8ce2      	ldrh	r2, [r4, #38]	; 0x26
 800442e:	3a01      	subs	r2, #1
 8004430:	b292      	uxth	r2, r2
 8004432:	84e2      	strh	r2, [r4, #38]	; 0x26
 8004434:	8ce2      	ldrh	r2, [r4, #38]	; 0x26
 8004436:	b292      	uxth	r2, r2
 8004438:	2a00      	cmp	r2, #0
 800443a:	d1ec      	bne.n	8004416 <HAL_UART_Transmit+0x5a>
 800443c:	1c68      	adds	r0, r5, #1
 800443e:	d136      	bne.n	80044ae <HAL_UART_Transmit+0xf2>
 8004440:	681a      	ldr	r2, [r3, #0]
 8004442:	0651      	lsls	r1, r2, #25
 8004444:	d5fc      	bpl.n	8004440 <HAL_UART_Transmit+0x84>
 8004446:	2320      	movs	r3, #32
 8004448:	f884 303d 	strb.w	r3, [r4, #61]	; 0x3d
 800444c:	2000      	movs	r0, #0
 800444e:	e8bd 83f8 	ldmia.w	sp!, {r3, r4, r5, r6, r7, r8, r9, pc}
 8004452:	2001      	movs	r0, #1
 8004454:	e8bd 83f8 	ldmia.w	sp!, {r3, r4, r5, r6, r7, r8, r9, pc}
 8004458:	681a      	ldr	r2, [r3, #0]
 800445a:	0617      	lsls	r7, r2, #24
 800445c:	d4e0      	bmi.n	8004420 <HAL_UART_Transmit+0x64>
 800445e:	b12d      	cbz	r5, 800446c <HAL_UART_Transmit+0xb0>
 8004460:	f7fd fa80 	bl	8001964 <HAL_GetTick>
 8004464:	1b80      	subs	r0, r0, r6
 8004466:	4285      	cmp	r5, r0
 8004468:	6823      	ldr	r3, [r4, #0]
 800446a:	d2d4      	bcs.n	8004416 <HAL_UART_Transmit+0x5a>
 800446c:	2120      	movs	r1, #32
 800446e:	2500      	movs	r5, #0
 8004470:	68da      	ldr	r2, [r3, #12]
 8004472:	2003      	movs	r0, #3
 8004474:	f422 72d0 	bic.w	r2, r2, #416	; 0x1a0
 8004478:	60da      	str	r2, [r3, #12]
 800447a:	695a      	ldr	r2, [r3, #20]
 800447c:	f022 0201 	bic.w	r2, r2, #1
 8004480:	615a      	str	r2, [r3, #20]
 8004482:	f884 103d 	strb.w	r1, [r4, #61]	; 0x3d
 8004486:	f884 503c 	strb.w	r5, [r4, #60]	; 0x3c
 800448a:	f884 103e 	strb.w	r1, [r4, #62]	; 0x3e
 800448e:	e8bd 83f8 	ldmia.w	sp!, {r3, r4, r5, r6, r7, r8, r9, pc}
 8004492:	f839 2b02 	ldrh.w	r2, [r9], #2
 8004496:	f3c2 0208 	ubfx	r2, r2, #0, #9
 800449a:	e7c6      	b.n	800442a <HAL_UART_Transmit+0x6e>
 800449c:	2002      	movs	r0, #2
 800449e:	e8bd 83f8 	ldmia.w	sp!, {r3, r4, r5, r6, r7, r8, r9, pc}
 80044a2:	6923      	ldr	r3, [r4, #16]
 80044a4:	2b00      	cmp	r3, #0
 80044a6:	d1ae      	bne.n	8004406 <HAL_UART_Transmit+0x4a>
 80044a8:	46c1      	mov	r9, r8
 80044aa:	4698      	mov	r8, r3
 80044ac:	e7ab      	b.n	8004406 <HAL_UART_Transmit+0x4a>
 80044ae:	681a      	ldr	r2, [r3, #0]
 80044b0:	0652      	lsls	r2, r2, #25
 80044b2:	d4c8      	bmi.n	8004446 <HAL_UART_Transmit+0x8a>
 80044b4:	2d00      	cmp	r5, #0
 80044b6:	d0d9      	beq.n	800446c <HAL_UART_Transmit+0xb0>
 80044b8:	f7fd fa54 	bl	8001964 <HAL_GetTick>
 80044bc:	1b83      	subs	r3, r0, r6
 80044be:	429d      	cmp	r5, r3
 80044c0:	6823      	ldr	r3, [r4, #0]
 80044c2:	d2bb      	bcs.n	800443c <HAL_UART_Transmit+0x80>
 80044c4:	e7d2      	b.n	800446c <HAL_UART_Transmit+0xb0>
 80044c6:	6823      	ldr	r3, [r4, #0]
 80044c8:	e7b8      	b.n	800443c <HAL_UART_Transmit+0x80>
 80044ca:	bf00      	nop

080044cc <HAL_UART_TxCpltCallback>:
 80044cc:	4770      	bx	lr
 80044ce:	bf00      	nop

080044d0 <HAL_UART_RxCpltCallback>:
 80044d0:	4770      	bx	lr
 80044d2:	bf00      	nop

080044d4 <HAL_UART_ErrorCallback>:
 80044d4:	4770      	bx	lr
 80044d6:	bf00      	nop

080044d8 <UART_DMAAbortOnError>:
 80044d8:	b508      	push	{r3, lr}
 80044da:	2300      	movs	r3, #0
 80044dc:	6a40      	ldr	r0, [r0, #36]	; 0x24
 80044de:	85c3      	strh	r3, [r0, #46]	; 0x2e
 80044e0:	84c3      	strh	r3, [r0, #38]	; 0x26
 80044e2:	f7ff fff7 	bl	80044d4 <HAL_UART_ErrorCallback>
 80044e6:	bd08      	pop	{r3, pc}

080044e8 <HAL_UARTEx_RxEventCallback>:
 80044e8:	4770      	bx	lr
 80044ea:	bf00      	nop

080044ec <UART_Receive_IT.part.0.isra.0>:
 80044ec:	6883      	ldr	r3, [r0, #8]
 80044ee:	f5b3 5f80 	cmp.w	r3, #4096	; 0x1000
 80044f2:	d03b      	beq.n	800456c <UART_Receive_IT.part.0.isra.0+0x80>
 80044f4:	6a82      	ldr	r2, [r0, #40]	; 0x28
 80044f6:	2b00      	cmp	r3, #0
 80044f8:	d030      	beq.n	800455c <UART_Receive_IT.part.0.isra.0+0x70>
 80044fa:	6803      	ldr	r3, [r0, #0]
 80044fc:	685b      	ldr	r3, [r3, #4]
 80044fe:	f003 037f 	and.w	r3, r3, #127	; 0x7f
 8004502:	7013      	strb	r3, [r2, #0]
 8004504:	6a83      	ldr	r3, [r0, #40]	; 0x28
 8004506:	3301      	adds	r3, #1
 8004508:	6283      	str	r3, [r0, #40]	; 0x28
 800450a:	8dc3      	ldrh	r3, [r0, #46]	; 0x2e
 800450c:	3b01      	subs	r3, #1
 800450e:	b29b      	uxth	r3, r3
 8004510:	85c3      	strh	r3, [r0, #46]	; 0x2e
 8004512:	bb53      	cbnz	r3, 800456a <UART_Receive_IT.part.0.isra.0+0x7e>
 8004514:	f04f 0c20 	mov.w	ip, #32
 8004518:	6802      	ldr	r2, [r0, #0]
 800451a:	b500      	push	{lr}
 800451c:	68d1      	ldr	r1, [r2, #12]
 800451e:	b083      	sub	sp, #12
 8004520:	f021 0120 	bic.w	r1, r1, #32
 8004524:	60d1      	str	r1, [r2, #12]
 8004526:	68d1      	ldr	r1, [r2, #12]
 8004528:	f421 7180 	bic.w	r1, r1, #256	; 0x100
 800452c:	60d1      	str	r1, [r2, #12]
 800452e:	6951      	ldr	r1, [r2, #20]
 8004530:	f021 0101 	bic.w	r1, r1, #1
 8004534:	6151      	str	r1, [r2, #20]
 8004536:	f880 c03e 	strb.w	ip, [r0, #62]	; 0x3e
 800453a:	6b01      	ldr	r1, [r0, #48]	; 0x30
 800453c:	2901      	cmp	r1, #1
 800453e:	d120      	bne.n	8004582 <UART_Receive_IT.part.0.isra.0+0x96>
 8004540:	6303      	str	r3, [r0, #48]	; 0x30
 8004542:	68d1      	ldr	r1, [r2, #12]
 8004544:	f021 0110 	bic.w	r1, r1, #16
 8004548:	60d1      	str	r1, [r2, #12]
 800454a:	6811      	ldr	r1, [r2, #0]
 800454c:	06c9      	lsls	r1, r1, #27
 800454e:	d422      	bmi.n	8004596 <UART_Receive_IT.part.0.isra.0+0xaa>
 8004550:	8d81      	ldrh	r1, [r0, #44]	; 0x2c
 8004552:	f7ff ffc9 	bl	80044e8 <HAL_UARTEx_RxEventCallback>
 8004556:	b003      	add	sp, #12
 8004558:	f85d fb04 	ldr.w	pc, [sp], #4
 800455c:	6903      	ldr	r3, [r0, #16]
 800455e:	2b00      	cmp	r3, #0
 8004560:	d1cb      	bne.n	80044fa <UART_Receive_IT.part.0.isra.0+0xe>
 8004562:	6803      	ldr	r3, [r0, #0]
 8004564:	685b      	ldr	r3, [r3, #4]
 8004566:	7013      	strb	r3, [r2, #0]
 8004568:	e7cc      	b.n	8004504 <UART_Receive_IT.part.0.isra.0+0x18>
 800456a:	4770      	bx	lr
 800456c:	6903      	ldr	r3, [r0, #16]
 800456e:	b96b      	cbnz	r3, 800458c <UART_Receive_IT.part.0.isra.0+0xa0>
 8004570:	6802      	ldr	r2, [r0, #0]
 8004572:	6a83      	ldr	r3, [r0, #40]	; 0x28
 8004574:	6852      	ldr	r2, [r2, #4]
 8004576:	f3c2 0208 	ubfx	r2, r2, #0, #9
 800457a:	f823 2b02 	strh.w	r2, [r3], #2
 800457e:	6283      	str	r3, [r0, #40]	; 0x28
 8004580:	e7c3      	b.n	800450a <UART_Receive_IT.part.0.isra.0+0x1e>
 8004582:	f7ff ffa5 	bl	80044d0 <HAL_UART_RxCpltCallback>
 8004586:	b003      	add	sp, #12
 8004588:	f85d fb04 	ldr.w	pc, [sp], #4
 800458c:	6803      	ldr	r3, [r0, #0]
 800458e:	6a82      	ldr	r2, [r0, #40]	; 0x28
 8004590:	685b      	ldr	r3, [r3, #4]
 8004592:	7013      	strb	r3, [r2, #0]
 8004594:	e7b6      	b.n	8004504 <UART_Receive_IT.part.0.isra.0+0x18>
 8004596:	9301      	str	r3, [sp, #4]
 8004598:	6813      	ldr	r3, [r2, #0]
 800459a:	9301      	str	r3, [sp, #4]
 800459c:	6853      	ldr	r3, [r2, #4]
 800459e:	9301      	str	r3, [sp, #4]
 80045a0:	9b01      	ldr	r3, [sp, #4]
 80045a2:	e7d5      	b.n	8004550 <UART_Receive_IT.part.0.isra.0+0x64>

080045a4 <HAL_UART_IRQHandler>:
 80045a4:	b530      	push	{r4, r5, lr}
 80045a6:	6803      	ldr	r3, [r0, #0]
 80045a8:	4604      	mov	r4, r0
 80045aa:	681a      	ldr	r2, [r3, #0]
 80045ac:	b083      	sub	sp, #12
 80045ae:	f012 0f0f 	tst.w	r2, #15
 80045b2:	68d9      	ldr	r1, [r3, #12]
 80045b4:	695d      	ldr	r5, [r3, #20]
 80045b6:	d14e      	bne.n	8004656 <HAL_UART_IRQHandler+0xb2>
 80045b8:	0695      	lsls	r5, r2, #26
 80045ba:	d502      	bpl.n	80045c2 <HAL_UART_IRQHandler+0x1e>
 80045bc:	068d      	lsls	r5, r1, #26
 80045be:	f100 8090 	bmi.w	80046e2 <HAL_UART_IRQHandler+0x13e>
 80045c2:	6b20      	ldr	r0, [r4, #48]	; 0x30
 80045c4:	2801      	cmp	r0, #1
 80045c6:	d00b      	beq.n	80045e0 <HAL_UART_IRQHandler+0x3c>
 80045c8:	0610      	lsls	r0, r2, #24
 80045ca:	d502      	bpl.n	80045d2 <HAL_UART_IRQHandler+0x2e>
 80045cc:	060d      	lsls	r5, r1, #24
 80045ce:	f100 8092 	bmi.w	80046f6 <HAL_UART_IRQHandler+0x152>
 80045d2:	0650      	lsls	r0, r2, #25
 80045d4:	d502      	bpl.n	80045dc <HAL_UART_IRQHandler+0x38>
 80045d6:	064a      	lsls	r2, r1, #25
 80045d8:	f100 80ab 	bmi.w	8004732 <HAL_UART_IRQHandler+0x18e>
 80045dc:	b003      	add	sp, #12
 80045de:	bd30      	pop	{r4, r5, pc}
 80045e0:	06d0      	lsls	r0, r2, #27
 80045e2:	d5f1      	bpl.n	80045c8 <HAL_UART_IRQHandler+0x24>
 80045e4:	06cd      	lsls	r5, r1, #27
 80045e6:	d5ef      	bpl.n	80045c8 <HAL_UART_IRQHandler+0x24>
 80045e8:	2100      	movs	r1, #0
 80045ea:	9101      	str	r1, [sp, #4]
 80045ec:	681a      	ldr	r2, [r3, #0]
 80045ee:	9201      	str	r2, [sp, #4]
 80045f0:	685a      	ldr	r2, [r3, #4]
 80045f2:	9201      	str	r2, [sp, #4]
 80045f4:	9a01      	ldr	r2, [sp, #4]
 80045f6:	695a      	ldr	r2, [r3, #20]
 80045f8:	f012 0240 	ands.w	r2, r2, #64	; 0x40
 80045fc:	f000 80d2 	beq.w	80047a4 <HAL_UART_IRQHandler+0x200>
 8004600:	6ba0      	ldr	r0, [r4, #56]	; 0x38
 8004602:	6802      	ldr	r2, [r0, #0]
 8004604:	6852      	ldr	r2, [r2, #4]
 8004606:	b292      	uxth	r2, r2
 8004608:	2a00      	cmp	r2, #0
 800460a:	d0e7      	beq.n	80045dc <HAL_UART_IRQHandler+0x38>
 800460c:	8da5      	ldrh	r5, [r4, #44]	; 0x2c
 800460e:	4295      	cmp	r5, r2
 8004610:	d9e4      	bls.n	80045dc <HAL_UART_IRQHandler+0x38>
 8004612:	85e2      	strh	r2, [r4, #46]	; 0x2e
 8004614:	6982      	ldr	r2, [r0, #24]
 8004616:	2a20      	cmp	r2, #32
 8004618:	d016      	beq.n	8004648 <HAL_UART_IRQHandler+0xa4>
 800461a:	68da      	ldr	r2, [r3, #12]
 800461c:	f422 7280 	bic.w	r2, r2, #256	; 0x100
 8004620:	60da      	str	r2, [r3, #12]
 8004622:	695a      	ldr	r2, [r3, #20]
 8004624:	f022 0201 	bic.w	r2, r2, #1
 8004628:	615a      	str	r2, [r3, #20]
 800462a:	695a      	ldr	r2, [r3, #20]
 800462c:	f022 0240 	bic.w	r2, r2, #64	; 0x40
 8004630:	615a      	str	r2, [r3, #20]
 8004632:	2220      	movs	r2, #32
 8004634:	f884 203e 	strb.w	r2, [r4, #62]	; 0x3e
 8004638:	6321      	str	r1, [r4, #48]	; 0x30
 800463a:	68da      	ldr	r2, [r3, #12]
 800463c:	f022 0210 	bic.w	r2, r2, #16
 8004640:	60da      	str	r2, [r3, #12]
 8004642:	f7fd feb9 	bl	80023b8 <HAL_DMA_Abort>
 8004646:	8da5      	ldrh	r5, [r4, #44]	; 0x2c
 8004648:	8de1      	ldrh	r1, [r4, #46]	; 0x2e
 800464a:	4620      	mov	r0, r4
 800464c:	1a69      	subs	r1, r5, r1
 800464e:	b289      	uxth	r1, r1
 8004650:	f7ff ff4a 	bl	80044e8 <HAL_UARTEx_RxEventCallback>
 8004654:	e7c2      	b.n	80045dc <HAL_UART_IRQHandler+0x38>
 8004656:	f005 0501 	and.w	r5, r5, #1
 800465a:	f401 7090 	and.w	r0, r1, #288	; 0x120
 800465e:	4328      	orrs	r0, r5
 8004660:	d0af      	beq.n	80045c2 <HAL_UART_IRQHandler+0x1e>
 8004662:	07d0      	lsls	r0, r2, #31
 8004664:	d505      	bpl.n	8004672 <HAL_UART_IRQHandler+0xce>
 8004666:	05c8      	lsls	r0, r1, #23
 8004668:	d503      	bpl.n	8004672 <HAL_UART_IRQHandler+0xce>
 800466a:	6c20      	ldr	r0, [r4, #64]	; 0x40
 800466c:	f040 0001 	orr.w	r0, r0, #1
 8004670:	6420      	str	r0, [r4, #64]	; 0x40
 8004672:	0750      	lsls	r0, r2, #29
 8004674:	d530      	bpl.n	80046d8 <HAL_UART_IRQHandler+0x134>
 8004676:	b14d      	cbz	r5, 800468c <HAL_UART_IRQHandler+0xe8>
 8004678:	6c20      	ldr	r0, [r4, #64]	; 0x40
 800467a:	f040 0002 	orr.w	r0, r0, #2
 800467e:	6420      	str	r0, [r4, #64]	; 0x40
 8004680:	0790      	lsls	r0, r2, #30
 8004682:	d503      	bpl.n	800468c <HAL_UART_IRQHandler+0xe8>
 8004684:	6c20      	ldr	r0, [r4, #64]	; 0x40
 8004686:	f040 0004 	orr.w	r0, r0, #4
 800468a:	6420      	str	r0, [r4, #64]	; 0x40
 800468c:	0710      	lsls	r0, r2, #28
 800468e:	d507      	bpl.n	80046a0 <HAL_UART_IRQHandler+0xfc>
 8004690:	f001 0020 	and.w	r0, r1, #32
 8004694:	4328      	orrs	r0, r5
 8004696:	d003      	beq.n	80046a0 <HAL_UART_IRQHandler+0xfc>
 8004698:	6c20      	ldr	r0, [r4, #64]	; 0x40
 800469a:	f040 0008 	orr.w	r0, r0, #8
 800469e:	6420      	str	r0, [r4, #64]	; 0x40
 80046a0:	6c20      	ldr	r0, [r4, #64]	; 0x40
 80046a2:	2800      	cmp	r0, #0
 80046a4:	d09a      	beq.n	80045dc <HAL_UART_IRQHandler+0x38>
 80046a6:	0690      	lsls	r0, r2, #26
 80046a8:	d509      	bpl.n	80046be <HAL_UART_IRQHandler+0x11a>
 80046aa:	068a      	lsls	r2, r1, #26
 80046ac:	d507      	bpl.n	80046be <HAL_UART_IRQHandler+0x11a>
 80046ae:	f894 203e 	ldrb.w	r2, [r4, #62]	; 0x3e
 80046b2:	2a22      	cmp	r2, #34	; 0x22
 80046b4:	d103      	bne.n	80046be <HAL_UART_IRQHandler+0x11a>
 80046b6:	4620      	mov	r0, r4
 80046b8:	f7ff ff18 	bl	80044ec <UART_Receive_IT.part.0.isra.0>
 80046bc:	6823      	ldr	r3, [r4, #0]
 80046be:	695a      	ldr	r2, [r3, #20]
 80046c0:	6c25      	ldr	r5, [r4, #64]	; 0x40
 80046c2:	f002 0240 	and.w	r2, r2, #64	; 0x40
 80046c6:	f005 0508 	and.w	r5, r5, #8
 80046ca:	4315      	orrs	r5, r2
 80046cc:	d13c      	bne.n	8004748 <HAL_UART_IRQHandler+0x1a4>
 80046ce:	4620      	mov	r0, r4
 80046d0:	f7ff ff00 	bl	80044d4 <HAL_UART_ErrorCallback>
 80046d4:	6425      	str	r5, [r4, #64]	; 0x40
 80046d6:	e781      	b.n	80045dc <HAL_UART_IRQHandler+0x38>
 80046d8:	0790      	lsls	r0, r2, #30
 80046da:	d5d7      	bpl.n	800468c <HAL_UART_IRQHandler+0xe8>
 80046dc:	2d00      	cmp	r5, #0
 80046de:	d1d1      	bne.n	8004684 <HAL_UART_IRQHandler+0xe0>
 80046e0:	e7d4      	b.n	800468c <HAL_UART_IRQHandler+0xe8>
 80046e2:	f890 303e 	ldrb.w	r3, [r0, #62]	; 0x3e
 80046e6:	2b22      	cmp	r3, #34	; 0x22
 80046e8:	f47f af78 	bne.w	80045dc <HAL_UART_IRQHandler+0x38>
 80046ec:	b003      	add	sp, #12
 80046ee:	e8bd 4030 	ldmia.w	sp!, {r4, r5, lr}
 80046f2:	f7ff befb 	b.w	80044ec <UART_Receive_IT.part.0.isra.0>
 80046f6:	f894 203d 	ldrb.w	r2, [r4, #61]	; 0x3d
 80046fa:	2a21      	cmp	r2, #33	; 0x21
 80046fc:	f47f af6e 	bne.w	80045dc <HAL_UART_IRQHandler+0x38>
 8004700:	68a2      	ldr	r2, [r4, #8]
 8004702:	f5b2 5f80 	cmp.w	r2, #4096	; 0x1000
 8004706:	d06e      	beq.n	80047e6 <HAL_UART_IRQHandler+0x242>
 8004708:	6a22      	ldr	r2, [r4, #32]
 800470a:	1c51      	adds	r1, r2, #1
 800470c:	6221      	str	r1, [r4, #32]
 800470e:	7812      	ldrb	r2, [r2, #0]
 8004710:	605a      	str	r2, [r3, #4]
 8004712:	8ce2      	ldrh	r2, [r4, #38]	; 0x26
 8004714:	3a01      	subs	r2, #1
 8004716:	b292      	uxth	r2, r2
 8004718:	84e2      	strh	r2, [r4, #38]	; 0x26
 800471a:	2a00      	cmp	r2, #0
 800471c:	f47f af5e 	bne.w	80045dc <HAL_UART_IRQHandler+0x38>
 8004720:	68da      	ldr	r2, [r3, #12]
 8004722:	f022 0280 	bic.w	r2, r2, #128	; 0x80
 8004726:	60da      	str	r2, [r3, #12]
 8004728:	68da      	ldr	r2, [r3, #12]
 800472a:	f042 0240 	orr.w	r2, r2, #64	; 0x40
 800472e:	60da      	str	r2, [r3, #12]
 8004730:	e754      	b.n	80045dc <HAL_UART_IRQHandler+0x38>
 8004732:	2120      	movs	r1, #32
 8004734:	68da      	ldr	r2, [r3, #12]
 8004736:	4620      	mov	r0, r4
 8004738:	f022 0240 	bic.w	r2, r2, #64	; 0x40
 800473c:	60da      	str	r2, [r3, #12]
 800473e:	f884 103d 	strb.w	r1, [r4, #61]	; 0x3d
 8004742:	f7ff fec3 	bl	80044cc <HAL_UART_TxCpltCallback>
 8004746:	e749      	b.n	80045dc <HAL_UART_IRQHandler+0x38>
 8004748:	68da      	ldr	r2, [r3, #12]
 800474a:	f422 7290 	bic.w	r2, r2, #288	; 0x120
 800474e:	60da      	str	r2, [r3, #12]
 8004750:	695a      	ldr	r2, [r3, #20]
 8004752:	f022 0201 	bic.w	r2, r2, #1
 8004756:	615a      	str	r2, [r3, #20]
 8004758:	6b22      	ldr	r2, [r4, #48]	; 0x30
 800475a:	2a01      	cmp	r2, #1
 800475c:	d103      	bne.n	8004766 <HAL_UART_IRQHandler+0x1c2>
 800475e:	68da      	ldr	r2, [r3, #12]
 8004760:	f022 0210 	bic.w	r2, r2, #16
 8004764:	60da      	str	r2, [r3, #12]
 8004766:	2200      	movs	r2, #0
 8004768:	2120      	movs	r1, #32
 800476a:	f884 103e 	strb.w	r1, [r4, #62]	; 0x3e
 800476e:	6322      	str	r2, [r4, #48]	; 0x30
 8004770:	695a      	ldr	r2, [r3, #20]
 8004772:	0655      	lsls	r5, r2, #25
 8004774:	d512      	bpl.n	800479c <HAL_UART_IRQHandler+0x1f8>
 8004776:	695a      	ldr	r2, [r3, #20]
 8004778:	6ba0      	ldr	r0, [r4, #56]	; 0x38
 800477a:	f022 0240 	bic.w	r2, r2, #64	; 0x40
 800477e:	615a      	str	r2, [r3, #20]
 8004780:	b160      	cbz	r0, 800479c <HAL_UART_IRQHandler+0x1f8>
 8004782:	4b1e      	ldr	r3, [pc, #120]	; (80047fc <HAL_UART_IRQHandler+0x258>)
 8004784:	6343      	str	r3, [r0, #52]	; 0x34
 8004786:	f7fd fe39 	bl	80023fc <HAL_DMA_Abort_IT>
 800478a:	2800      	cmp	r0, #0
 800478c:	f43f af26 	beq.w	80045dc <HAL_UART_IRQHandler+0x38>
 8004790:	6ba0      	ldr	r0, [r4, #56]	; 0x38
 8004792:	6b43      	ldr	r3, [r0, #52]	; 0x34
 8004794:	b003      	add	sp, #12
 8004796:	e8bd 4030 	ldmia.w	sp!, {r4, r5, lr}
 800479a:	4718      	bx	r3
 800479c:	4620      	mov	r0, r4
 800479e:	f7ff fe99 	bl	80044d4 <HAL_UART_ErrorCallback>
 80047a2:	e71b      	b.n	80045dc <HAL_UART_IRQHandler+0x38>
 80047a4:	8de0      	ldrh	r0, [r4, #46]	; 0x2e
 80047a6:	8de1      	ldrh	r1, [r4, #46]	; 0x2e
 80047a8:	b280      	uxth	r0, r0
 80047aa:	b289      	uxth	r1, r1
 80047ac:	2900      	cmp	r1, #0
 80047ae:	f43f af15 	beq.w	80045dc <HAL_UART_IRQHandler+0x38>
 80047b2:	8da1      	ldrh	r1, [r4, #44]	; 0x2c
 80047b4:	1a08      	subs	r0, r1, r0
 80047b6:	b281      	uxth	r1, r0
 80047b8:	2900      	cmp	r1, #0
 80047ba:	f43f af0f 	beq.w	80045dc <HAL_UART_IRQHandler+0x38>
 80047be:	2520      	movs	r5, #32
 80047c0:	68d8      	ldr	r0, [r3, #12]
 80047c2:	f420 7090 	bic.w	r0, r0, #288	; 0x120
 80047c6:	60d8      	str	r0, [r3, #12]
 80047c8:	6958      	ldr	r0, [r3, #20]
 80047ca:	f020 0001 	bic.w	r0, r0, #1
 80047ce:	6158      	str	r0, [r3, #20]
 80047d0:	f884 503e 	strb.w	r5, [r4, #62]	; 0x3e
 80047d4:	6322      	str	r2, [r4, #48]	; 0x30
 80047d6:	68da      	ldr	r2, [r3, #12]
 80047d8:	4620      	mov	r0, r4
 80047da:	f022 0210 	bic.w	r2, r2, #16
 80047de:	60da      	str	r2, [r3, #12]
 80047e0:	f7ff fe82 	bl	80044e8 <HAL_UARTEx_RxEventCallback>
 80047e4:	e6fa      	b.n	80045dc <HAL_UART_IRQHandler+0x38>
 80047e6:	6922      	ldr	r2, [r4, #16]
 80047e8:	2a00      	cmp	r2, #0
 80047ea:	d18d      	bne.n	8004708 <HAL_UART_IRQHandler+0x164>
 80047ec:	6a22      	ldr	r2, [r4, #32]
 80047ee:	f832 1b02 	ldrh.w	r1, [r2], #2
 80047f2:	f3c1 0108 	ubfx	r1, r1, #0, #9
 80047f6:	6059      	str	r1, [r3, #4]
 80047f8:	6222      	str	r2, [r4, #32]
 80047fa:	e78a      	b.n	8004712 <HAL_UART_IRQHandler+0x16e>
 80047fc:	080044d9 	.word	0x080044d9

08004800 <HAL_SPI_TxCpltCallback>:
 8004800:	b510      	push	{r4, lr}
 8004802:	4c08      	ldr	r4, [pc, #32]	; (8004824 <HAL_SPI_TxCpltCallback+0x24>)
 8004804:	2200      	movs	r2, #0
 8004806:	f44f 4100 	mov.w	r1, #32768	; 0x8000
 800480a:	4620      	mov	r0, r4
 800480c:	f7fd ffe2 	bl	80027d4 <HAL_GPIO_WritePin>
 8004810:	2201      	movs	r2, #1
 8004812:	f44f 5180 	mov.w	r1, #4096	; 0x1000
 8004816:	4620      	mov	r0, r4
 8004818:	f7fd ffdc 	bl	80027d4 <HAL_GPIO_WritePin>
 800481c:	2201      	movs	r2, #1
 800481e:	4b02      	ldr	r3, [pc, #8]	; (8004828 <HAL_SPI_TxCpltCallback+0x28>)
 8004820:	701a      	strb	r2, [r3, #0]
 8004822:	bd10      	pop	{r4, pc}
 8004824:	40010800 	.word	0x40010800
 8004828:	2000000c 	.word	0x2000000c

0800482c <ssd1309PageUpdRoutine>:
 800482c:	e92d 41f0 	stmdb	sp!, {r4, r5, r6, r7, r8, lr}
 8004830:	4e31      	ldr	r6, [pc, #196]	; (80048f8 <ssd1309PageUpdRoutine+0xcc>)
 8004832:	b082      	sub	sp, #8
 8004834:	7834      	ldrb	r4, [r6, #0]
 8004836:	b114      	cbz	r4, 800483e <ssd1309PageUpdRoutine+0x12>
 8004838:	b002      	add	sp, #8
 800483a:	e8bd 81f0 	ldmia.w	sp!, {r4, r5, r6, r7, r8, pc}
 800483e:	4f2f      	ldr	r7, [pc, #188]	; (80048fc <ssd1309PageUpdRoutine+0xd0>)
 8004840:	f44f 4100 	mov.w	r1, #32768	; 0x8000
 8004844:	683b      	ldr	r3, [r7, #0]
 8004846:	4622      	mov	r2, r4
 8004848:	f063 034f 	orn	r3, r3, #79	; 0x4f
 800484c:	482c      	ldr	r0, [pc, #176]	; (8004900 <ssd1309PageUpdRoutine+0xd4>)
 800484e:	f88d 3004 	strb.w	r3, [sp, #4]
 8004852:	f7fd ffbf 	bl	80027d4 <HAL_GPIO_WritePin>
 8004856:	4622      	mov	r2, r4
 8004858:	f44f 5180 	mov.w	r1, #4096	; 0x1000
 800485c:	4828      	ldr	r0, [pc, #160]	; (8004900 <ssd1309PageUpdRoutine+0xd4>)
 800485e:	f7fd ffb9 	bl	80027d4 <HAL_GPIO_WritePin>
 8004862:	2301      	movs	r3, #1
 8004864:	f44f 5580 	mov.w	r5, #4096	; 0x1000
 8004868:	461a      	mov	r2, r3
 800486a:	a901      	add	r1, sp, #4
 800486c:	4825      	ldr	r0, [pc, #148]	; (8004904 <ssd1309PageUpdRoutine+0xd8>)
 800486e:	f7fe fdad 	bl	80033cc <HAL_SPI_Transmit>
 8004872:	2201      	movs	r2, #1
 8004874:	4629      	mov	r1, r5
 8004876:	4822      	ldr	r0, [pc, #136]	; (8004900 <ssd1309PageUpdRoutine+0xd4>)
 8004878:	f7fd ffac 	bl	80027d4 <HAL_GPIO_WritePin>
 800487c:	4622      	mov	r2, r4
 800487e:	f44f 4100 	mov.w	r1, #32768	; 0x8000
 8004882:	481f      	ldr	r0, [pc, #124]	; (8004900 <ssd1309PageUpdRoutine+0xd4>)
 8004884:	f8ad 5004 	strh.w	r5, [sp, #4]
 8004888:	f7fd ffa4 	bl	80027d4 <HAL_GPIO_WritePin>
 800488c:	4622      	mov	r2, r4
 800488e:	4629      	mov	r1, r5
 8004890:	481b      	ldr	r0, [pc, #108]	; (8004900 <ssd1309PageUpdRoutine+0xd4>)
 8004892:	f7fd ff9f 	bl	80027d4 <HAL_GPIO_WritePin>
 8004896:	f8df 8070 	ldr.w	r8, [pc, #112]	; 8004908 <ssd1309PageUpdRoutine+0xdc>
 800489a:	2301      	movs	r3, #1
 800489c:	2202      	movs	r2, #2
 800489e:	a901      	add	r1, sp, #4
 80048a0:	4818      	ldr	r0, [pc, #96]	; (8004904 <ssd1309PageUpdRoutine+0xd8>)
 80048a2:	f7fe fd93 	bl	80033cc <HAL_SPI_Transmit>
 80048a6:	2201      	movs	r2, #1
 80048a8:	4629      	mov	r1, r5
 80048aa:	4815      	ldr	r0, [pc, #84]	; (8004900 <ssd1309PageUpdRoutine+0xd4>)
 80048ac:	f7fd ff92 	bl	80027d4 <HAL_GPIO_WritePin>
 80048b0:	f898 3000 	ldrb.w	r3, [r8]
 80048b4:	2b00      	cmp	r3, #0
 80048b6:	d0bf      	beq.n	8004838 <ssd1309PageUpdRoutine+0xc>
 80048b8:	2201      	movs	r2, #1
 80048ba:	f44f 4100 	mov.w	r1, #32768	; 0x8000
 80048be:	4810      	ldr	r0, [pc, #64]	; (8004900 <ssd1309PageUpdRoutine+0xd4>)
 80048c0:	f7fd ff88 	bl	80027d4 <HAL_GPIO_WritePin>
 80048c4:	4622      	mov	r2, r4
 80048c6:	4629      	mov	r1, r5
 80048c8:	480d      	ldr	r0, [pc, #52]	; (8004900 <ssd1309PageUpdRoutine+0xd4>)
 80048ca:	f7fd ff83 	bl	80027d4 <HAL_GPIO_WritePin>
 80048ce:	6839      	ldr	r1, [r7, #0]
 80048d0:	4b0e      	ldr	r3, [pc, #56]	; (800490c <ssd1309PageUpdRoutine+0xe0>)
 80048d2:	2280      	movs	r2, #128	; 0x80
 80048d4:	eb03 11c1 	add.w	r1, r3, r1, lsl #7
 80048d8:	480a      	ldr	r0, [pc, #40]	; (8004904 <ssd1309PageUpdRoutine+0xd8>)
 80048da:	f888 4000 	strb.w	r4, [r8]
 80048de:	f7fe fea3 	bl	8003628 <HAL_SPI_Transmit_DMA>
 80048e2:	683b      	ldr	r3, [r7, #0]
 80048e4:	3301      	adds	r3, #1
 80048e6:	2b07      	cmp	r3, #7
 80048e8:	bfc9      	itett	gt
 80048ea:	2301      	movgt	r3, #1
 80048ec:	603b      	strle	r3, [r7, #0]
 80048ee:	603c      	strgt	r4, [r7, #0]
 80048f0:	7033      	strbgt	r3, [r6, #0]
 80048f2:	b002      	add	sp, #8
 80048f4:	e8bd 81f0 	ldmia.w	sp!, {r4, r5, r6, r7, r8, pc}
 80048f8:	20000518 	.word	0x20000518
 80048fc:	20000514 	.word	0x20000514
 8004900:	40010800 	.word	0x40010800
 8004904:	200003e0 	.word	0x200003e0
 8004908:	2000000c 	.word	0x2000000c
 800490c:	20002294 	.word	0x20002294

08004910 <ssd1309Update>:
 8004910:	b5f0      	push	{r4, r5, r6, r7, lr}
 8004912:	4f2e      	ldr	r7, [pc, #184]	; (80049cc <ssd1309Update+0xbc>)
 8004914:	4c2e      	ldr	r4, [pc, #184]	; (80049d0 <ssd1309Update+0xc0>)
 8004916:	683b      	ldr	r3, [r7, #0]
 8004918:	b083      	sub	sp, #12
 800491a:	f063 034f 	orn	r3, r3, #79	; 0x4f
 800491e:	4620      	mov	r0, r4
 8004920:	2200      	movs	r2, #0
 8004922:	f44f 4100 	mov.w	r1, #32768	; 0x8000
 8004926:	f88d 3004 	strb.w	r3, [sp, #4]
 800492a:	f7fd ff53 	bl	80027d4 <HAL_GPIO_WritePin>
 800492e:	4620      	mov	r0, r4
 8004930:	2200      	movs	r2, #0
 8004932:	f44f 5180 	mov.w	r1, #4096	; 0x1000
 8004936:	f7fd ff4d 	bl	80027d4 <HAL_GPIO_WritePin>
 800493a:	2301      	movs	r3, #1
 800493c:	f44f 5580 	mov.w	r5, #4096	; 0x1000
 8004940:	4e24      	ldr	r6, [pc, #144]	; (80049d4 <ssd1309Update+0xc4>)
 8004942:	461a      	mov	r2, r3
 8004944:	a901      	add	r1, sp, #4
 8004946:	4630      	mov	r0, r6
 8004948:	f7fe fd40 	bl	80033cc <HAL_SPI_Transmit>
 800494c:	4629      	mov	r1, r5
 800494e:	4620      	mov	r0, r4
 8004950:	2201      	movs	r2, #1
 8004952:	f7fd ff3f 	bl	80027d4 <HAL_GPIO_WritePin>
 8004956:	4620      	mov	r0, r4
 8004958:	2200      	movs	r2, #0
 800495a:	f44f 4100 	mov.w	r1, #32768	; 0x8000
 800495e:	f8ad 5004 	strh.w	r5, [sp, #4]
 8004962:	f7fd ff37 	bl	80027d4 <HAL_GPIO_WritePin>
 8004966:	4629      	mov	r1, r5
 8004968:	4620      	mov	r0, r4
 800496a:	2200      	movs	r2, #0
 800496c:	f7fd ff32 	bl	80027d4 <HAL_GPIO_WritePin>
 8004970:	2301      	movs	r3, #1
 8004972:	a901      	add	r1, sp, #4
 8004974:	2202      	movs	r2, #2
 8004976:	4630      	mov	r0, r6
 8004978:	f7fe fd28 	bl	80033cc <HAL_SPI_Transmit>
 800497c:	4629      	mov	r1, r5
 800497e:	4620      	mov	r0, r4
 8004980:	2201      	movs	r2, #1
 8004982:	f7fd ff27 	bl	80027d4 <HAL_GPIO_WritePin>
 8004986:	4620      	mov	r0, r4
 8004988:	2201      	movs	r2, #1
 800498a:	f44f 4100 	mov.w	r1, #32768	; 0x8000
 800498e:	f7fd ff21 	bl	80027d4 <HAL_GPIO_WritePin>
 8004992:	4629      	mov	r1, r5
 8004994:	4620      	mov	r0, r4
 8004996:	2200      	movs	r2, #0
 8004998:	f7fd ff1c 	bl	80027d4 <HAL_GPIO_WritePin>
 800499c:	6839      	ldr	r1, [r7, #0]
 800499e:	4b0e      	ldr	r3, [pc, #56]	; (80049d8 <ssd1309Update+0xc8>)
 80049a0:	4630      	mov	r0, r6
 80049a2:	eb03 11c1 	add.w	r1, r3, r1, lsl #7
 80049a6:	2280      	movs	r2, #128	; 0x80
 80049a8:	230a      	movs	r3, #10
 80049aa:	f7fe fd0f 	bl	80033cc <HAL_SPI_Transmit>
 80049ae:	4620      	mov	r0, r4
 80049b0:	2200      	movs	r2, #0
 80049b2:	f44f 4100 	mov.w	r1, #32768	; 0x8000
 80049b6:	f7fd ff0d 	bl	80027d4 <HAL_GPIO_WritePin>
 80049ba:	2201      	movs	r2, #1
 80049bc:	4629      	mov	r1, r5
 80049be:	4620      	mov	r0, r4
 80049c0:	b003      	add	sp, #12
 80049c2:	e8bd 40f0 	ldmia.w	sp!, {r4, r5, r6, r7, lr}
 80049c6:	f7fd bf05 	b.w	80027d4 <HAL_GPIO_WritePin>
 80049ca:	bf00      	nop
 80049cc:	20000514 	.word	0x20000514
 80049d0:	40010800 	.word	0x40010800
 80049d4:	200003e0 	.word	0x200003e0
 80049d8:	20002294 	.word	0x20002294

080049dc <ssd1309Init>:
 80049dc:	b570      	push	{r4, r5, r6, lr}
 80049de:	4cfd      	ldr	r4, [pc, #1012]	; (8004dd4 <ssd1309Init+0x3f8>)
 80049e0:	b082      	sub	sp, #8
 80049e2:	2201      	movs	r2, #1
 80049e4:	f44f 5180 	mov.w	r1, #4096	; 0x1000
 80049e8:	4620      	mov	r0, r4
 80049ea:	f7fd fef3 	bl	80027d4 <HAL_GPIO_WritePin>
 80049ee:	2064      	movs	r0, #100	; 0x64
 80049f0:	f7fc ffbe 	bl	8001970 <HAL_Delay>
 80049f4:	2200      	movs	r2, #0
 80049f6:	23ae      	movs	r3, #174	; 0xae
 80049f8:	4615      	mov	r5, r2
 80049fa:	4620      	mov	r0, r4
 80049fc:	f44f 4100 	mov.w	r1, #32768	; 0x8000
 8004a00:	f88d 3007 	strb.w	r3, [sp, #7]
 8004a04:	f7fd fee6 	bl	80027d4 <HAL_GPIO_WritePin>
 8004a08:	462a      	mov	r2, r5
 8004a0a:	4620      	mov	r0, r4
 8004a0c:	f44f 5180 	mov.w	r1, #4096	; 0x1000
 8004a10:	f7fd fee0 	bl	80027d4 <HAL_GPIO_WritePin>
 8004a14:	2301      	movs	r3, #1
 8004a16:	4ef0      	ldr	r6, [pc, #960]	; (8004dd8 <ssd1309Init+0x3fc>)
 8004a18:	461a      	mov	r2, r3
 8004a1a:	f10d 0107 	add.w	r1, sp, #7
 8004a1e:	4630      	mov	r0, r6
 8004a20:	f7fe fcd4 	bl	80033cc <HAL_SPI_Transmit>
 8004a24:	4620      	mov	r0, r4
 8004a26:	2201      	movs	r2, #1
 8004a28:	f44f 5180 	mov.w	r1, #4096	; 0x1000
 8004a2c:	f7fd fed2 	bl	80027d4 <HAL_GPIO_WritePin>
 8004a30:	23d5      	movs	r3, #213	; 0xd5
 8004a32:	462a      	mov	r2, r5
 8004a34:	4620      	mov	r0, r4
 8004a36:	f44f 4100 	mov.w	r1, #32768	; 0x8000
 8004a3a:	f88d 3007 	strb.w	r3, [sp, #7]
 8004a3e:	f7fd fec9 	bl	80027d4 <HAL_GPIO_WritePin>
 8004a42:	462a      	mov	r2, r5
 8004a44:	4620      	mov	r0, r4
 8004a46:	f44f 5180 	mov.w	r1, #4096	; 0x1000
 8004a4a:	f7fd fec3 	bl	80027d4 <HAL_GPIO_WritePin>
 8004a4e:	2301      	movs	r3, #1
 8004a50:	f10d 0107 	add.w	r1, sp, #7
 8004a54:	461a      	mov	r2, r3
 8004a56:	4630      	mov	r0, r6
 8004a58:	f7fe fcb8 	bl	80033cc <HAL_SPI_Transmit>
 8004a5c:	4620      	mov	r0, r4
 8004a5e:	2201      	movs	r2, #1
 8004a60:	f44f 5180 	mov.w	r1, #4096	; 0x1000
 8004a64:	f7fd feb6 	bl	80027d4 <HAL_GPIO_WritePin>
 8004a68:	23f0      	movs	r3, #240	; 0xf0
 8004a6a:	462a      	mov	r2, r5
 8004a6c:	4620      	mov	r0, r4
 8004a6e:	f44f 4100 	mov.w	r1, #32768	; 0x8000
 8004a72:	f88d 3007 	strb.w	r3, [sp, #7]
 8004a76:	f7fd fead 	bl	80027d4 <HAL_GPIO_WritePin>
 8004a7a:	462a      	mov	r2, r5
 8004a7c:	4620      	mov	r0, r4
 8004a7e:	f44f 5180 	mov.w	r1, #4096	; 0x1000
 8004a82:	f7fd fea7 	bl	80027d4 <HAL_GPIO_WritePin>
 8004a86:	2301      	movs	r3, #1
 8004a88:	f10d 0107 	add.w	r1, sp, #7
 8004a8c:	461a      	mov	r2, r3
 8004a8e:	4630      	mov	r0, r6
 8004a90:	f7fe fc9c 	bl	80033cc <HAL_SPI_Transmit>
 8004a94:	4620      	mov	r0, r4
 8004a96:	2201      	movs	r2, #1
 8004a98:	f44f 5180 	mov.w	r1, #4096	; 0x1000
 8004a9c:	f7fd fe9a 	bl	80027d4 <HAL_GPIO_WritePin>
 8004aa0:	23a8      	movs	r3, #168	; 0xa8
 8004aa2:	462a      	mov	r2, r5
 8004aa4:	4620      	mov	r0, r4
 8004aa6:	f44f 4100 	mov.w	r1, #32768	; 0x8000
 8004aaa:	f88d 3007 	strb.w	r3, [sp, #7]
 8004aae:	f7fd fe91 	bl	80027d4 <HAL_GPIO_WritePin>
 8004ab2:	462a      	mov	r2, r5
 8004ab4:	4620      	mov	r0, r4
 8004ab6:	f44f 5180 	mov.w	r1, #4096	; 0x1000
 8004aba:	f7fd fe8b 	bl	80027d4 <HAL_GPIO_WritePin>
 8004abe:	2301      	movs	r3, #1
 8004ac0:	f10d 0107 	add.w	r1, sp, #7
 8004ac4:	461a      	mov	r2, r3
 8004ac6:	4630      	mov	r0, r6
 8004ac8:	f7fe fc80 	bl	80033cc <HAL_SPI_Transmit>
 8004acc:	4620      	mov	r0, r4
 8004ace:	2201      	movs	r2, #1
 8004ad0:	f44f 5180 	mov.w	r1, #4096	; 0x1000
 8004ad4:	f7fd fe7e 	bl	80027d4 <HAL_GPIO_WritePin>
 8004ad8:	233f      	movs	r3, #63	; 0x3f
 8004ada:	462a      	mov	r2, r5
 8004adc:	4620      	mov	r0, r4
 8004ade:	f44f 4100 	mov.w	r1, #32768	; 0x8000
 8004ae2:	f88d 3007 	strb.w	r3, [sp, #7]
 8004ae6:	f7fd fe75 	bl	80027d4 <HAL_GPIO_WritePin>
 8004aea:	462a      	mov	r2, r5
 8004aec:	4620      	mov	r0, r4
 8004aee:	f44f 5180 	mov.w	r1, #4096	; 0x1000
 8004af2:	f7fd fe6f 	bl	80027d4 <HAL_GPIO_WritePin>
 8004af6:	2301      	movs	r3, #1
 8004af8:	f10d 0107 	add.w	r1, sp, #7
 8004afc:	461a      	mov	r2, r3
 8004afe:	4630      	mov	r0, r6
 8004b00:	f7fe fc64 	bl	80033cc <HAL_SPI_Transmit>
 8004b04:	4620      	mov	r0, r4
 8004b06:	2201      	movs	r2, #1
 8004b08:	f44f 5180 	mov.w	r1, #4096	; 0x1000
 8004b0c:	f7fd fe62 	bl	80027d4 <HAL_GPIO_WritePin>
 8004b10:	23d3      	movs	r3, #211	; 0xd3
 8004b12:	462a      	mov	r2, r5
 8004b14:	4620      	mov	r0, r4
 8004b16:	f44f 4100 	mov.w	r1, #32768	; 0x8000
 8004b1a:	f88d 3007 	strb.w	r3, [sp, #7]
 8004b1e:	f7fd fe59 	bl	80027d4 <HAL_GPIO_WritePin>
 8004b22:	462a      	mov	r2, r5
 8004b24:	4620      	mov	r0, r4
 8004b26:	f44f 5180 	mov.w	r1, #4096	; 0x1000
 8004b2a:	f7fd fe53 	bl	80027d4 <HAL_GPIO_WritePin>
 8004b2e:	2301      	movs	r3, #1
 8004b30:	f10d 0107 	add.w	r1, sp, #7
 8004b34:	461a      	mov	r2, r3
 8004b36:	4630      	mov	r0, r6
 8004b38:	f7fe fc48 	bl	80033cc <HAL_SPI_Transmit>
 8004b3c:	4620      	mov	r0, r4
 8004b3e:	2201      	movs	r2, #1
 8004b40:	f44f 5180 	mov.w	r1, #4096	; 0x1000
 8004b44:	f7fd fe46 	bl	80027d4 <HAL_GPIO_WritePin>
 8004b48:	462a      	mov	r2, r5
 8004b4a:	4620      	mov	r0, r4
 8004b4c:	f44f 4100 	mov.w	r1, #32768	; 0x8000
 8004b50:	f88d 5007 	strb.w	r5, [sp, #7]
 8004b54:	f7fd fe3e 	bl	80027d4 <HAL_GPIO_WritePin>
 8004b58:	462a      	mov	r2, r5
 8004b5a:	4620      	mov	r0, r4
 8004b5c:	f44f 5180 	mov.w	r1, #4096	; 0x1000
 8004b60:	f7fd fe38 	bl	80027d4 <HAL_GPIO_WritePin>
 8004b64:	2301      	movs	r3, #1
 8004b66:	f10d 0107 	add.w	r1, sp, #7
 8004b6a:	461a      	mov	r2, r3
 8004b6c:	4630      	mov	r0, r6
 8004b6e:	f7fe fc2d 	bl	80033cc <HAL_SPI_Transmit>
 8004b72:	4620      	mov	r0, r4
 8004b74:	2201      	movs	r2, #1
 8004b76:	f44f 5180 	mov.w	r1, #4096	; 0x1000
 8004b7a:	f7fd fe2b 	bl	80027d4 <HAL_GPIO_WritePin>
 8004b7e:	2340      	movs	r3, #64	; 0x40
 8004b80:	4620      	mov	r0, r4
 8004b82:	462a      	mov	r2, r5
 8004b84:	f44f 4100 	mov.w	r1, #32768	; 0x8000
 8004b88:	f88d 3007 	strb.w	r3, [sp, #7]
 8004b8c:	f7fd fe22 	bl	80027d4 <HAL_GPIO_WritePin>
 8004b90:	462a      	mov	r2, r5
 8004b92:	4620      	mov	r0, r4
 8004b94:	f44f 5180 	mov.w	r1, #4096	; 0x1000
 8004b98:	f7fd fe1c 	bl	80027d4 <HAL_GPIO_WritePin>
 8004b9c:	2301      	movs	r3, #1
 8004b9e:	f10d 0107 	add.w	r1, sp, #7
 8004ba2:	461a      	mov	r2, r3
 8004ba4:	4630      	mov	r0, r6
 8004ba6:	f7fe fc11 	bl	80033cc <HAL_SPI_Transmit>
 8004baa:	4620      	mov	r0, r4
 8004bac:	2201      	movs	r2, #1
 8004bae:	f44f 5180 	mov.w	r1, #4096	; 0x1000
 8004bb2:	f7fd fe0f 	bl	80027d4 <HAL_GPIO_WritePin>
 8004bb6:	2320      	movs	r3, #32
 8004bb8:	4620      	mov	r0, r4
 8004bba:	462a      	mov	r2, r5
 8004bbc:	f44f 4100 	mov.w	r1, #32768	; 0x8000
 8004bc0:	f88d 3007 	strb.w	r3, [sp, #7]
 8004bc4:	f7fd fe06 	bl	80027d4 <HAL_GPIO_WritePin>
 8004bc8:	462a      	mov	r2, r5
 8004bca:	4620      	mov	r0, r4
 8004bcc:	f44f 5180 	mov.w	r1, #4096	; 0x1000
 8004bd0:	f7fd fe00 	bl	80027d4 <HAL_GPIO_WritePin>
 8004bd4:	2301      	movs	r3, #1
 8004bd6:	f10d 0107 	add.w	r1, sp, #7
 8004bda:	461a      	mov	r2, r3
 8004bdc:	4630      	mov	r0, r6
 8004bde:	f7fe fbf5 	bl	80033cc <HAL_SPI_Transmit>
 8004be2:	4620      	mov	r0, r4
 8004be4:	2201      	movs	r2, #1
 8004be6:	f44f 5180 	mov.w	r1, #4096	; 0x1000
 8004bea:	f7fd fdf3 	bl	80027d4 <HAL_GPIO_WritePin>
 8004bee:	462a      	mov	r2, r5
 8004bf0:	4620      	mov	r0, r4
 8004bf2:	f44f 4100 	mov.w	r1, #32768	; 0x8000
 8004bf6:	f88d 5007 	strb.w	r5, [sp, #7]
 8004bfa:	f7fd fdeb 	bl	80027d4 <HAL_GPIO_WritePin>
 8004bfe:	462a      	mov	r2, r5
 8004c00:	4620      	mov	r0, r4
 8004c02:	f44f 5180 	mov.w	r1, #4096	; 0x1000
 8004c06:	f7fd fde5 	bl	80027d4 <HAL_GPIO_WritePin>
 8004c0a:	2301      	movs	r3, #1
 8004c0c:	f10d 0107 	add.w	r1, sp, #7
 8004c10:	461a      	mov	r2, r3
 8004c12:	4630      	mov	r0, r6
 8004c14:	f7fe fbda 	bl	80033cc <HAL_SPI_Transmit>
 8004c18:	4620      	mov	r0, r4
 8004c1a:	2201      	movs	r2, #1
 8004c1c:	f44f 5180 	mov.w	r1, #4096	; 0x1000
 8004c20:	f7fd fdd8 	bl	80027d4 <HAL_GPIO_WritePin>
 8004c24:	23a1      	movs	r3, #161	; 0xa1
 8004c26:	4620      	mov	r0, r4
 8004c28:	462a      	mov	r2, r5
 8004c2a:	f44f 4100 	mov.w	r1, #32768	; 0x8000
 8004c2e:	f88d 3007 	strb.w	r3, [sp, #7]
 8004c32:	f7fd fdcf 	bl	80027d4 <HAL_GPIO_WritePin>
 8004c36:	462a      	mov	r2, r5
 8004c38:	4620      	mov	r0, r4
 8004c3a:	f44f 5180 	mov.w	r1, #4096	; 0x1000
 8004c3e:	f7fd fdc9 	bl	80027d4 <HAL_GPIO_WritePin>
 8004c42:	2301      	movs	r3, #1
 8004c44:	f10d 0107 	add.w	r1, sp, #7
 8004c48:	461a      	mov	r2, r3
 8004c4a:	4630      	mov	r0, r6
 8004c4c:	f7fe fbbe 	bl	80033cc <HAL_SPI_Transmit>
 8004c50:	4620      	mov	r0, r4
 8004c52:	2201      	movs	r2, #1
 8004c54:	f44f 5180 	mov.w	r1, #4096	; 0x1000
 8004c58:	f7fd fdbc 	bl	80027d4 <HAL_GPIO_WritePin>
 8004c5c:	23c8      	movs	r3, #200	; 0xc8
 8004c5e:	4620      	mov	r0, r4
 8004c60:	462a      	mov	r2, r5
 8004c62:	f44f 4100 	mov.w	r1, #32768	; 0x8000
 8004c66:	f88d 3007 	strb.w	r3, [sp, #7]
 8004c6a:	f7fd fdb3 	bl	80027d4 <HAL_GPIO_WritePin>
 8004c6e:	462a      	mov	r2, r5
 8004c70:	4620      	mov	r0, r4
 8004c72:	f44f 5180 	mov.w	r1, #4096	; 0x1000
 8004c76:	f7fd fdad 	bl	80027d4 <HAL_GPIO_WritePin>
 8004c7a:	2301      	movs	r3, #1
 8004c7c:	f10d 0107 	add.w	r1, sp, #7
 8004c80:	461a      	mov	r2, r3
 8004c82:	4630      	mov	r0, r6
 8004c84:	f7fe fba2 	bl	80033cc <HAL_SPI_Transmit>
 8004c88:	4620      	mov	r0, r4
 8004c8a:	2201      	movs	r2, #1
 8004c8c:	f44f 5180 	mov.w	r1, #4096	; 0x1000
 8004c90:	f7fd fda0 	bl	80027d4 <HAL_GPIO_WritePin>
 8004c94:	23da      	movs	r3, #218	; 0xda
 8004c96:	4620      	mov	r0, r4
 8004c98:	462a      	mov	r2, r5
 8004c9a:	f44f 4100 	mov.w	r1, #32768	; 0x8000
 8004c9e:	f88d 3007 	strb.w	r3, [sp, #7]
 8004ca2:	f7fd fd97 	bl	80027d4 <HAL_GPIO_WritePin>
 8004ca6:	462a      	mov	r2, r5
 8004ca8:	4620      	mov	r0, r4
 8004caa:	f44f 5180 	mov.w	r1, #4096	; 0x1000
 8004cae:	f7fd fd91 	bl	80027d4 <HAL_GPIO_WritePin>
 8004cb2:	2301      	movs	r3, #1
 8004cb4:	f10d 0107 	add.w	r1, sp, #7
 8004cb8:	461a      	mov	r2, r3
 8004cba:	4630      	mov	r0, r6
 8004cbc:	f7fe fb86 	bl	80033cc <HAL_SPI_Transmit>
 8004cc0:	4620      	mov	r0, r4
 8004cc2:	2201      	movs	r2, #1
 8004cc4:	f44f 5180 	mov.w	r1, #4096	; 0x1000
 8004cc8:	f7fd fd84 	bl	80027d4 <HAL_GPIO_WritePin>
 8004ccc:	2312      	movs	r3, #18
 8004cce:	4620      	mov	r0, r4
 8004cd0:	462a      	mov	r2, r5
 8004cd2:	f44f 4100 	mov.w	r1, #32768	; 0x8000
 8004cd6:	f88d 3007 	strb.w	r3, [sp, #7]
 8004cda:	f7fd fd7b 	bl	80027d4 <HAL_GPIO_WritePin>
 8004cde:	462a      	mov	r2, r5
 8004ce0:	4620      	mov	r0, r4
 8004ce2:	f44f 5180 	mov.w	r1, #4096	; 0x1000
 8004ce6:	f7fd fd75 	bl	80027d4 <HAL_GPIO_WritePin>
 8004cea:	2301      	movs	r3, #1
 8004cec:	f10d 0107 	add.w	r1, sp, #7
 8004cf0:	461a      	mov	r2, r3
 8004cf2:	4630      	mov	r0, r6
 8004cf4:	f7fe fb6a 	bl	80033cc <HAL_SPI_Transmit>
 8004cf8:	4620      	mov	r0, r4
 8004cfa:	2201      	movs	r2, #1
 8004cfc:	f44f 5180 	mov.w	r1, #4096	; 0x1000
 8004d00:	f7fd fd68 	bl	80027d4 <HAL_GPIO_WritePin>
 8004d04:	2381      	movs	r3, #129	; 0x81
 8004d06:	4620      	mov	r0, r4
 8004d08:	462a      	mov	r2, r5
 8004d0a:	f44f 4100 	mov.w	r1, #32768	; 0x8000
 8004d0e:	f88d 3007 	strb.w	r3, [sp, #7]
 8004d12:	f7fd fd5f 	bl	80027d4 <HAL_GPIO_WritePin>
 8004d16:	462a      	mov	r2, r5
 8004d18:	4620      	mov	r0, r4
 8004d1a:	f44f 5180 	mov.w	r1, #4096	; 0x1000
 8004d1e:	f7fd fd59 	bl	80027d4 <HAL_GPIO_WritePin>
 8004d22:	2301      	movs	r3, #1
 8004d24:	f10d 0107 	add.w	r1, sp, #7
 8004d28:	461a      	mov	r2, r3
 8004d2a:	4630      	mov	r0, r6
 8004d2c:	f7fe fb4e 	bl	80033cc <HAL_SPI_Transmit>
 8004d30:	4620      	mov	r0, r4
 8004d32:	2201      	movs	r2, #1
 8004d34:	f44f 5180 	mov.w	r1, #4096	; 0x1000
 8004d38:	f7fd fd4c 	bl	80027d4 <HAL_GPIO_WritePin>
 8004d3c:	230a      	movs	r3, #10
 8004d3e:	4620      	mov	r0, r4
 8004d40:	462a      	mov	r2, r5
 8004d42:	f44f 4100 	mov.w	r1, #32768	; 0x8000
 8004d46:	f88d 3007 	strb.w	r3, [sp, #7]
 8004d4a:	f7fd fd43 	bl	80027d4 <HAL_GPIO_WritePin>
 8004d4e:	462a      	mov	r2, r5
 8004d50:	4620      	mov	r0, r4
 8004d52:	f44f 5180 	mov.w	r1, #4096	; 0x1000
 8004d56:	f7fd fd3d 	bl	80027d4 <HAL_GPIO_WritePin>
 8004d5a:	2301      	movs	r3, #1
 8004d5c:	f10d 0107 	add.w	r1, sp, #7
 8004d60:	461a      	mov	r2, r3
 8004d62:	4630      	mov	r0, r6
 8004d64:	f7fe fb32 	bl	80033cc <HAL_SPI_Transmit>
 8004d68:	4620      	mov	r0, r4
 8004d6a:	2201      	movs	r2, #1
 8004d6c:	f44f 5180 	mov.w	r1, #4096	; 0x1000
 8004d70:	f7fd fd30 	bl	80027d4 <HAL_GPIO_WritePin>
 8004d74:	23d9      	movs	r3, #217	; 0xd9
 8004d76:	4620      	mov	r0, r4
 8004d78:	462a      	mov	r2, r5
 8004d7a:	f44f 4100 	mov.w	r1, #32768	; 0x8000
 8004d7e:	f88d 3007 	strb.w	r3, [sp, #7]
 8004d82:	f7fd fd27 	bl	80027d4 <HAL_GPIO_WritePin>
 8004d86:	462a      	mov	r2, r5
 8004d88:	4620      	mov	r0, r4
 8004d8a:	f44f 5180 	mov.w	r1, #4096	; 0x1000
 8004d8e:	f7fd fd21 	bl	80027d4 <HAL_GPIO_WritePin>
 8004d92:	2301      	movs	r3, #1
 8004d94:	f10d 0107 	add.w	r1, sp, #7
 8004d98:	461a      	mov	r2, r3
 8004d9a:	4630      	mov	r0, r6
 8004d9c:	f7fe fb16 	bl	80033cc <HAL_SPI_Transmit>
 8004da0:	4620      	mov	r0, r4
 8004da2:	2201      	movs	r2, #1
 8004da4:	f44f 5180 	mov.w	r1, #4096	; 0x1000
 8004da8:	f7fd fd14 	bl	80027d4 <HAL_GPIO_WritePin>
 8004dac:	23f1      	movs	r3, #241	; 0xf1
 8004dae:	4620      	mov	r0, r4
 8004db0:	462a      	mov	r2, r5
 8004db2:	f44f 4100 	mov.w	r1, #32768	; 0x8000
 8004db6:	f88d 3007 	strb.w	r3, [sp, #7]
 8004dba:	f7fd fd0b 	bl	80027d4 <HAL_GPIO_WritePin>
 8004dbe:	462a      	mov	r2, r5
 8004dc0:	4620      	mov	r0, r4
 8004dc2:	f44f 5180 	mov.w	r1, #4096	; 0x1000
 8004dc6:	f7fd fd05 	bl	80027d4 <HAL_GPIO_WritePin>
 8004dca:	2301      	movs	r3, #1
 8004dcc:	f10d 0107 	add.w	r1, sp, #7
 8004dd0:	e004      	b.n	8004ddc <ssd1309Init+0x400>
 8004dd2:	bf00      	nop
 8004dd4:	40010800 	.word	0x40010800
 8004dd8:	200003e0 	.word	0x200003e0
 8004ddc:	461a      	mov	r2, r3
 8004dde:	4630      	mov	r0, r6
 8004de0:	f7fe faf4 	bl	80033cc <HAL_SPI_Transmit>
 8004de4:	4620      	mov	r0, r4
 8004de6:	2201      	movs	r2, #1
 8004de8:	f44f 5180 	mov.w	r1, #4096	; 0x1000
 8004dec:	f7fd fcf2 	bl	80027d4 <HAL_GPIO_WritePin>
 8004df0:	23db      	movs	r3, #219	; 0xdb
 8004df2:	4620      	mov	r0, r4
 8004df4:	462a      	mov	r2, r5
 8004df6:	f44f 4100 	mov.w	r1, #32768	; 0x8000
 8004dfa:	f88d 3007 	strb.w	r3, [sp, #7]
 8004dfe:	f7fd fce9 	bl	80027d4 <HAL_GPIO_WritePin>
 8004e02:	462a      	mov	r2, r5
 8004e04:	4620      	mov	r0, r4
 8004e06:	f44f 5180 	mov.w	r1, #4096	; 0x1000
 8004e0a:	f7fd fce3 	bl	80027d4 <HAL_GPIO_WritePin>
 8004e0e:	2301      	movs	r3, #1
 8004e10:	f10d 0107 	add.w	r1, sp, #7
 8004e14:	461a      	mov	r2, r3
 8004e16:	4630      	mov	r0, r6
 8004e18:	f7fe fad8 	bl	80033cc <HAL_SPI_Transmit>
 8004e1c:	4620      	mov	r0, r4
 8004e1e:	2201      	movs	r2, #1
 8004e20:	f44f 5180 	mov.w	r1, #4096	; 0x1000
 8004e24:	f7fd fcd6 	bl	80027d4 <HAL_GPIO_WritePin>
 8004e28:	2337      	movs	r3, #55	; 0x37
 8004e2a:	4620      	mov	r0, r4
 8004e2c:	462a      	mov	r2, r5
 8004e2e:	f44f 4100 	mov.w	r1, #32768	; 0x8000
 8004e32:	f88d 3007 	strb.w	r3, [sp, #7]
 8004e36:	f7fd fccd 	bl	80027d4 <HAL_GPIO_WritePin>
 8004e3a:	462a      	mov	r2, r5
 8004e3c:	4620      	mov	r0, r4
 8004e3e:	f44f 5180 	mov.w	r1, #4096	; 0x1000
 8004e42:	f7fd fcc7 	bl	80027d4 <HAL_GPIO_WritePin>
 8004e46:	2301      	movs	r3, #1
 8004e48:	f10d 0107 	add.w	r1, sp, #7
 8004e4c:	461a      	mov	r2, r3
 8004e4e:	4630      	mov	r0, r6
 8004e50:	f7fe fabc 	bl	80033cc <HAL_SPI_Transmit>
 8004e54:	4620      	mov	r0, r4
 8004e56:	2201      	movs	r2, #1
 8004e58:	f44f 5180 	mov.w	r1, #4096	; 0x1000
 8004e5c:	f7fd fcba 	bl	80027d4 <HAL_GPIO_WritePin>
 8004e60:	23a4      	movs	r3, #164	; 0xa4
 8004e62:	4620      	mov	r0, r4
 8004e64:	462a      	mov	r2, r5
 8004e66:	f44f 4100 	mov.w	r1, #32768	; 0x8000
 8004e6a:	f88d 3007 	strb.w	r3, [sp, #7]
 8004e6e:	f7fd fcb1 	bl	80027d4 <HAL_GPIO_WritePin>
 8004e72:	462a      	mov	r2, r5
 8004e74:	4620      	mov	r0, r4
 8004e76:	f44f 5180 	mov.w	r1, #4096	; 0x1000
 8004e7a:	f7fd fcab 	bl	80027d4 <HAL_GPIO_WritePin>
 8004e7e:	2301      	movs	r3, #1
 8004e80:	f10d 0107 	add.w	r1, sp, #7
 8004e84:	461a      	mov	r2, r3
 8004e86:	4630      	mov	r0, r6
 8004e88:	f7fe faa0 	bl	80033cc <HAL_SPI_Transmit>
 8004e8c:	4620      	mov	r0, r4
 8004e8e:	2201      	movs	r2, #1
 8004e90:	f44f 5180 	mov.w	r1, #4096	; 0x1000
 8004e94:	f7fd fc9e 	bl	80027d4 <HAL_GPIO_WritePin>
 8004e98:	23a6      	movs	r3, #166	; 0xa6
 8004e9a:	4620      	mov	r0, r4
 8004e9c:	462a      	mov	r2, r5
 8004e9e:	f44f 4100 	mov.w	r1, #32768	; 0x8000
 8004ea2:	f88d 3007 	strb.w	r3, [sp, #7]
 8004ea6:	f7fd fc95 	bl	80027d4 <HAL_GPIO_WritePin>
 8004eaa:	462a      	mov	r2, r5
 8004eac:	4620      	mov	r0, r4
 8004eae:	f44f 5180 	mov.w	r1, #4096	; 0x1000
 8004eb2:	f7fd fc8f 	bl	80027d4 <HAL_GPIO_WritePin>
 8004eb6:	2301      	movs	r3, #1
 8004eb8:	f10d 0107 	add.w	r1, sp, #7
 8004ebc:	461a      	mov	r2, r3
 8004ebe:	4630      	mov	r0, r6
 8004ec0:	f7fe fa84 	bl	80033cc <HAL_SPI_Transmit>
 8004ec4:	4620      	mov	r0, r4
 8004ec6:	2201      	movs	r2, #1
 8004ec8:	f44f 5180 	mov.w	r1, #4096	; 0x1000
 8004ecc:	f7fd fc82 	bl	80027d4 <HAL_GPIO_WritePin>
 8004ed0:	f7ff fd1e 	bl	8004910 <ssd1309Update>
 8004ed4:	23af      	movs	r3, #175	; 0xaf
 8004ed6:	4620      	mov	r0, r4
 8004ed8:	462a      	mov	r2, r5
 8004eda:	f44f 4100 	mov.w	r1, #32768	; 0x8000
 8004ede:	f88d 3007 	strb.w	r3, [sp, #7]
 8004ee2:	f7fd fc77 	bl	80027d4 <HAL_GPIO_WritePin>
 8004ee6:	462a      	mov	r2, r5
 8004ee8:	4620      	mov	r0, r4
 8004eea:	f44f 5180 	mov.w	r1, #4096	; 0x1000
 8004eee:	f7fd fc71 	bl	80027d4 <HAL_GPIO_WritePin>
 8004ef2:	2301      	movs	r3, #1
 8004ef4:	f10d 0107 	add.w	r1, sp, #7
 8004ef8:	461a      	mov	r2, r3
 8004efa:	4630      	mov	r0, r6
 8004efc:	f7fe fa66 	bl	80033cc <HAL_SPI_Transmit>
 8004f00:	2201      	movs	r2, #1
 8004f02:	f44f 5180 	mov.w	r1, #4096	; 0x1000
 8004f06:	4620      	mov	r0, r4
 8004f08:	f7fd fc64 	bl	80027d4 <HAL_GPIO_WritePin>
 8004f0c:	b002      	add	sp, #8
 8004f0e:	bd70      	pop	{r4, r5, r6, pc}

08004f10 <agcPrasolovFloat>:
 8004f10:	2a00      	cmp	r2, #0
 8004f12:	d05f      	beq.n	8004fd4 <agcPrasolovFloat+0xc4>
 8004f14:	4b30      	ldr	r3, [pc, #192]	; (8004fd8 <agcPrasolovFloat+0xc8>)
 8004f16:	e92d 4ff0 	stmdb	sp!, {r4, r5, r6, r7, r8, r9, sl, fp, lr}
 8004f1a:	681f      	ldr	r7, [r3, #0]
 8004f1c:	4b2f      	ldr	r3, [pc, #188]	; (8004fdc <agcPrasolovFloat+0xcc>)
 8004f1e:	b085      	sub	sp, #20
 8004f20:	681d      	ldr	r5, [r3, #0]
 8004f22:	4681      	mov	r9, r0
 8004f24:	4628      	mov	r0, r5
 8004f26:	4614      	mov	r4, r2
 8004f28:	f1a1 0804 	sub.w	r8, r1, #4
 8004f2c:	f7fb fc04 	bl	8000738 <__aeabi_f2d>
 8004f30:	4602      	mov	r2, r0
 8004f32:	460b      	mov	r3, r1
 8004f34:	492a      	ldr	r1, [pc, #168]	; (8004fe0 <agcPrasolovFloat+0xd0>)
 8004f36:	4628      	mov	r0, r5
 8004f38:	6809      	ldr	r1, [r1, #0]
 8004f3a:	e9cd 2300 	strd	r2, r3, [sp]
 8004f3e:	f7fb fdb1 	bl	8000aa4 <__aeabi_fmul>
 8004f42:	f7fb fbf9 	bl	8000738 <__aeabi_f2d>
 8004f46:	f04f 5b40 	mov.w	fp, #805306368	; 0x30000000
 8004f4a:	f04f 4a9e 	mov.w	sl, #1325400064	; 0x4f000000
 8004f4e:	3c01      	subs	r4, #1
 8004f50:	e9cd 0102 	strd	r0, r1, [sp, #8]
 8004f54:	b2a4      	uxth	r4, r4
 8004f56:	f1a9 0504 	sub.w	r5, r9, #4
 8004f5a:	eb09 0984 	add.w	r9, r9, r4, lsl #2
 8004f5e:	f855 0f04 	ldr.w	r0, [r5, #4]!
 8004f62:	f7fb fd4b 	bl	80009fc <__aeabi_i2f>
 8004f66:	4659      	mov	r1, fp
 8004f68:	f7fb fd9c 	bl	8000aa4 <__aeabi_fmul>
 8004f6c:	4639      	mov	r1, r7
 8004f6e:	f7fb fd99 	bl	8000aa4 <__aeabi_fmul>
 8004f72:	4604      	mov	r4, r0
 8004f74:	f020 4000 	bic.w	r0, r0, #2147483648	; 0x80000000
 8004f78:	f7fb fbde 	bl	8000738 <__aeabi_f2d>
 8004f7c:	e9dd 2300 	ldrd	r2, r3, [sp]
 8004f80:	f7fb f94c 	bl	800021c <__aeabi_dmul>
 8004f84:	460b      	mov	r3, r1
 8004f86:	4602      	mov	r2, r0
 8004f88:	4916      	ldr	r1, [pc, #88]	; (8004fe4 <agcPrasolovFloat+0xd4>)
 8004f8a:	2000      	movs	r0, #0
 8004f8c:	f7fb fa74 	bl	8000478 <__aeabi_dsub>
 8004f90:	4602      	mov	r2, r0
 8004f92:	4638      	mov	r0, r7
 8004f94:	4616      	mov	r6, r2
 8004f96:	460f      	mov	r7, r1
 8004f98:	f7fb fbce 	bl	8000738 <__aeabi_f2d>
 8004f9c:	4602      	mov	r2, r0
 8004f9e:	460b      	mov	r3, r1
 8004fa0:	4630      	mov	r0, r6
 8004fa2:	4639      	mov	r1, r7
 8004fa4:	f7fb f93a 	bl	800021c <__aeabi_dmul>
 8004fa8:	e9dd 2302 	ldrd	r2, r3, [sp, #8]
 8004fac:	f7fb fa66 	bl	800047c <__adddf3>
 8004fb0:	f7fb fc1a 	bl	80007e8 <__aeabi_d2f>
 8004fb4:	4651      	mov	r1, sl
 8004fb6:	4607      	mov	r7, r0
 8004fb8:	4620      	mov	r0, r4
 8004fba:	f7fb fd73 	bl	8000aa4 <__aeabi_fmul>
 8004fbe:	f7fb fec1 	bl	8000d44 <__aeabi_f2iz>
 8004fc2:	45a9      	cmp	r9, r5
 8004fc4:	f848 0f04 	str.w	r0, [r8, #4]!
 8004fc8:	d1c9      	bne.n	8004f5e <agcPrasolovFloat+0x4e>
 8004fca:	4b03      	ldr	r3, [pc, #12]	; (8004fd8 <agcPrasolovFloat+0xc8>)
 8004fcc:	601f      	str	r7, [r3, #0]
 8004fce:	b005      	add	sp, #20
 8004fd0:	e8bd 8ff0 	ldmia.w	sp!, {r4, r5, r6, r7, r8, r9, sl, fp, pc}
 8004fd4:	4770      	bx	lr
 8004fd6:	bf00      	nop
 8004fd8:	2000051c 	.word	0x2000051c
 8004fdc:	20000014 	.word	0x20000014
 8004fe0:	20000010 	.word	0x20000010
 8004fe4:	3ff00000 	.word	0x3ff00000

08004fe8 <softClip>:
 8004fe8:	e92d 41f0 	stmdb	sp!, {r4, r5, r6, r7, r8, lr}
 8004fec:	b082      	sub	sp, #8
 8004fee:	4614      	mov	r4, r2
 8004ff0:	0093      	lsls	r3, r2, #2
 8004ff2:	466a      	mov	r2, sp
 8004ff4:	3307      	adds	r3, #7
 8004ff6:	08db      	lsrs	r3, r3, #3
 8004ff8:	eba2 03c3 	sub.w	r3, r2, r3, lsl #3
 8004ffc:	af02      	add	r7, sp, #8
 8004ffe:	469d      	mov	sp, r3
 8005000:	4606      	mov	r6, r0
 8005002:	4688      	mov	r8, r1
 8005004:	ad02      	add	r5, sp, #8
 8005006:	4623      	mov	r3, r4
 8005008:	462a      	mov	r2, r5
 800500a:	4601      	mov	r1, r0
 800500c:	f002 f8b2 	bl	8007174 <arm_mult_q31>
 8005010:	4623      	mov	r3, r4
 8005012:	462a      	mov	r2, r5
 8005014:	4629      	mov	r1, r5
 8005016:	4630      	mov	r0, r6
 8005018:	f002 f8ac 	bl	8007174 <arm_mult_q31>
 800501c:	462b      	mov	r3, r5
 800501e:	4628      	mov	r0, r5
 8005020:	2200      	movs	r2, #0
 8005022:	4906      	ldr	r1, [pc, #24]	; (800503c <softClip+0x54>)
 8005024:	9400      	str	r4, [sp, #0]
 8005026:	f001 ffcf 	bl	8006fc8 <arm_scale_q31>
 800502a:	4630      	mov	r0, r6
 800502c:	4623      	mov	r3, r4
 800502e:	4642      	mov	r2, r8
 8005030:	4629      	mov	r1, r5
 8005032:	f001 ff3d 	bl	8006eb0 <arm_sub_q31>
 8005036:	46bd      	mov	sp, r7
 8005038:	e8bd 81f0 	ldmia.w	sp!, {r4, r5, r6, r7, r8, pc}
 800503c:	2aaaaac0 	.word	0x2aaaaac0

08005040 <dspInit>:
 8005040:	2300      	movs	r3, #0
 8005042:	b570      	push	{r4, r5, r6, lr}
 8005044:	2480      	movs	r4, #128	; 0x80
 8005046:	4d12      	ldr	r5, [pc, #72]	; (8005090 <dspInit+0x50>)
 8005048:	b082      	sub	sp, #8
 800504a:	4e12      	ldr	r6, [pc, #72]	; (8005094 <dspInit+0x54>)
 800504c:	602b      	str	r3, [r5, #0]
 800504e:	f000 fa4f 	bl	80054f0 <firInit>
 8005052:	4a11      	ldr	r2, [pc, #68]	; (8005098 <dspInit+0x58>)
 8005054:	4633      	mov	r3, r6
 8005056:	e9cd 2400 	strd	r2, r4, [sp]
 800505a:	2120      	movs	r1, #32
 800505c:	2202      	movs	r2, #2
 800505e:	480f      	ldr	r0, [pc, #60]	; (800509c <dspInit+0x5c>)
 8005060:	f001 fe14 	bl	8006c8c <arm_fir_decimate_init_q31>
 8005064:	490e      	ldr	r1, [pc, #56]	; (80050a0 <dspInit+0x60>)
 8005066:	4633      	mov	r3, r6
 8005068:	e9cd 1400 	strd	r1, r4, [sp]
 800506c:	2202      	movs	r2, #2
 800506e:	2120      	movs	r1, #32
 8005070:	480c      	ldr	r0, [pc, #48]	; (80050a4 <dspInit+0x64>)
 8005072:	f001 fe0b 	bl	8006c8c <arm_fir_decimate_init_q31>
 8005076:	480c      	ldr	r0, [pc, #48]	; (80050a8 <dspInit+0x68>)
 8005078:	2208      	movs	r2, #8
 800507a:	e9cd 0400 	strd	r0, r4, [sp]
 800507e:	2102      	movs	r1, #2
 8005080:	4b0a      	ldr	r3, [pc, #40]	; (80050ac <dspInit+0x6c>)
 8005082:	480b      	ldr	r0, [pc, #44]	; (80050b0 <dspInit+0x70>)
 8005084:	f001 fd2a 	bl	8006adc <arm_fir_interpolate_init_q31>
 8005088:	2301      	movs	r3, #1
 800508a:	602b      	str	r3, [r5, #0]
 800508c:	b002      	add	sp, #8
 800508e:	bd70      	pop	{r4, r5, r6, pc}
 8005090:	20002290 	.word	0x20002290
 8005094:	0800880c 	.word	0x0800880c
 8005098:	20001364 	.word	0x20001364
 800509c:	20001340 	.word	0x20001340
 80050a0:	2000180c 	.word	0x2000180c
 80050a4:	2000134c 	.word	0x2000134c
 80050a8:	200015e8 	.word	0x200015e8
 80050ac:	0800888c 	.word	0x0800888c
 80050b0:	20001358 	.word	0x20001358

080050b4 <dspStart>:
 80050b4:	b510      	push	{r4, lr}
 80050b6:	4c0b      	ldr	r4, [pc, #44]	; (80050e4 <dspStart+0x30>)
 80050b8:	4620      	mov	r0, r4
 80050ba:	f7fe fbe3 	bl	8003884 <HAL_TIM_Base_Start>
 80050be:	2104      	movs	r1, #4
 80050c0:	4620      	mov	r0, r4
 80050c2:	f7fe fc77 	bl	80039b4 <HAL_TIM_PWM_Start>
 80050c6:	f44f 7200 	mov.w	r2, #512	; 0x200
 80050ca:	4907      	ldr	r1, [pc, #28]	; (80050e8 <dspStart+0x34>)
 80050cc:	4807      	ldr	r0, [pc, #28]	; (80050ec <dspStart+0x38>)
 80050ce:	f7fc fe3b 	bl	8001d48 <HAL_ADC_Start_DMA>
 80050d2:	4620      	mov	r0, r4
 80050d4:	e8bd 4010 	ldmia.w	sp!, {r4, lr}
 80050d8:	f44f 7380 	mov.w	r3, #256	; 0x100
 80050dc:	2108      	movs	r1, #8
 80050de:	4a04      	ldr	r2, [pc, #16]	; (80050f0 <dspStart+0x3c>)
 80050e0:	f7fe bcc4 	b.w	8003a6c <HAL_TIM_PWM_Start_DMA>
 80050e4:	20000438 	.word	0x20000438
 80050e8:	20001a90 	.word	0x20001a90
 80050ec:	200001d8 	.word	0x200001d8
 80050f0:	20002090 	.word	0x20002090

080050f4 <dspPrepareInput>:
 80050f4:	4a40      	ldr	r2, [pc, #256]	; (80051f8 <dspPrepareInput+0x104>)
 80050f6:	e92d 41f0 	stmdb	sp!, {r4, r5, r6, r7, r8, lr}
 80050fa:	7812      	ldrb	r2, [r2, #0]
 80050fc:	4b3f      	ldr	r3, [pc, #252]	; (80051fc <dspPrepareInput+0x108>)
 80050fe:	4f40      	ldr	r7, [pc, #256]	; (8005200 <dspPrepareInput+0x10c>)
 8005100:	f082 0201 	eor.w	r2, r2, #1
 8005104:	4d3f      	ldr	r5, [pc, #252]	; (8005204 <dspPrepareInput+0x110>)
 8005106:	eb03 2342 	add.w	r3, r3, r2, lsl #9
 800510a:	f507 7800 	add.w	r8, r7, #512	; 0x200
 800510e:	463e      	mov	r6, r7
 8005110:	f9b3 4000 	ldrsh.w	r4, [r3]
 8005114:	f9b3 e002 	ldrsh.w	lr, [r3, #2]
 8005118:	f5a4 6c00 	sub.w	ip, r4, #2048	; 0x800
 800511c:	f5ae 6000 	sub.w	r0, lr, #2048	; 0x800
 8005120:	f9b3 4004 	ldrsh.w	r4, [r3, #4]
 8005124:	f9b3 e006 	ldrsh.w	lr, [r3, #6]
 8005128:	ea4f 510c 	mov.w	r1, ip, lsl #20
 800512c:	0502      	lsls	r2, r0, #20
 800512e:	f5a4 6c00 	sub.w	ip, r4, #2048	; 0x800
 8005132:	f5ae 6000 	sub.w	r0, lr, #2048	; 0x800
 8005136:	f9b3 4008 	ldrsh.w	r4, [r3, #8]
 800513a:	f9b3 e00a 	ldrsh.w	lr, [r3, #10]
 800513e:	f846 1b04 	str.w	r1, [r6], #4
 8005142:	606a      	str	r2, [r5, #4]
 8005144:	ea4f 510c 	mov.w	r1, ip, lsl #20
 8005148:	0502      	lsls	r2, r0, #20
 800514a:	f5a4 6c00 	sub.w	ip, r4, #2048	; 0x800
 800514e:	f5ae 6000 	sub.w	r0, lr, #2048	; 0x800
 8005152:	f9b3 400c 	ldrsh.w	r4, [r3, #12]
 8005156:	f9b3 e00e 	ldrsh.w	lr, [r3, #14]
 800515a:	6079      	str	r1, [r7, #4]
 800515c:	60aa      	str	r2, [r5, #8]
 800515e:	ea4f 510c 	mov.w	r1, ip, lsl #20
 8005162:	0502      	lsls	r2, r0, #20
 8005164:	f5a4 6c00 	sub.w	ip, r4, #2048	; 0x800
 8005168:	f5ae 6000 	sub.w	r0, lr, #2048	; 0x800
 800516c:	f9b3 4010 	ldrsh.w	r4, [r3, #16]
 8005170:	f9b3 e012 	ldrsh.w	lr, [r3, #18]
 8005174:	60ea      	str	r2, [r5, #12]
 8005176:	6071      	str	r1, [r6, #4]
 8005178:	0502      	lsls	r2, r0, #20
 800517a:	ea4f 510c 	mov.w	r1, ip, lsl #20
 800517e:	f5ae 6000 	sub.w	r0, lr, #2048	; 0x800
 8005182:	f5a4 6c00 	sub.w	ip, r4, #2048	; 0x800
 8005186:	f9b3 e016 	ldrsh.w	lr, [r3, #22]
 800518a:	f9b3 4014 	ldrsh.w	r4, [r3, #20]
 800518e:	612a      	str	r2, [r5, #16]
 8005190:	60b1      	str	r1, [r6, #8]
 8005192:	0502      	lsls	r2, r0, #20
 8005194:	ea4f 510c 	mov.w	r1, ip, lsl #20
 8005198:	f5ae 6000 	sub.w	r0, lr, #2048	; 0x800
 800519c:	f5a4 6c00 	sub.w	ip, r4, #2048	; 0x800
 80051a0:	f9b3 e01a 	ldrsh.w	lr, [r3, #26]
 80051a4:	f9b3 4018 	ldrsh.w	r4, [r3, #24]
 80051a8:	616a      	str	r2, [r5, #20]
 80051aa:	60f1      	str	r1, [r6, #12]
 80051ac:	0502      	lsls	r2, r0, #20
 80051ae:	ea4f 510c 	mov.w	r1, ip, lsl #20
 80051b2:	f5ae 6000 	sub.w	r0, lr, #2048	; 0x800
 80051b6:	f5a4 6c00 	sub.w	ip, r4, #2048	; 0x800
 80051ba:	f9b3 e01e 	ldrsh.w	lr, [r3, #30]
 80051be:	f9b3 401c 	ldrsh.w	r4, [r3, #28]
 80051c2:	61aa      	str	r2, [r5, #24]
 80051c4:	6131      	str	r1, [r6, #16]
 80051c6:	0502      	lsls	r2, r0, #20
 80051c8:	ea4f 510c 	mov.w	r1, ip, lsl #20
 80051cc:	f5ae 6000 	sub.w	r0, lr, #2048	; 0x800
 80051d0:	f5a4 6c00 	sub.w	ip, r4, #2048	; 0x800
 80051d4:	f106 071c 	add.w	r7, r6, #28
 80051d8:	61ea      	str	r2, [r5, #28]
 80051da:	6171      	str	r1, [r6, #20]
 80051dc:	0502      	lsls	r2, r0, #20
 80051de:	ea4f 510c 	mov.w	r1, ip, lsl #20
 80051e2:	45b8      	cmp	r8, r7
 80051e4:	622a      	str	r2, [r5, #32]
 80051e6:	61b1      	str	r1, [r6, #24]
 80051e8:	f105 0520 	add.w	r5, r5, #32
 80051ec:	f103 0320 	add.w	r3, r3, #32
 80051f0:	d18d      	bne.n	800510e <dspPrepareInput+0x1a>
 80051f2:	e8bd 81f0 	ldmia.w	sp!, {r4, r5, r6, r7, r8, pc}
 80051f6:	bf00      	nop
 80051f8:	20000b29 	.word	0x20000b29
 80051fc:	20001a90 	.word	0x20001a90
 8005200:	20000524 	.word	0x20000524
 8005204:	20000720 	.word	0x20000720

08005208 <dspPrepareOutput>:
 8005208:	4b3e      	ldr	r3, [pc, #248]	; (8005304 <dspPrepareOutput+0xfc>)
 800520a:	b5f0      	push	{r4, r5, r6, r7, lr}
 800520c:	781b      	ldrb	r3, [r3, #0]
 800520e:	4d3e      	ldr	r5, [pc, #248]	; (8005308 <dspPrepareOutput+0x100>)
 8005210:	01db      	lsls	r3, r3, #7
 8005212:	f083 4300 	eor.w	r3, r3, #2147483648	; 0x80000000
 8005216:	4e3d      	ldr	r6, [pc, #244]	; (800530c <dspPrepareOutput+0x104>)
 8005218:	f083 0380 	eor.w	r3, r3, #128	; 0x80
 800521c:	3b02      	subs	r3, #2
 800521e:	eb06 0643 	add.w	r6, r6, r3, lsl #1
 8005222:	f505 7780 	add.w	r7, r5, #256	; 0x100
 8005226:	2300      	movs	r3, #0
 8005228:	686c      	ldr	r4, [r5, #4]
 800522a:	f105 0e04 	add.w	lr, r5, #4
 800522e:	1560      	asrs	r0, r4, #21
 8005230:	f500 6180 	add.w	r1, r0, #1024	; 0x400
 8005234:	68ac      	ldr	r4, [r5, #8]
 8005236:	b28a      	uxth	r2, r1
 8005238:	1560      	asrs	r0, r4, #21
 800523a:	f362 030f 	bfi	r3, r2, #0, #16
 800523e:	68ec      	ldr	r4, [r5, #12]
 8005240:	f362 431f 	bfi	r3, r2, #16, #16
 8005244:	f500 6180 	add.w	r1, r0, #1024	; 0x400
 8005248:	1560      	asrs	r0, r4, #21
 800524a:	f8de 400c 	ldr.w	r4, [lr, #12]
 800524e:	6073      	str	r3, [r6, #4]
 8005250:	2300      	movs	r3, #0
 8005252:	b28a      	uxth	r2, r1
 8005254:	f362 030f 	bfi	r3, r2, #0, #16
 8005258:	f106 0c04 	add.w	ip, r6, #4
 800525c:	f362 431f 	bfi	r3, r2, #16, #16
 8005260:	f500 6180 	add.w	r1, r0, #1024	; 0x400
 8005264:	1560      	asrs	r0, r4, #21
 8005266:	f8de 4010 	ldr.w	r4, [lr, #16]
 800526a:	f8cc 3004 	str.w	r3, [ip, #4]
 800526e:	2300      	movs	r3, #0
 8005270:	b28a      	uxth	r2, r1
 8005272:	f362 030f 	bfi	r3, r2, #0, #16
 8005276:	f362 431f 	bfi	r3, r2, #16, #16
 800527a:	f500 6180 	add.w	r1, r0, #1024	; 0x400
 800527e:	1560      	asrs	r0, r4, #21
 8005280:	f8de 4014 	ldr.w	r4, [lr, #20]
 8005284:	f8cc 3008 	str.w	r3, [ip, #8]
 8005288:	2300      	movs	r3, #0
 800528a:	b28a      	uxth	r2, r1
 800528c:	f362 030f 	bfi	r3, r2, #0, #16
 8005290:	f362 431f 	bfi	r3, r2, #16, #16
 8005294:	f500 6180 	add.w	r1, r0, #1024	; 0x400
 8005298:	1560      	asrs	r0, r4, #21
 800529a:	f8de 4018 	ldr.w	r4, [lr, #24]
 800529e:	f8cc 300c 	str.w	r3, [ip, #12]
 80052a2:	2300      	movs	r3, #0
 80052a4:	b28a      	uxth	r2, r1
 80052a6:	f362 030f 	bfi	r3, r2, #0, #16
 80052aa:	f362 431f 	bfi	r3, r2, #16, #16
 80052ae:	f500 6180 	add.w	r1, r0, #1024	; 0x400
 80052b2:	1560      	asrs	r0, r4, #21
 80052b4:	f8de 401c 	ldr.w	r4, [lr, #28]
 80052b8:	f8cc 3010 	str.w	r3, [ip, #16]
 80052bc:	2300      	movs	r3, #0
 80052be:	b28a      	uxth	r2, r1
 80052c0:	f362 030f 	bfi	r3, r2, #0, #16
 80052c4:	f362 431f 	bfi	r3, r2, #16, #16
 80052c8:	f8cc 3014 	str.w	r3, [ip, #20]
 80052cc:	2300      	movs	r3, #0
 80052ce:	f500 6180 	add.w	r1, r0, #1024	; 0x400
 80052d2:	b28a      	uxth	r2, r1
 80052d4:	f362 030f 	bfi	r3, r2, #0, #16
 80052d8:	f362 431f 	bfi	r3, r2, #16, #16
 80052dc:	f8cc 3018 	str.w	r3, [ip, #24]
 80052e0:	2300      	movs	r3, #0
 80052e2:	1560      	asrs	r0, r4, #21
 80052e4:	f500 6180 	add.w	r1, r0, #1024	; 0x400
 80052e8:	b28a      	uxth	r2, r1
 80052ea:	3520      	adds	r5, #32
 80052ec:	f362 030f 	bfi	r3, r2, #0, #16
 80052f0:	f362 431f 	bfi	r3, r2, #16, #16
 80052f4:	42bd      	cmp	r5, r7
 80052f6:	f106 0620 	add.w	r6, r6, #32
 80052fa:	f8cc 301c 	str.w	r3, [ip, #28]
 80052fe:	d192      	bne.n	8005226 <dspPrepareOutput+0x1e>
 8005300:	bdf0      	pop	{r4, r5, r6, r7, pc}
 8005302:	bf00      	nop
 8005304:	20000b29 	.word	0x20000b29
 8005308:	20000924 	.word	0x20000924
 800530c:	20002090 	.word	0x20002090

08005310 <setTime>:
 8005310:	4a04      	ldr	r2, [pc, #16]	; (8005324 <setTime+0x14>)
 8005312:	4b05      	ldr	r3, [pc, #20]	; (8005328 <setTime+0x18>)
 8005314:	6812      	ldr	r2, [r2, #0]
 8005316:	eb00 0040 	add.w	r0, r0, r0, lsl #1
 800531a:	6852      	ldr	r2, [r2, #4]
 800531c:	eb03 00c0 	add.w	r0, r3, r0, lsl #3
 8005320:	6102      	str	r2, [r0, #16]
 8005322:	4770      	bx	lr
 8005324:	20000238 	.word	0x20000238
 8005328:	2000001c 	.word	0x2000001c

0800532c <dspProc>:
 800532c:	e92d 41f0 	stmdb	sp!, {r4, r5, r6, r7, r8, lr}
 8005330:	4d43      	ldr	r5, [pc, #268]	; (8005440 <dspProc+0x114>)
 8005332:	b0c2      	sub	sp, #264	; 0x108
 8005334:	782b      	ldrb	r3, [r5, #0]
 8005336:	bb43      	cbnz	r3, 800538a <dspProc+0x5e>
 8005338:	4e42      	ldr	r6, [pc, #264]	; (8005444 <dspProc+0x118>)
 800533a:	4c43      	ldr	r4, [pc, #268]	; (8005448 <dspProc+0x11c>)
 800533c:	6832      	ldr	r2, [r6, #0]
 800533e:	4943      	ldr	r1, [pc, #268]	; (800544c <dspProc+0x120>)
 8005340:	6853      	ldr	r3, [r2, #4]
 8005342:	4f43      	ldr	r7, [pc, #268]	; (8005450 <dspProc+0x124>)
 8005344:	6123      	str	r3, [r4, #16]
 8005346:	f891 801c 	ldrb.w	r8, [r1, #28]
 800534a:	6853      	ldr	r3, [r2, #4]
 800534c:	603b      	str	r3, [r7, #0]
 800534e:	f1b8 0f00 	cmp.w	r8, #0
 8005352:	d01d      	beq.n	8005390 <dspProc+0x64>
 8005354:	2064      	movs	r0, #100	; 0x64
 8005356:	6851      	ldr	r1, [r2, #4]
 8005358:	6852      	ldr	r2, [r2, #4]
 800535a:	f8c4 10d0 	str.w	r1, [r4, #208]	; 0xd0
 800535e:	1a9b      	subs	r3, r3, r2
 8005360:	fb00 f303 	mul.w	r3, r0, r3
 8005364:	493b      	ldr	r1, [pc, #236]	; (8005454 <dspProc+0x128>)
 8005366:	2b00      	cmp	r3, #0
 8005368:	600a      	str	r2, [r1, #0]
 800536a:	bfb8      	it	lt
 800536c:	337f      	addlt	r3, #127	; 0x7f
 800536e:	493a      	ldr	r1, [pc, #232]	; (8005458 <dspProc+0x12c>)
 8005370:	11db      	asrs	r3, r3, #7
 8005372:	2401      	movs	r4, #1
 8005374:	600b      	str	r3, [r1, #0]
 8005376:	2200      	movs	r2, #0
 8005378:	f44f 7180 	mov.w	r1, #256	; 0x100
 800537c:	4837      	ldr	r0, [pc, #220]	; (800545c <dspProc+0x130>)
 800537e:	702c      	strb	r4, [r5, #0]
 8005380:	b042      	add	sp, #264	; 0x108
 8005382:	e8bd 41f0 	ldmia.w	sp!, {r4, r5, r6, r7, r8, lr}
 8005386:	f7fd ba25 	b.w	80027d4 <HAL_GPIO_WritePin>
 800538a:	b042      	add	sp, #264	; 0x108
 800538c:	e8bd 81f0 	ldmia.w	sp!, {r4, r5, r6, r7, r8, pc}
 8005390:	2201      	movs	r2, #1
 8005392:	f44f 7180 	mov.w	r1, #256	; 0x100
 8005396:	4831      	ldr	r0, [pc, #196]	; (800545c <dspProc+0x130>)
 8005398:	f7fd fa1c 	bl	80027d4 <HAL_GPIO_WritePin>
 800539c:	f7ff feaa 	bl	80050f4 <dspPrepareInput>
 80053a0:	6833      	ldr	r3, [r6, #0]
 80053a2:	f44f 7200 	mov.w	r2, #512	; 0x200
 80053a6:	685b      	ldr	r3, [r3, #4]
 80053a8:	492d      	ldr	r1, [pc, #180]	; (8005460 <dspProc+0x134>)
 80053aa:	482e      	ldr	r0, [pc, #184]	; (8005464 <dspProc+0x138>)
 80053ac:	62a3      	str	r3, [r4, #40]	; 0x28
 80053ae:	f000 fdad 	bl	8005f0c <arm_copy_q31>
 80053b2:	4642      	mov	r2, r8
 80053b4:	2301      	movs	r3, #1
 80053b6:	492a      	ldr	r1, [pc, #168]	; (8005460 <dspProc+0x134>)
 80053b8:	482b      	ldr	r0, [pc, #172]	; (8005468 <dspProc+0x13c>)
 80053ba:	f000 ff21 	bl	8006200 <arm_cfft_q31>
 80053be:	6833      	ldr	r3, [r6, #0]
 80053c0:	f44f 7280 	mov.w	r2, #256	; 0x100
 80053c4:	685b      	ldr	r3, [r3, #4]
 80053c6:	4929      	ldr	r1, [pc, #164]	; (800546c <dspProc+0x140>)
 80053c8:	4825      	ldr	r0, [pc, #148]	; (8005460 <dspProc+0x134>)
 80053ca:	6423      	str	r3, [r4, #64]	; 0x40
 80053cc:	f001 fc7a 	bl	8006cc4 <arm_cmplx_mag_q31>
 80053d0:	f44f 7c80 	mov.w	ip, #256	; 0x100
 80053d4:	4b25      	ldr	r3, [pc, #148]	; (800546c <dspProc+0x140>)
 80053d6:	f8cd c000 	str.w	ip, [sp]
 80053da:	4618      	mov	r0, r3
 80053dc:	f06f 0217 	mvn.w	r2, #23
 80053e0:	4923      	ldr	r1, [pc, #140]	; (8005470 <dspProc+0x144>)
 80053e2:	f001 fdf1 	bl	8006fc8 <arm_scale_q31>
 80053e6:	6833      	ldr	r3, [r6, #0]
 80053e8:	4a22      	ldr	r2, [pc, #136]	; (8005474 <dspProc+0x148>)
 80053ea:	685b      	ldr	r3, [r3, #4]
 80053ec:	4922      	ldr	r1, [pc, #136]	; (8005478 <dspProc+0x14c>)
 80053ee:	4823      	ldr	r0, [pc, #140]	; (800547c <dspProc+0x150>)
 80053f0:	65a3      	str	r3, [r4, #88]	; 0x58
 80053f2:	2380      	movs	r3, #128	; 0x80
 80053f4:	f001 fb8e 	bl	8006b14 <arm_fir_decimate_q31>
 80053f8:	2380      	movs	r3, #128	; 0x80
 80053fa:	4921      	ldr	r1, [pc, #132]	; (8005480 <dspProc+0x154>)
 80053fc:	4821      	ldr	r0, [pc, #132]	; (8005484 <dspProc+0x158>)
 80053fe:	aa02      	add	r2, sp, #8
 8005400:	f001 fb88 	bl	8006b14 <arm_fir_decimate_q31>
 8005404:	6833      	ldr	r3, [r6, #0]
 8005406:	491b      	ldr	r1, [pc, #108]	; (8005474 <dspProc+0x148>)
 8005408:	685b      	ldr	r3, [r3, #4]
 800540a:	4608      	mov	r0, r1
 800540c:	2240      	movs	r2, #64	; 0x40
 800540e:	6723      	str	r3, [r4, #112]	; 0x70
 8005410:	f7ff fd7e 	bl	8004f10 <agcPrasolovFloat>
 8005414:	6833      	ldr	r3, [r6, #0]
 8005416:	4917      	ldr	r1, [pc, #92]	; (8005474 <dspProc+0x148>)
 8005418:	685b      	ldr	r3, [r3, #4]
 800541a:	2240      	movs	r2, #64	; 0x40
 800541c:	4608      	mov	r0, r1
 800541e:	f8c4 3088 	str.w	r3, [r4, #136]	; 0x88
 8005422:	f7ff fde1 	bl	8004fe8 <softClip>
 8005426:	6833      	ldr	r3, [r6, #0]
 8005428:	685b      	ldr	r3, [r3, #4]
 800542a:	f8c4 30a0 	str.w	r3, [r4, #160]	; 0xa0
 800542e:	f7ff feeb 	bl	8005208 <dspPrepareOutput>
 8005432:	6832      	ldr	r2, [r6, #0]
 8005434:	683b      	ldr	r3, [r7, #0]
 8005436:	6851      	ldr	r1, [r2, #4]
 8005438:	f8c4 10b8 	str.w	r1, [r4, #184]	; 0xb8
 800543c:	e78a      	b.n	8005354 <dspProc+0x28>
 800543e:	bf00      	nop
 8005440:	20000b28 	.word	0x20000b28
 8005444:	20000238 	.word	0x20000238
 8005448:	2000001c 	.word	0x2000001c
 800544c:	20002740 	.word	0x20002740
 8005450:	20000b2c 	.word	0x20000b2c
 8005454:	20000520 	.word	0x20000520
 8005458:	20000924 	.word	0x20000924
 800545c:	40010c00 	.word	0x40010c00
 8005460:	20000b30 	.word	0x20000b30
 8005464:	20001a90 	.word	0x20001a90
 8005468:	20001330 	.word	0x20001330
 800546c:	20001e90 	.word	0x20001e90
 8005470:	7eb851ec 	.word	0x7eb851ec
 8005474:	20000928 	.word	0x20000928
 8005478:	20000524 	.word	0x20000524
 800547c:	20001340 	.word	0x20001340
 8005480:	20000724 	.word	0x20000724
 8005484:	2000134c 	.word	0x2000134c

08005488 <HAL_ADC_ConvHalfCpltCallback>:
 8005488:	b510      	push	{r4, lr}
 800548a:	4c07      	ldr	r4, [pc, #28]	; (80054a8 <HAL_ADC_ConvHalfCpltCallback+0x20>)
 800548c:	f44f 7100 	mov.w	r1, #512	; 0x200
 8005490:	7822      	ldrb	r2, [r4, #0]
 8005492:	4806      	ldr	r0, [pc, #24]	; (80054ac <HAL_ADC_ConvHalfCpltCallback+0x24>)
 8005494:	f7fd f99e 	bl	80027d4 <HAL_GPIO_WritePin>
 8005498:	2300      	movs	r3, #0
 800549a:	2101      	movs	r1, #1
 800549c:	4804      	ldr	r0, [pc, #16]	; (80054b0 <HAL_ADC_ConvHalfCpltCallback+0x28>)
 800549e:	4a05      	ldr	r2, [pc, #20]	; (80054b4 <HAL_ADC_ConvHalfCpltCallback+0x2c>)
 80054a0:	7003      	strb	r3, [r0, #0]
 80054a2:	7021      	strb	r1, [r4, #0]
 80054a4:	7013      	strb	r3, [r2, #0]
 80054a6:	bd10      	pop	{r4, pc}
 80054a8:	20000b29 	.word	0x20000b29
 80054ac:	40010c00 	.word	0x40010c00
 80054b0:	20000b28 	.word	0x20000b28
 80054b4:	200028b0 	.word	0x200028b0

080054b8 <HAL_ADC_ConvCpltCallback>:
 80054b8:	b510      	push	{r4, lr}
 80054ba:	4c07      	ldr	r4, [pc, #28]	; (80054d8 <HAL_ADC_ConvCpltCallback+0x20>)
 80054bc:	f44f 7100 	mov.w	r1, #512	; 0x200
 80054c0:	7822      	ldrb	r2, [r4, #0]
 80054c2:	4806      	ldr	r0, [pc, #24]	; (80054dc <HAL_ADC_ConvCpltCallback+0x24>)
 80054c4:	f7fd f986 	bl	80027d4 <HAL_GPIO_WritePin>
 80054c8:	2300      	movs	r3, #0
 80054ca:	4905      	ldr	r1, [pc, #20]	; (80054e0 <HAL_ADC_ConvCpltCallback+0x28>)
 80054cc:	4a05      	ldr	r2, [pc, #20]	; (80054e4 <HAL_ADC_ConvCpltCallback+0x2c>)
 80054ce:	7023      	strb	r3, [r4, #0]
 80054d0:	700b      	strb	r3, [r1, #0]
 80054d2:	7013      	strb	r3, [r2, #0]
 80054d4:	bd10      	pop	{r4, pc}
 80054d6:	bf00      	nop
 80054d8:	20000b29 	.word	0x20000b29
 80054dc:	40010c00 	.word	0x40010c00
 80054e0:	20000b28 	.word	0x20000b28
 80054e4:	200028b0 	.word	0x200028b0

080054e8 <HAL_TIM_PWM_PulseFinishedHalfCpltCallback>:
 80054e8:	4770      	bx	lr
 80054ea:	bf00      	nop

080054ec <HAL_TIM_PWM_PulseFinishedCallback>:
 80054ec:	4770      	bx	lr
 80054ee:	bf00      	nop

080054f0 <firInit>:
 80054f0:	4770      	bx	lr
 80054f2:	bf00      	nop

080054f4 <GLCD_Font_PrintNew.constprop.1>:
 80054f4:	e92d 43f0 	stmdb	sp!, {r4, r5, r6, r7, r8, r9, lr}
 80054f8:	4696      	mov	lr, r2
 80054fa:	08cc      	lsrs	r4, r1, #3
 80054fc:	4602      	mov	r2, r0
 80054fe:	f001 0007 	and.w	r0, r1, #7
 8005502:	f89e 1000 	ldrb.w	r1, [lr]
 8005506:	2900      	cmp	r1, #0
 8005508:	f000 809f 	beq.w	800564a <GLCD_Font_PrintNew.constprop.1+0x156>
 800550c:	eb02 12c4 	add.w	r2, r2, r4, lsl #7
 8005510:	4b4f      	ldr	r3, [pc, #316]	; (8005650 <GLCD_Font_PrintNew.constprop.1+0x15c>)
 8005512:	4c50      	ldr	r4, [pc, #320]	; (8005654 <GLCD_Font_PrintNew.constprop.1+0x160>)
 8005514:	e05b      	b.n	80055ce <GLCD_Font_PrintNew.constprop.1+0xda>
 8005516:	f813 c007 	ldrb.w	ip, [r3, r7]
 800551a:	f811 9c9f 	ldrb.w	r9, [r1, #-159]
 800551e:	ea4c 2c18 	orr.w	ip, ip, r8, lsr #8
 8005522:	fa5f fc8c 	uxtb.w	ip, ip
 8005526:	f803 c007 	strb.w	ip, [r3, r7]
 800552a:	f813 c006 	ldrb.w	ip, [r3, r6]
 800552e:	fa09 f900 	lsl.w	r9, r9, r0
 8005532:	ea4c 0c09 	orr.w	ip, ip, r9
 8005536:	fa5f fc8c 	uxtb.w	ip, ip
 800553a:	f803 c006 	strb.w	ip, [r3, r6]
 800553e:	f813 c005 	ldrb.w	ip, [r3, r5]
 8005542:	1c96      	adds	r6, r2, #2
 8005544:	ea4c 2c19 	orr.w	ip, ip, r9, lsr #8
 8005548:	fa5f fc8c 	uxtb.w	ip, ip
 800554c:	f803 c005 	strb.w	ip, [r3, r5]
 8005550:	f811 5c9e 	ldrb.w	r5, [r1, #-158]
 8005554:	f813 c006 	ldrb.w	ip, [r3, r6]
 8005558:	4085      	lsls	r5, r0
 800555a:	ea4c 0c05 	orr.w	ip, ip, r5
 800555e:	fa5f fc8c 	uxtb.w	ip, ip
 8005562:	f803 c006 	strb.w	ip, [r3, r6]
 8005566:	f102 0782 	add.w	r7, r2, #130	; 0x82
 800556a:	f813 c007 	ldrb.w	ip, [r3, r7]
 800556e:	1cd6      	adds	r6, r2, #3
 8005570:	ea4c 2c15 	orr.w	ip, ip, r5, lsr #8
 8005574:	fa5f fc8c 	uxtb.w	ip, ip
 8005578:	f803 c007 	strb.w	ip, [r3, r7]
 800557c:	f811 5c9d 	ldrb.w	r5, [r1, #-157]
 8005580:	f813 c006 	ldrb.w	ip, [r3, r6]
 8005584:	4085      	lsls	r5, r0
 8005586:	ea4c 0c05 	orr.w	ip, ip, r5
 800558a:	fa5f fc8c 	uxtb.w	ip, ip
 800558e:	f803 c006 	strb.w	ip, [r3, r6]
 8005592:	f102 0783 	add.w	r7, r2, #131	; 0x83
 8005596:	f813 c007 	ldrb.w	ip, [r3, r7]
 800559a:	1d16      	adds	r6, r2, #4
 800559c:	ea4c 2c15 	orr.w	ip, ip, r5, lsr #8
 80055a0:	fa5f fc8c 	uxtb.w	ip, ip
 80055a4:	f803 c007 	strb.w	ip, [r3, r7]
 80055a8:	f811 5c9c 	ldrb.w	r5, [r1, #-156]
 80055ac:	5d99      	ldrb	r1, [r3, r6]
 80055ae:	4085      	lsls	r5, r0
 80055b0:	4329      	orrs	r1, r5
 80055b2:	b2c9      	uxtb	r1, r1
 80055b4:	5599      	strb	r1, [r3, r6]
 80055b6:	f102 0684 	add.w	r6, r2, #132	; 0x84
 80055ba:	5d99      	ldrb	r1, [r3, r6]
 80055bc:	3206      	adds	r2, #6
 80055be:	ea41 2115 	orr.w	r1, r1, r5, lsr #8
 80055c2:	b2c9      	uxtb	r1, r1
 80055c4:	5599      	strb	r1, [r3, r6]
 80055c6:	f81e 1f01 	ldrb.w	r1, [lr, #1]!
 80055ca:	2900      	cmp	r1, #0
 80055cc:	d03d      	beq.n	800564a <GLCD_Font_PrintNew.constprop.1+0x156>
 80055ce:	eb01 0181 	add.w	r1, r1, r1, lsl #2
 80055d2:	4421      	add	r1, r4
 80055d4:	f811 8ca0 	ldrb.w	r8, [r1, #-160]
 80055d8:	f813 c002 	ldrb.w	ip, [r3, r2]
 80055dc:	fa08 f800 	lsl.w	r8, r8, r0
 80055e0:	ea4c 0c08 	orr.w	ip, ip, r8
 80055e4:	fa5f fc8c 	uxtb.w	ip, ip
 80055e8:	f102 0780 	add.w	r7, r2, #128	; 0x80
 80055ec:	1c56      	adds	r6, r2, #1
 80055ee:	f102 0581 	add.w	r5, r2, #129	; 0x81
 80055f2:	f803 c002 	strb.w	ip, [r3, r2]
 80055f6:	2800      	cmp	r0, #0
 80055f8:	d18d      	bne.n	8005516 <GLCD_Font_PrintNew.constprop.1+0x22>
 80055fa:	f811 5c9f 	ldrb.w	r5, [r1, #-159]
 80055fe:	1c56      	adds	r6, r2, #1
 8005600:	fa05 f700 	lsl.w	r7, r5, r0
 8005604:	5d9d      	ldrb	r5, [r3, r6]
 8005606:	433d      	orrs	r5, r7
 8005608:	b2ed      	uxtb	r5, r5
 800560a:	559d      	strb	r5, [r3, r6]
 800560c:	f811 5c9e 	ldrb.w	r5, [r1, #-158]
 8005610:	1c96      	adds	r6, r2, #2
 8005612:	fa05 f700 	lsl.w	r7, r5, r0
 8005616:	5d9d      	ldrb	r5, [r3, r6]
 8005618:	433d      	orrs	r5, r7
 800561a:	b2ed      	uxtb	r5, r5
 800561c:	f811 7c9d 	ldrb.w	r7, [r1, #-157]
 8005620:	f811 1c9c 	ldrb.w	r1, [r1, #-156]
 8005624:	559d      	strb	r5, [r3, r6]
 8005626:	1cd5      	adds	r5, r2, #3
 8005628:	fa01 f600 	lsl.w	r6, r1, r0
 800562c:	5d59      	ldrb	r1, [r3, r5]
 800562e:	4087      	lsls	r7, r0
 8005630:	4339      	orrs	r1, r7
 8005632:	b2c9      	uxtb	r1, r1
 8005634:	5559      	strb	r1, [r3, r5]
 8005636:	1d15      	adds	r5, r2, #4
 8005638:	5d59      	ldrb	r1, [r3, r5]
 800563a:	3206      	adds	r2, #6
 800563c:	4331      	orrs	r1, r6
 800563e:	b2c9      	uxtb	r1, r1
 8005640:	5559      	strb	r1, [r3, r5]
 8005642:	f81e 1f01 	ldrb.w	r1, [lr, #1]!
 8005646:	2900      	cmp	r1, #0
 8005648:	d1c1      	bne.n	80055ce <GLCD_Font_PrintNew.constprop.1+0xda>
 800564a:	e8bd 83f0 	ldmia.w	sp!, {r4, r5, r6, r7, r8, r9, pc}
 800564e:	bf00      	nop
 8005650:	20002294 	.word	0x20002294
 8005654:	080088e4 	.word	0x080088e4

08005658 <gfxDrawSmeter>:
 8005658:	b530      	push	{r4, r5, lr}
 800565a:	254c      	movs	r5, #76	; 0x4c
 800565c:	2301      	movs	r3, #1
 800565e:	4a21      	ldr	r2, [pc, #132]	; (80056e4 <gfxDrawSmeter+0x8c>)
 8005660:	4c21      	ldr	r4, [pc, #132]	; (80056e8 <gfxDrawSmeter+0x90>)
 8005662:	f892 1101 	ldrb.w	r1, [r2, #257]	; 0x101
 8005666:	f041 0180 	orr.w	r1, r1, #128	; 0x80
 800566a:	f882 1101 	strb.w	r1, [r2, #257]	; 0x101
 800566e:	f892 1181 	ldrb.w	r1, [r2, #385]	; 0x181
 8005672:	f041 0107 	orr.w	r1, r1, #7
 8005676:	f882 1181 	strb.w	r1, [r2, #385]	; 0x181
 800567a:	fb05 f100 	mul.w	r1, r5, r0
 800567e:	fb84 0401 	smull	r0, r4, r4, r1
 8005682:	17cd      	asrs	r5, r1, #31
 8005684:	ebc5 1564 	rsb	r5, r5, r4, asr #5
 8005688:	b2ed      	uxtb	r5, r5
 800568a:	429d      	cmp	r5, r3
 800568c:	dd25      	ble.n	80056da <gfxDrawSmeter+0x82>
 800568e:	f013 0f07 	tst.w	r3, #7
 8005692:	bf0c      	ite	eq
 8005694:	210c      	moveq	r1, #12
 8005696:	210f      	movne	r1, #15
 8005698:	20c0      	movs	r0, #192	; 0xc0
 800569a:	f203 1e01 	addw	lr, r3, #257	; 0x101
 800569e:	f812 400e 	ldrb.w	r4, [r2, lr]
 80056a2:	f203 1c81 	addw	ip, r3, #385	; 0x181
 80056a6:	4320      	orrs	r0, r4
 80056a8:	f802 000e 	strb.w	r0, [r2, lr]
 80056ac:	f812 000c 	ldrb.w	r0, [r2, ip]
 80056b0:	3301      	adds	r3, #1
 80056b2:	4301      	orrs	r1, r0
 80056b4:	2b4c      	cmp	r3, #76	; 0x4c
 80056b6:	f802 100c 	strb.w	r1, [r2, ip]
 80056ba:	d00d      	beq.n	80056d8 <gfxDrawSmeter+0x80>
 80056bc:	2b4b      	cmp	r3, #75	; 0x4b
 80056be:	d1e4      	bne.n	800568a <gfxDrawSmeter+0x32>
 80056c0:	f892 314c 	ldrb.w	r3, [r2, #332]	; 0x14c
 80056c4:	f043 0380 	orr.w	r3, r3, #128	; 0x80
 80056c8:	f882 314c 	strb.w	r3, [r2, #332]	; 0x14c
 80056cc:	f892 31cc 	ldrb.w	r3, [r2, #460]	; 0x1cc
 80056d0:	f043 0307 	orr.w	r3, r3, #7
 80056d4:	f882 31cc 	strb.w	r3, [r2, #460]	; 0x1cc
 80056d8:	bd30      	pop	{r4, r5, pc}
 80056da:	bf14      	ite	ne
 80056dc:	2108      	movne	r1, #8
 80056de:	210b      	moveq	r1, #11
 80056e0:	2040      	movs	r0, #64	; 0x40
 80056e2:	e7da      	b.n	800569a <gfxDrawSmeter+0x42>
 80056e4:	20002294 	.word	0x20002294
 80056e8:	51eb851f 	.word	0x51eb851f

080056ec <gfxDemoDraw>:
 80056ec:	e92d 43f8 	stmdb	sp!, {r3, r4, r5, r6, r7, r8, r9, lr}
 80056f0:	2100      	movs	r1, #0
 80056f2:	4ad6      	ldr	r2, [pc, #856]	; (8005a4c <gfxDemoDraw+0x360>)
 80056f4:	2050      	movs	r0, #80	; 0x50
 80056f6:	f7ff fefd 	bl	80054f4 <GLCD_Font_PrintNew.constprop.1>
 80056fa:	2100      	movs	r1, #0
 80056fc:	4ad4      	ldr	r2, [pc, #848]	; (8005a50 <gfxDemoDraw+0x364>)
 80056fe:	2062      	movs	r0, #98	; 0x62
 8005700:	f7ff fef8 	bl	80054f4 <GLCD_Font_PrintNew.constprop.1>
 8005704:	210a      	movs	r1, #10
 8005706:	4ad3      	ldr	r2, [pc, #844]	; (8005a54 <gfxDemoDraw+0x368>)
 8005708:	2050      	movs	r0, #80	; 0x50
 800570a:	f7ff fef3 	bl	80054f4 <GLCD_Font_PrintNew.constprop.1>
 800570e:	4ed2      	ldr	r6, [pc, #840]	; (8005a58 <gfxDemoDraw+0x36c>)
 8005710:	4bd2      	ldr	r3, [pc, #840]	; (8005a5c <gfxDemoDraw+0x370>)
 8005712:	49d3      	ldr	r1, [pc, #844]	; (8005a60 <gfxDemoDraw+0x374>)
 8005714:	681a      	ldr	r2, [r3, #0]
 8005716:	4630      	mov	r0, r6
 8005718:	f001 ff2c 	bl	8007574 <siprintf>
 800571c:	4632      	mov	r2, r6
 800571e:	210a      	movs	r1, #10
 8005720:	2068      	movs	r0, #104	; 0x68
 8005722:	f7ff fee7 	bl	80054f4 <GLCD_Font_PrintNew.constprop.1>
 8005726:	2114      	movs	r1, #20
 8005728:	4ace      	ldr	r2, [pc, #824]	; (8005a64 <gfxDemoDraw+0x378>)
 800572a:	2050      	movs	r0, #80	; 0x50
 800572c:	f7ff fee2 	bl	80054f4 <GLCD_Font_PrintNew.constprop.1>
 8005730:	2114      	movs	r1, #20
 8005732:	4acd      	ldr	r2, [pc, #820]	; (8005a68 <gfxDemoDraw+0x37c>)
 8005734:	206e      	movs	r0, #110	; 0x6e
 8005736:	f7ff fedd 	bl	80054f4 <GLCD_Font_PrintNew.constprop.1>
 800573a:	4dcc      	ldr	r5, [pc, #816]	; (8005a6c <gfxDemoDraw+0x380>)
 800573c:	2136      	movs	r1, #54	; 0x36
 800573e:	4acc      	ldr	r2, [pc, #816]	; (8005a70 <gfxDemoDraw+0x384>)
 8005740:	2001      	movs	r0, #1
 8005742:	f7ff fed7 	bl	80054f4 <GLCD_Font_PrintNew.constprop.1>
 8005746:	2136      	movs	r1, #54	; 0x36
 8005748:	4aca      	ldr	r2, [pc, #808]	; (8005a74 <gfxDemoDraw+0x388>)
 800574a:	202e      	movs	r0, #46	; 0x2e
 800574c:	f7ff fed2 	bl	80054f4 <GLCD_Font_PrintNew.constprop.1>
 8005750:	682b      	ldr	r3, [r5, #0]
 8005752:	49c9      	ldr	r1, [pc, #804]	; (8005a78 <gfxDemoDraw+0x38c>)
 8005754:	17da      	asrs	r2, r3, #31
 8005756:	fb81 1303 	smull	r1, r3, r1, r3
 800575a:	4630      	mov	r0, r6
 800575c:	ebc2 02a3 	rsb	r2, r2, r3, asr #2
 8005760:	49c6      	ldr	r1, [pc, #792]	; (8005a7c <gfxDemoDraw+0x390>)
 8005762:	f001 ff07 	bl	8007574 <siprintf>
 8005766:	7832      	ldrb	r2, [r6, #0]
 8005768:	2a00      	cmp	r2, #0
 800576a:	f000 825d 	beq.w	8005c28 <gfxDemoDraw+0x53c>
 800576e:	2300      	movs	r3, #0
 8005770:	4637      	mov	r7, r6
 8005772:	48c3      	ldr	r0, [pc, #780]	; (8005a80 <gfxDemoDraw+0x394>)
 8005774:	4cc3      	ldr	r4, [pc, #780]	; (8005a84 <gfxDemoDraw+0x398>)
 8005776:	eb02 02c2 	add.w	r2, r2, r2, lsl #3
 800577a:	f5a2 7cd8 	sub.w	ip, r2, #432	; 0x1b0
 800577e:	5ce1      	ldrb	r1, [r4, r3]
 8005780:	f830 e01c 	ldrh.w	lr, [r0, ip, lsl #1]
 8005784:	f103 0c80 	add.w	ip, r3, #128	; 0x80
 8005788:	ea41 010e 	orr.w	r1, r1, lr
 800578c:	b2c9      	uxtb	r1, r1
 800578e:	54e1      	strb	r1, [r4, r3]
 8005790:	f814 100c 	ldrb.w	r1, [r4, ip]
 8005794:	f103 0901 	add.w	r9, r3, #1
 8005798:	ea41 211e 	orr.w	r1, r1, lr, lsr #8
 800579c:	f804 100c 	strb.w	r1, [r4, ip]
 80057a0:	f46f 7cd7 	mvn.w	ip, #430	; 0x1ae
 80057a4:	eb02 010c 	add.w	r1, r2, ip
 80057a8:	f830 8011 	ldrh.w	r8, [r0, r1, lsl #1]
 80057ac:	f814 c009 	ldrb.w	ip, [r4, r9]
 80057b0:	f103 0e81 	add.w	lr, r3, #129	; 0x81
 80057b4:	ea4c 0c08 	orr.w	ip, ip, r8
 80057b8:	fa5f fc8c 	uxtb.w	ip, ip
 80057bc:	f804 c009 	strb.w	ip, [r4, r9]
 80057c0:	f46f 79d5 	mvn.w	r9, #426	; 0x1aa
 80057c4:	444a      	add	r2, r9
 80057c6:	f830 c012 	ldrh.w	ip, [r0, r2, lsl #1]
 80057ca:	f814 200e 	ldrb.w	r2, [r4, lr]
 80057ce:	eb00 0141 	add.w	r1, r0, r1, lsl #1
 80057d2:	ea42 2818 	orr.w	r8, r2, r8, lsr #8
 80057d6:	f804 800e 	strb.w	r8, [r4, lr]
 80057da:	f103 0902 	add.w	r9, r3, #2
 80057de:	f814 2009 	ldrb.w	r2, [r4, r9]
 80057e2:	f8b1 8002 	ldrh.w	r8, [r1, #2]
 80057e6:	f103 0e82 	add.w	lr, r3, #130	; 0x82
 80057ea:	ea42 0208 	orr.w	r2, r2, r8
 80057ee:	b2d2      	uxtb	r2, r2
 80057f0:	f804 2009 	strb.w	r2, [r4, r9]
 80057f4:	f814 200e 	ldrb.w	r2, [r4, lr]
 80057f8:	f103 0903 	add.w	r9, r3, #3
 80057fc:	ea42 2818 	orr.w	r8, r2, r8, lsr #8
 8005800:	f804 800e 	strb.w	r8, [r4, lr]
 8005804:	f814 2009 	ldrb.w	r2, [r4, r9]
 8005808:	f8b1 8004 	ldrh.w	r8, [r1, #4]
 800580c:	f103 0e83 	add.w	lr, r3, #131	; 0x83
 8005810:	ea42 0208 	orr.w	r2, r2, r8
 8005814:	b2d2      	uxtb	r2, r2
 8005816:	f804 2009 	strb.w	r2, [r4, r9]
 800581a:	f814 200e 	ldrb.w	r2, [r4, lr]
 800581e:	f103 0904 	add.w	r9, r3, #4
 8005822:	ea42 2818 	orr.w	r8, r2, r8, lsr #8
 8005826:	f804 800e 	strb.w	r8, [r4, lr]
 800582a:	f814 2009 	ldrb.w	r2, [r4, r9]
 800582e:	f8b1 8006 	ldrh.w	r8, [r1, #6]
 8005832:	f103 0e84 	add.w	lr, r3, #132	; 0x84
 8005836:	ea42 0208 	orr.w	r2, r2, r8
 800583a:	b2d2      	uxtb	r2, r2
 800583c:	f804 2009 	strb.w	r2, [r4, r9]
 8005840:	f814 200e 	ldrb.w	r2, [r4, lr]
 8005844:	f103 0905 	add.w	r9, r3, #5
 8005848:	ea42 2818 	orr.w	r8, r2, r8, lsr #8
 800584c:	f804 800e 	strb.w	r8, [r4, lr]
 8005850:	f814 2009 	ldrb.w	r2, [r4, r9]
 8005854:	f103 0e85 	add.w	lr, r3, #133	; 0x85
 8005858:	ea42 020c 	orr.w	r2, r2, ip
 800585c:	b2d2      	uxtb	r2, r2
 800585e:	f804 2009 	strb.w	r2, [r4, r9]
 8005862:	f814 200e 	ldrb.w	r2, [r4, lr]
 8005866:	f103 0906 	add.w	r9, r3, #6
 800586a:	ea42 2c1c 	orr.w	ip, r2, ip, lsr #8
 800586e:	f804 c00e 	strb.w	ip, [r4, lr]
 8005872:	f8b1 800a 	ldrh.w	r8, [r1, #10]
 8005876:	f814 2009 	ldrb.w	r2, [r4, r9]
 800587a:	f103 0e86 	add.w	lr, r3, #134	; 0x86
 800587e:	ea42 0208 	orr.w	r2, r2, r8
 8005882:	b2d2      	uxtb	r2, r2
 8005884:	f804 2009 	strb.w	r2, [r4, r9]
 8005888:	f814 200e 	ldrb.w	r2, [r4, lr]
 800588c:	f103 0c07 	add.w	ip, r3, #7
 8005890:	ea42 2218 	orr.w	r2, r2, r8, lsr #8
 8005894:	f804 200e 	strb.w	r2, [r4, lr]
 8005898:	f814 200c 	ldrb.w	r2, [r4, ip]
 800589c:	f8b1 800c 	ldrh.w	r8, [r1, #12]
 80058a0:	f103 0e87 	add.w	lr, r3, #135	; 0x87
 80058a4:	ea42 0208 	orr.w	r2, r2, r8
 80058a8:	b2d2      	uxtb	r2, r2
 80058aa:	f804 200c 	strb.w	r2, [r4, ip]
 80058ae:	f814 200e 	ldrb.w	r2, [r4, lr]
 80058b2:	f103 0c08 	add.w	ip, r3, #8
 80058b6:	ea42 2218 	orr.w	r2, r2, r8, lsr #8
 80058ba:	f804 200e 	strb.w	r2, [r4, lr]
 80058be:	f814 200c 	ldrb.w	r2, [r4, ip]
 80058c2:	f8b1 800e 	ldrh.w	r8, [r1, #14]
 80058c6:	f103 0e88 	add.w	lr, r3, #136	; 0x88
 80058ca:	ea42 0208 	orr.w	r2, r2, r8
 80058ce:	b2d2      	uxtb	r2, r2
 80058d0:	f804 200c 	strb.w	r2, [r4, ip]
 80058d4:	f814 100e 	ldrb.w	r1, [r4, lr]
 80058d8:	f817 2f01 	ldrb.w	r2, [r7, #1]!
 80058dc:	ea41 2118 	orr.w	r1, r1, r8, lsr #8
 80058e0:	f804 100e 	strb.w	r1, [r4, lr]
 80058e4:	330a      	adds	r3, #10
 80058e6:	2a00      	cmp	r2, #0
 80058e8:	f47f af45 	bne.w	8005776 <gfxDemoDraw+0x8a>
 80058ec:	682a      	ldr	r2, [r5, #0]
 80058ee:	4962      	ldr	r1, [pc, #392]	; (8005a78 <gfxDemoDraw+0x38c>)
 80058f0:	4859      	ldr	r0, [pc, #356]	; (8005a58 <gfxDemoDraw+0x36c>)
 80058f2:	fb81 3102 	smull	r3, r1, r1, r2
 80058f6:	17d3      	asrs	r3, r2, #31
 80058f8:	ebc3 03a1 	rsb	r3, r3, r1, asr #2
 80058fc:	eb03 0383 	add.w	r3, r3, r3, lsl #2
 8005900:	eba2 0243 	sub.w	r2, r2, r3, lsl #1
 8005904:	495d      	ldr	r1, [pc, #372]	; (8005a7c <gfxDemoDraw+0x390>)
 8005906:	f001 fe35 	bl	8007574 <siprintf>
 800590a:	7832      	ldrb	r2, [r6, #0]
 800590c:	2a00      	cmp	r2, #0
 800590e:	d07c      	beq.n	8005a0a <gfxDemoDraw+0x31e>
 8005910:	2346      	movs	r3, #70	; 0x46
 8005912:	4e51      	ldr	r6, [pc, #324]	; (8005a58 <gfxDemoDraw+0x36c>)
 8005914:	485c      	ldr	r0, [pc, #368]	; (8005a88 <gfxDemoDraw+0x39c>)
 8005916:	eb02 0242 	add.w	r2, r2, r2, lsl #1
 800591a:	0052      	lsls	r2, r2, #1
 800591c:	f5a2 7790 	sub.w	r7, r2, #288	; 0x120
 8005920:	5ce1      	ldrb	r1, [r4, r3]
 8005922:	f830 c017 	ldrh.w	ip, [r0, r7, lsl #1]
 8005926:	f103 0780 	add.w	r7, r3, #128	; 0x80
 800592a:	ea41 114c 	orr.w	r1, r1, ip, lsl #5
 800592e:	b2c9      	uxtb	r1, r1
 8005930:	54e1      	strb	r1, [r4, r3]
 8005932:	5de1      	ldrb	r1, [r4, r7]
 8005934:	f103 0e01 	add.w	lr, r3, #1
 8005938:	ea41 01dc 	orr.w	r1, r1, ip, lsr #3
 800593c:	b2c9      	uxtb	r1, r1
 800593e:	55e1      	strb	r1, [r4, r7]
 8005940:	f46f 718f 	mvn.w	r1, #286	; 0x11e
 8005944:	eb02 0c01 	add.w	ip, r2, r1
 8005948:	f830 801c 	ldrh.w	r8, [r0, ip, lsl #1]
 800594c:	f814 100e 	ldrb.w	r1, [r4, lr]
 8005950:	f103 0781 	add.w	r7, r3, #129	; 0x81
 8005954:	ea41 1148 	orr.w	r1, r1, r8, lsl #5
 8005958:	b2c9      	uxtb	r1, r1
 800595a:	f804 100e 	strb.w	r1, [r4, lr]
 800595e:	5de1      	ldrb	r1, [r4, r7]
 8005960:	f103 0e02 	add.w	lr, r3, #2
 8005964:	ea41 01d8 	orr.w	r1, r1, r8, lsr #3
 8005968:	b2c9      	uxtb	r1, r1
 800596a:	55e1      	strb	r1, [r4, r7]
 800596c:	f5a2 728f 	sub.w	r2, r2, #286	; 0x11e
 8005970:	f814 100e 	ldrb.w	r1, [r4, lr]
 8005974:	f830 8012 	ldrh.w	r8, [r0, r2, lsl #1]
 8005978:	f103 0782 	add.w	r7, r3, #130	; 0x82
 800597c:	ea41 1148 	orr.w	r1, r1, r8, lsl #5
 8005980:	b2c9      	uxtb	r1, r1
 8005982:	f804 100e 	strb.w	r1, [r4, lr]
 8005986:	5de1      	ldrb	r1, [r4, r7]
 8005988:	eb00 024c 	add.w	r2, r0, ip, lsl #1
 800598c:	ea41 01d8 	orr.w	r1, r1, r8, lsr #3
 8005990:	b2c9      	uxtb	r1, r1
 8005992:	55e1      	strb	r1, [r4, r7]
 8005994:	f103 0c03 	add.w	ip, r3, #3
 8005998:	f814 100c 	ldrb.w	r1, [r4, ip]
 800599c:	f8b2 e004 	ldrh.w	lr, [r2, #4]
 80059a0:	f103 0783 	add.w	r7, r3, #131	; 0x83
 80059a4:	ea41 114e 	orr.w	r1, r1, lr, lsl #5
 80059a8:	b2c9      	uxtb	r1, r1
 80059aa:	f804 100c 	strb.w	r1, [r4, ip]
 80059ae:	5de1      	ldrb	r1, [r4, r7]
 80059b0:	f103 0c04 	add.w	ip, r3, #4
 80059b4:	ea41 01de 	orr.w	r1, r1, lr, lsr #3
 80059b8:	b2c9      	uxtb	r1, r1
 80059ba:	55e1      	strb	r1, [r4, r7]
 80059bc:	f814 100c 	ldrb.w	r1, [r4, ip]
 80059c0:	f8b2 e006 	ldrh.w	lr, [r2, #6]
 80059c4:	f103 0784 	add.w	r7, r3, #132	; 0x84
 80059c8:	ea41 114e 	orr.w	r1, r1, lr, lsl #5
 80059cc:	b2c9      	uxtb	r1, r1
 80059ce:	f804 100c 	strb.w	r1, [r4, ip]
 80059d2:	5de1      	ldrb	r1, [r4, r7]
 80059d4:	f103 0c05 	add.w	ip, r3, #5
 80059d8:	ea41 01de 	orr.w	r1, r1, lr, lsr #3
 80059dc:	b2c9      	uxtb	r1, r1
 80059de:	55e1      	strb	r1, [r4, r7]
 80059e0:	f814 100c 	ldrb.w	r1, [r4, ip]
 80059e4:	f8b2 e008 	ldrh.w	lr, [r2, #8]
 80059e8:	f103 0785 	add.w	r7, r3, #133	; 0x85
 80059ec:	ea41 124e 	orr.w	r2, r1, lr, lsl #5
 80059f0:	b2d2      	uxtb	r2, r2
 80059f2:	f804 200c 	strb.w	r2, [r4, ip]
 80059f6:	5de1      	ldrb	r1, [r4, r7]
 80059f8:	f816 2f01 	ldrb.w	r2, [r6, #1]!
 80059fc:	ea41 01de 	orr.w	r1, r1, lr, lsr #3
 8005a00:	b2c9      	uxtb	r1, r1
 8005a02:	55e1      	strb	r1, [r4, r7]
 8005a04:	3307      	adds	r3, #7
 8005a06:	2a00      	cmp	r2, #0
 8005a08:	d185      	bne.n	8005916 <gfxDemoDraw+0x22a>
 8005a0a:	682b      	ldr	r3, [r5, #0]
 8005a0c:	3301      	adds	r3, #1
 8005a0e:	602b      	str	r3, [r5, #0]
 8005a10:	f7fb ffa8 	bl	8001964 <HAL_GetTick>
 8005a14:	4919      	ldr	r1, [pc, #100]	; (8005a7c <gfxDemoDraw+0x390>)
 8005a16:	4602      	mov	r2, r0
 8005a18:	480f      	ldr	r0, [pc, #60]	; (8005a58 <gfxDemoDraw+0x36c>)
 8005a1a:	f001 fdab 	bl	8007574 <siprintf>
 8005a1e:	2136      	movs	r1, #54	; 0x36
 8005a20:	4a0d      	ldr	r2, [pc, #52]	; (8005a58 <gfxDemoDraw+0x36c>)
 8005a22:	205c      	movs	r0, #92	; 0x5c
 8005a24:	f7ff fd66 	bl	80054f4 <GLCD_Font_PrintNew.constprop.1>
 8005a28:	f7fb ff9c 	bl	8001964 <HAL_GetTick>
 8005a2c:	4917      	ldr	r1, [pc, #92]	; (8005a8c <gfxDemoDraw+0x3a0>)
 8005a2e:	f3c0 2200 	ubfx	r2, r0, #8, #1
 8005a32:	680b      	ldr	r3, [r1, #0]
 8005a34:	441a      	add	r2, r3
 8005a36:	2a0a      	cmp	r2, #10
 8005a38:	f340 80eb 	ble.w	8005c12 <gfxDemoDraw+0x526>
 8005a3c:	2300      	movs	r3, #0
 8005a3e:	270a      	movs	r7, #10
 8005a40:	2601      	movs	r6, #1
 8005a42:	600b      	str	r3, [r1, #0]
 8005a44:	2300      	movs	r3, #0
 8005a46:	4d12      	ldr	r5, [pc, #72]	; (8005a90 <gfxDemoDraw+0x3a4>)
 8005a48:	4812      	ldr	r0, [pc, #72]	; (8005a94 <gfxDemoDraw+0x3a8>)
 8005a4a:	e025      	b.n	8005a98 <gfxDemoDraw+0x3ac>
 8005a4c:	080088ac 	.word	0x080088ac
 8005a50:	080088b0 	.word	0x080088b0
 8005a54:	080088b8 	.word	0x080088b8
 8005a58:	20002730 	.word	0x20002730
 8005a5c:	20000924 	.word	0x20000924
 8005a60:	080088bc 	.word	0x080088bc
 8005a64:	080088c4 	.word	0x080088c4
 8005a68:	080088cc 	.word	0x080088cc
 8005a6c:	20000018 	.word	0x20000018
 8005a70:	080088d0 	.word	0x080088d0
 8005a74:	080088d8 	.word	0x080088d8
 8005a78:	66666667 	.word	0x66666667
 8005a7c:	080088e0 	.word	0x080088e0
 8005a80:	08008a0c 	.word	0x08008a0c
 8005a84:	20002294 	.word	0x20002294
 8005a88:	08008ac0 	.word	0x08008ac0
 8005a8c:	2000272c 	.word	0x2000272c
 8005a90:	ba2e8ba3 	.word	0xba2e8ba3
 8005a94:	1745d174 	.word	0x1745d174
 8005a98:	fb05 f203 	mul.w	r2, r5, r3
 8005a9c:	4282      	cmp	r2, r0
 8005a9e:	f503 7160 	add.w	r1, r3, #896	; 0x380
 8005aa2:	d903      	bls.n	8005aac <gfxDemoDraw+0x3c0>
 8005aa4:	42b3      	cmp	r3, r6
 8005aa6:	dd05      	ble.n	8005ab4 <gfxDemoDraw+0x3c8>
 8005aa8:	42bb      	cmp	r3, r7
 8005aaa:	da03      	bge.n	8005ab4 <gfxDemoDraw+0x3c8>
 8005aac:	5c62      	ldrb	r2, [r4, r1]
 8005aae:	f042 0280 	orr.w	r2, r2, #128	; 0x80
 8005ab2:	5462      	strb	r2, [r4, r1]
 8005ab4:	3301      	adds	r3, #1
 8005ab6:	2b80      	cmp	r3, #128	; 0x80
 8005ab8:	d1ee      	bne.n	8005a98 <gfxDemoDraw+0x3ac>
 8005aba:	f894 3092 	ldrb.w	r3, [r4, #146]	; 0x92
 8005abe:	2200      	movs	r2, #0
 8005ac0:	b2db      	uxtb	r3, r3
 8005ac2:	f884 3092 	strb.w	r3, [r4, #146]	; 0x92
 8005ac6:	f894 3112 	ldrb.w	r3, [r4, #274]	; 0x112
 8005aca:	f06f 407f 	mvn.w	r0, #4278190080	; 0xff000000
 8005ace:	f043 0301 	orr.w	r3, r3, #1
 8005ad2:	f884 3112 	strb.w	r3, [r4, #274]	; 0x112
 8005ad6:	f894 3093 	ldrb.w	r3, [r4, #147]	; 0x93
 8005ada:	f8df c150 	ldr.w	ip, [pc, #336]	; 8005c2c <gfxDemoDraw+0x540>
 8005ade:	f043 0380 	orr.w	r3, r3, #128	; 0x80
 8005ae2:	f884 3093 	strb.w	r3, [r4, #147]	; 0x93
 8005ae6:	f894 3113 	ldrb.w	r3, [r4, #275]	; 0x113
 8005aea:	4d51      	ldr	r5, [pc, #324]	; (8005c30 <gfxDemoDraw+0x544>)
 8005aec:	f043 0301 	orr.w	r3, r3, #1
 8005af0:	f884 3113 	strb.w	r3, [r4, #275]	; 0x113
 8005af4:	f894 3094 	ldrb.w	r3, [r4, #148]	; 0x94
 8005af8:	b2db      	uxtb	r3, r3
 8005afa:	f884 3094 	strb.w	r3, [r4, #148]	; 0x94
 8005afe:	f894 3114 	ldrb.w	r3, [r4, #276]	; 0x114
 8005b02:	f043 0301 	orr.w	r3, r3, #1
 8005b06:	f884 3114 	strb.w	r3, [r4, #276]	; 0x114
 8005b0a:	f894 30b0 	ldrb.w	r3, [r4, #176]	; 0xb0
 8005b0e:	b2db      	uxtb	r3, r3
 8005b10:	f884 30b0 	strb.w	r3, [r4, #176]	; 0xb0
 8005b14:	f894 3130 	ldrb.w	r3, [r4, #304]	; 0x130
 8005b18:	f043 0301 	orr.w	r3, r3, #1
 8005b1c:	f884 3130 	strb.w	r3, [r4, #304]	; 0x130
 8005b20:	f894 30b1 	ldrb.w	r3, [r4, #177]	; 0xb1
 8005b24:	f043 0380 	orr.w	r3, r3, #128	; 0x80
 8005b28:	f884 30b1 	strb.w	r3, [r4, #177]	; 0xb1
 8005b2c:	f894 3131 	ldrb.w	r3, [r4, #305]	; 0x131
 8005b30:	f043 0301 	orr.w	r3, r3, #1
 8005b34:	f884 3131 	strb.w	r3, [r4, #305]	; 0x131
 8005b38:	f894 30b2 	ldrb.w	r3, [r4, #178]	; 0xb2
 8005b3c:	b2db      	uxtb	r3, r3
 8005b3e:	f884 30b2 	strb.w	r3, [r4, #178]	; 0xb2
 8005b42:	f894 3132 	ldrb.w	r3, [r4, #306]	; 0x132
 8005b46:	f043 0301 	orr.w	r3, r3, #1
 8005b4a:	f884 3132 	strb.w	r3, [r4, #306]	; 0x132
 8005b4e:	f85c 3022 	ldr.w	r3, [ip, r2, lsl #2]
 8005b52:	f502 7ec0 	add.w	lr, r2, #384	; 0x180
 8005b56:	eb03 0343 	add.w	r3, r3, r3, lsl #1
 8005b5a:	00db      	lsls	r3, r3, #3
 8005b5c:	fb85 1703 	smull	r1, r7, r5, r3
 8005b60:	17db      	asrs	r3, r3, #31
 8005b62:	ebc3 1367 	rsb	r3, r3, r7, asr #5
 8005b66:	f814 100e 	ldrb.w	r1, [r4, lr]
 8005b6a:	f1c3 0318 	rsb	r3, r3, #24
 8005b6e:	fa00 f303 	lsl.w	r3, r0, r3
 8005b72:	ea41 1183 	orr.w	r1, r1, r3, lsl #6
 8005b76:	b2c9      	uxtb	r1, r1
 8005b78:	f804 100e 	strb.w	r1, [r4, lr]
 8005b7c:	f502 7600 	add.w	r6, r2, #512	; 0x200
 8005b80:	f814 e006 	ldrb.w	lr, [r4, r6]
 8005b84:	f3c3 0187 	ubfx	r1, r3, #2, #8
 8005b88:	ea41 010e 	orr.w	r1, r1, lr
 8005b8c:	55a1      	strb	r1, [r4, r6]
 8005b8e:	f502 7620 	add.w	r6, r2, #640	; 0x280
 8005b92:	f814 e006 	ldrb.w	lr, [r4, r6]
 8005b96:	f3c3 2187 	ubfx	r1, r3, #10, #8
 8005b9a:	ea41 010e 	orr.w	r1, r1, lr
 8005b9e:	55a1      	strb	r1, [r4, r6]
 8005ba0:	f502 7640 	add.w	r6, r2, #768	; 0x300
 8005ba4:	5da1      	ldrb	r1, [r4, r6]
 8005ba6:	f3c3 4387 	ubfx	r3, r3, #18, #8
 8005baa:	3201      	adds	r2, #1
 8005bac:	430b      	orrs	r3, r1
 8005bae:	2a80      	cmp	r2, #128	; 0x80
 8005bb0:	55a3      	strb	r3, [r4, r6]
 8005bb2:	d1cc      	bne.n	8005b4e <gfxDemoDraw+0x462>
 8005bb4:	4e1f      	ldr	r6, [pc, #124]	; (8005c34 <gfxDemoDraw+0x548>)
 8005bb6:	6830      	ldr	r0, [r6, #0]
 8005bb8:	f7ff fd4e 	bl	8005658 <gfxDrawSmeter>
 8005bbc:	f894 312a 	ldrb.w	r3, [r4, #298]	; 0x12a
 8005bc0:	f043 0302 	orr.w	r3, r3, #2
 8005bc4:	f884 312a 	strb.w	r3, [r4, #298]	; 0x12a
 8005bc8:	f894 312b 	ldrb.w	r3, [r4, #299]	; 0x12b
 8005bcc:	f043 0306 	orr.w	r3, r3, #6
 8005bd0:	f884 312b 	strb.w	r3, [r4, #299]	; 0x12b
 8005bd4:	f894 312c 	ldrb.w	r3, [r4, #300]	; 0x12c
 8005bd8:	f043 0306 	orr.w	r3, r3, #6
 8005bdc:	f884 312c 	strb.w	r3, [r4, #300]	; 0x12c
 8005be0:	f894 312d 	ldrb.w	r3, [r4, #301]	; 0x12d
 8005be4:	f043 0306 	orr.w	r3, r3, #6
 8005be8:	f884 312d 	strb.w	r3, [r4, #301]	; 0x12d
 8005bec:	f894 312e 	ldrb.w	r3, [r4, #302]	; 0x12e
 8005bf0:	f043 0302 	orr.w	r3, r3, #2
 8005bf4:	f884 312e 	strb.w	r3, [r4, #302]	; 0x12e
 8005bf8:	f001 fc3a 	bl	8007470 <rand>
 8005bfc:	2164      	movs	r1, #100	; 0x64
 8005bfe:	fb85 2500 	smull	r2, r5, r5, r0
 8005c02:	17c2      	asrs	r2, r0, #31
 8005c04:	ebc2 1565 	rsb	r5, r2, r5, asr #5
 8005c08:	fb01 0315 	mls	r3, r1, r5, r0
 8005c0c:	6033      	str	r3, [r6, #0]
 8005c0e:	e8bd 83f8 	ldmia.w	sp!, {r3, r4, r5, r6, r7, r8, r9, pc}
 8005c12:	eb02 0382 	add.w	r3, r2, r2, lsl #2
 8005c16:	eb02 0343 	add.w	r3, r2, r3, lsl #1
 8005c1a:	b2db      	uxtb	r3, r3
 8005c1c:	1c5e      	adds	r6, r3, #1
 8005c1e:	330a      	adds	r3, #10
 8005c20:	600a      	str	r2, [r1, #0]
 8005c22:	b2f6      	uxtb	r6, r6
 8005c24:	b2df      	uxtb	r7, r3
 8005c26:	e70d      	b.n	8005a44 <gfxDemoDraw+0x358>
 8005c28:	4c03      	ldr	r4, [pc, #12]	; (8005c38 <gfxDemoDraw+0x54c>)
 8005c2a:	e65f      	b.n	80058ec <gfxDemoDraw+0x200>
 8005c2c:	20001e90 	.word	0x20001e90
 8005c30:	51eb851f 	.word	0x51eb851f
 8005c34:	20002728 	.word	0x20002728
 8005c38:	20002294 	.word	0x20002294

08005c3c <gfxInit>:
 8005c3c:	f44f 6280 	mov.w	r2, #1024	; 0x400
 8005c40:	2100      	movs	r1, #0
 8005c42:	4801      	ldr	r0, [pc, #4]	; (8005c48 <gfxInit+0xc>)
 8005c44:	f001 bb30 	b.w	80072a8 <memset>
 8005c48:	20002294 	.word	0x20002294

08005c4c <gfxUpdateWhenPossible>:
 8005c4c:	b510      	push	{r4, lr}
 8005c4e:	4c0b      	ldr	r4, [pc, #44]	; (8005c7c <gfxUpdateWhenPossible+0x30>)
 8005c50:	7823      	ldrb	r3, [r4, #0]
 8005c52:	b903      	cbnz	r3, 8005c56 <gfxUpdateWhenPossible+0xa>
 8005c54:	bd10      	pop	{r4, pc}
 8005c56:	2009      	movs	r0, #9
 8005c58:	f7ff fb5a 	bl	8005310 <setTime>
 8005c5c:	f44f 6280 	mov.w	r2, #1024	; 0x400
 8005c60:	2100      	movs	r1, #0
 8005c62:	4807      	ldr	r0, [pc, #28]	; (8005c80 <gfxUpdateWhenPossible+0x34>)
 8005c64:	f001 fb20 	bl	80072a8 <memset>
 8005c68:	f7ff fd40 	bl	80056ec <gfxDemoDraw>
 8005c6c:	2300      	movs	r3, #0
 8005c6e:	200a      	movs	r0, #10
 8005c70:	7023      	strb	r3, [r4, #0]
 8005c72:	e8bd 4010 	ldmia.w	sp!, {r4, lr}
 8005c76:	f7ff bb4b 	b.w	8005310 <setTime>
 8005c7a:	bf00      	nop
 8005c7c:	20000518 	.word	0x20000518
 8005c80:	20002294 	.word	0x20002294

08005c84 <schedInit>:
 8005c84:	b508      	push	{r3, lr}
 8005c86:	480c      	ldr	r0, [pc, #48]	; (8005cb8 <schedInit+0x34>)
 8005c88:	f7fc f912 	bl	8001eb0 <HAL_ADCEx_Calibration_Start>
 8005c8c:	2064      	movs	r0, #100	; 0x64
 8005c8e:	f7fb fe6f 	bl	8001970 <HAL_Delay>
 8005c92:	f000 f925 	bl	8005ee0 <debugInit>
 8005c96:	2200      	movs	r2, #0
 8005c98:	4b08      	ldr	r3, [pc, #32]	; (8005cbc <schedInit+0x38>)
 8005c9a:	771a      	strb	r2, [r3, #28]
 8005c9c:	f7ff f9d0 	bl	8005040 <dspInit>
 8005ca0:	200a      	movs	r0, #10
 8005ca2:	f7fb fe65 	bl	8001970 <HAL_Delay>
 8005ca6:	f7ff fa05 	bl	80050b4 <dspStart>
 8005caa:	f7fe fe97 	bl	80049dc <ssd1309Init>
 8005cae:	e8bd 4008 	ldmia.w	sp!, {r3, lr}
 8005cb2:	f7ff bfc3 	b.w	8005c3c <gfxInit>
 8005cb6:	bf00      	nop
 8005cb8:	200001d8 	.word	0x200001d8
 8005cbc:	20002740 	.word	0x20002740

08005cc0 <fillDebugInfo>:
 8005cc0:	e92d 43f0 	stmdb	sp!, {r4, r5, r6, r7, r8, r9, lr}
 8005cc4:	4d2c      	ldr	r5, [pc, #176]	; (8005d78 <fillDebugInfo+0xb8>)
 8005cc6:	4c2d      	ldr	r4, [pc, #180]	; (8005d7c <fillDebugInfo+0xbc>)
 8005cc8:	6aaf      	ldr	r7, [r5, #40]	; 0x28
 8005cca:	6c2b      	ldr	r3, [r5, #64]	; 0x40
 8005ccc:	6daa      	ldr	r2, [r5, #88]	; 0x58
 8005cce:	6f29      	ldr	r1, [r5, #112]	; 0x70
 8005cd0:	f8d5 0088 	ldr.w	r0, [r5, #136]	; 0x88
 8005cd4:	4e2a      	ldr	r6, [pc, #168]	; (8005d80 <fillDebugInfo+0xc0>)
 8005cd6:	b085      	sub	sp, #20
 8005cd8:	1a08      	subs	r0, r1, r0
 8005cda:	1a51      	subs	r1, r2, r1
 8005cdc:	1a9a      	subs	r2, r3, r2
 8005cde:	1afb      	subs	r3, r7, r3
 8005ce0:	9003      	str	r0, [sp, #12]
 8005ce2:	9102      	str	r1, [sp, #8]
 8005ce4:	9201      	str	r2, [sp, #4]
 8005ce6:	9300      	str	r3, [sp, #0]
 8005ce8:	ce0f      	ldmia	r6!, {r0, r1, r2, r3}
 8005cea:	6061      	str	r1, [r4, #4]
 8005cec:	2115      	movs	r1, #21
 8005cee:	6020      	str	r0, [r4, #0]
 8005cf0:	60e3      	str	r3, [r4, #12]
 8005cf2:	6830      	ldr	r0, [r6, #0]
 8005cf4:	692b      	ldr	r3, [r5, #16]
 8005cf6:	60a2      	str	r2, [r4, #8]
 8005cf8:	6120      	str	r0, [r4, #16]
 8005cfa:	1bdb      	subs	r3, r3, r7
 8005cfc:	1860      	adds	r0, r4, r1
 8005cfe:	4a21      	ldr	r2, [pc, #132]	; (8005d84 <fillDebugInfo+0xc4>)
 8005d00:	f001 fc04 	bl	800750c <sniprintf>
 8005d04:	f04f 0c64 	mov.w	ip, #100	; 0x64
 8005d08:	f8d5 3100 	ldr.w	r3, [r5, #256]	; 0x100
 8005d0c:	f8d5 70e8 	ldr.w	r7, [r5, #232]	; 0xe8
 8005d10:	f8d5 90b8 	ldr.w	r9, [r5, #184]	; 0xb8
 8005d14:	1aff      	subs	r7, r7, r3
 8005d16:	4b1c      	ldr	r3, [pc, #112]	; (8005d88 <fillDebugInfo+0xc8>)
 8005d18:	4e1c      	ldr	r6, [pc, #112]	; (8005d8c <fillDebugInfo+0xcc>)
 8005d1a:	681b      	ldr	r3, [r3, #0]
 8005d1c:	f104 083f 	add.w	r8, r4, #63	; 0x3f
 8005d20:	fb0c fc03 	mul.w	ip, ip, r3
 8005d24:	f8d5 30a0 	ldr.w	r3, [r5, #160]	; 0xa0
 8005d28:	f1bc 0f00 	cmp.w	ip, #0
 8005d2c:	eba3 0e09 	sub.w	lr, r3, r9
 8005d30:	ce0f      	ldmia	r6!, {r0, r1, r2, r3}
 8005d32:	f8c4 3036 	str.w	r3, [r4, #54]	; 0x36
 8005d36:	8833      	ldrh	r3, [r6, #0]
 8005d38:	f8c4 002a 	str.w	r0, [r4, #42]	; 0x2a
 8005d3c:	f8c4 102e 	str.w	r1, [r4, #46]	; 0x2e
 8005d40:	f8c4 2032 	str.w	r2, [r4, #50]	; 0x32
 8005d44:	8763      	strh	r3, [r4, #58]	; 0x3a
 8005d46:	9701      	str	r7, [sp, #4]
 8005d48:	692c      	ldr	r4, [r5, #16]
 8005d4a:	f04f 0564 	mov.w	r5, #100	; 0x64
 8005d4e:	eba4 0409 	sub.w	r4, r4, r9
 8005d52:	fb05 f404 	mul.w	r4, r5, r4
 8005d56:	bfb8      	it	lt
 8005d58:	f10c 0c7f 	addlt.w	ip, ip, #127	; 0x7f
 8005d5c:	ea4f 12ec 	mov.w	r2, ip, asr #7
 8005d60:	09e4      	lsrs	r4, r4, #7
 8005d62:	9202      	str	r2, [sp, #8]
 8005d64:	4673      	mov	r3, lr
 8005d66:	4640      	mov	r0, r8
 8005d68:	2115      	movs	r1, #21
 8005d6a:	4a09      	ldr	r2, [pc, #36]	; (8005d90 <fillDebugInfo+0xd0>)
 8005d6c:	9400      	str	r4, [sp, #0]
 8005d6e:	f001 fbcd 	bl	800750c <sniprintf>
 8005d72:	b005      	add	sp, #20
 8005d74:	e8bd 83f0 	ldmia.w	sp!, {r4, r5, r6, r7, r8, r9, pc}
 8005d78:	2000001c 	.word	0x2000001c
 8005d7c:	20002694 	.word	0x20002694
 8005d80:	08008b38 	.word	0x08008b38
 8005d84:	08008b4c 	.word	0x08008b4c
 8005d88:	200028b4 	.word	0x200028b4
 8005d8c:	08008b68 	.word	0x08008b68
 8005d90:	08008b7c 	.word	0x08008b7c

08005d94 <schedMainLoop>:
 8005d94:	b538      	push	{r3, r4, r5, lr}
 8005d96:	4c16      	ldr	r4, [pc, #88]	; (8005df0 <schedMainLoop+0x5c>)
 8005d98:	f7ff fac8 	bl	800532c <dspProc>
 8005d9c:	7825      	ldrb	r5, [r4, #0]
 8005d9e:	b915      	cbnz	r5, 8005da6 <schedMainLoop+0x12>
 8005da0:	4b14      	ldr	r3, [pc, #80]	; (8005df4 <schedMainLoop+0x60>)
 8005da2:	781b      	ldrb	r3, [r3, #0]
 8005da4:	b903      	cbnz	r3, 8005da8 <schedMainLoop+0x14>
 8005da6:	bd38      	pop	{r3, r4, r5, pc}
 8005da8:	200b      	movs	r0, #11
 8005daa:	f7ff fab1 	bl	8005310 <setTime>
 8005dae:	f44f 4100 	mov.w	r1, #32768	; 0x8000
 8005db2:	2201      	movs	r2, #1
 8005db4:	4810      	ldr	r0, [pc, #64]	; (8005df8 <schedMainLoop+0x64>)
 8005db6:	f7fc fd0d 	bl	80027d4 <HAL_GPIO_WritePin>
 8005dba:	f7ff ff81 	bl	8005cc0 <fillDebugInfo>
 8005dbe:	f7fe fd35 	bl	800482c <ssd1309PageUpdRoutine>
 8005dc2:	f7ff ff43 	bl	8005c4c <gfxUpdateWhenPossible>
 8005dc6:	462a      	mov	r2, r5
 8005dc8:	f44f 4100 	mov.w	r1, #32768	; 0x8000
 8005dcc:	480a      	ldr	r0, [pc, #40]	; (8005df8 <schedMainLoop+0x64>)
 8005dce:	f7fc fd01 	bl	80027d4 <HAL_GPIO_WritePin>
 8005dd2:	200c      	movs	r0, #12
 8005dd4:	f7ff fa9c 	bl	8005310 <setTime>
 8005dd8:	2101      	movs	r1, #1
 8005dda:	4a08      	ldr	r2, [pc, #32]	; (8005dfc <schedMainLoop+0x68>)
 8005ddc:	7021      	strb	r1, [r4, #0]
 8005dde:	f8d2 3118 	ldr.w	r3, [r2, #280]	; 0x118
 8005de2:	f8d2 0130 	ldr.w	r0, [r2, #304]	; 0x130
 8005de6:	4a06      	ldr	r2, [pc, #24]	; (8005e00 <schedMainLoop+0x6c>)
 8005de8:	1a1b      	subs	r3, r3, r0
 8005dea:	6013      	str	r3, [r2, #0]
 8005dec:	bd38      	pop	{r3, r4, r5, pc}
 8005dee:	bf00      	nop
 8005df0:	200028b0 	.word	0x200028b0
 8005df4:	20000b28 	.word	0x20000b28
 8005df8:	40010c00 	.word	0x40010c00
 8005dfc:	2000001c 	.word	0x2000001c
 8005e00:	200028b4 	.word	0x200028b4

08005e04 <debugPrintColor>:
 8005e04:	b40e      	push	{r1, r2, r3}
 8005e06:	e92d 41f0 	stmdb	sp!, {r4, r5, r6, r7, r8, lr}
 8005e0a:	b08b      	sub	sp, #44	; 0x2c
 8005e0c:	ac11      	add	r4, sp, #68	; 0x44
 8005e0e:	f854 7b04 	ldr.w	r7, [r4], #4
 8005e12:	4605      	mov	r5, r0
 8005e14:	f7fb fda6 	bl	8001964 <HAL_GetTick>
 8005e18:	4623      	mov	r3, r4
 8005e1a:	2120      	movs	r1, #32
 8005e1c:	463a      	mov	r2, r7
 8005e1e:	4606      	mov	r6, r0
 8005e20:	a802      	add	r0, sp, #8
 8005e22:	9401      	str	r4, [sp, #4]
 8005e24:	f001 fbfa 	bl	800761c <vsniprintf>
 8005e28:	4b26      	ldr	r3, [pc, #152]	; (8005ec4 <debugPrintColor+0xc0>)
 8005e2a:	a802      	add	r0, sp, #8
 8005e2c:	681b      	ldr	r3, [r3, #0]
 8005e2e:	0c1a      	lsrs	r2, r3, #16
 8005e30:	f8ad 3000 	strh.w	r3, [sp]
 8005e34:	f88d 2002 	strb.w	r2, [sp, #2]
 8005e38:	f7fa f9e8 	bl	800020c <strlen>
 8005e3c:	300d      	adds	r0, #13
 8005e3e:	f001 fa2b 	bl	8007298 <malloc>
 8005e42:	2d01      	cmp	r5, #1
 8005e44:	4604      	mov	r4, r0
 8005e46:	d02a      	beq.n	8005e9e <debugPrintColor+0x9a>
 8005e48:	2d02      	cmp	r5, #2
 8005e4a:	d034      	beq.n	8005eb6 <debugPrintColor+0xb2>
 8005e4c:	b36d      	cbz	r5, 8005eaa <debugPrintColor+0xa6>
 8005e4e:	4620      	mov	r0, r4
 8005e50:	f7fa f9dc 	bl	800020c <strlen>
 8005e54:	a902      	add	r1, sp, #8
 8005e56:	4420      	add	r0, r4
 8005e58:	f001 fbac 	bl	80075b4 <stpcpy>
 8005e5c:	4b1a      	ldr	r3, [pc, #104]	; (8005ec8 <debugPrintColor+0xc4>)
 8005e5e:	4605      	mov	r5, r0
 8005e60:	f893 c004 	ldrb.w	ip, [r3, #4]
 8005e64:	6818      	ldr	r0, [r3, #0]
 8005e66:	2302      	movs	r3, #2
 8005e68:	f8bd 7000 	ldrh.w	r7, [sp]
 8005e6c:	1b2a      	subs	r2, r5, r4
 8005e6e:	802f      	strh	r7, [r5, #0]
 8005e70:	f8df 8058 	ldr.w	r8, [pc, #88]	; 8005ecc <debugPrintColor+0xc8>
 8005e74:	18d5      	adds	r5, r2, r3
 8005e76:	5160      	str	r0, [r4, r5]
 8005e78:	4621      	mov	r1, r4
 8005e7a:	f8df e054 	ldr.w	lr, [pc, #84]	; 8005ed0 <debugPrintColor+0xcc>
 8005e7e:	442c      	add	r4, r5
 8005e80:	3206      	adds	r2, #6
 8005e82:	f8d8 0000 	ldr.w	r0, [r8]
 8005e86:	f884 c004 	strb.w	ip, [r4, #4]
 8005e8a:	b292      	uxth	r2, r2
 8005e8c:	f8ce 6000 	str.w	r6, [lr]
 8005e90:	f7fe fa94 	bl	80043bc <HAL_UART_Transmit>
 8005e94:	b00b      	add	sp, #44	; 0x2c
 8005e96:	e8bd 41f0 	ldmia.w	sp!, {r4, r5, r6, r7, r8, lr}
 8005e9a:	b003      	add	sp, #12
 8005e9c:	4770      	bx	lr
 8005e9e:	4b0d      	ldr	r3, [pc, #52]	; (8005ed4 <debugPrintColor+0xd0>)
 8005ea0:	e893 0003 	ldmia.w	r3, {r0, r1}
 8005ea4:	e884 0003 	stmia.w	r4, {r0, r1}
 8005ea8:	e7d1      	b.n	8005e4e <debugPrintColor+0x4a>
 8005eaa:	4b0b      	ldr	r3, [pc, #44]	; (8005ed8 <debugPrintColor+0xd4>)
 8005eac:	e893 0003 	ldmia.w	r3, {r0, r1}
 8005eb0:	e884 0003 	stmia.w	r4, {r0, r1}
 8005eb4:	e7cb      	b.n	8005e4e <debugPrintColor+0x4a>
 8005eb6:	4b09      	ldr	r3, [pc, #36]	; (8005edc <debugPrintColor+0xd8>)
 8005eb8:	e893 0003 	ldmia.w	r3, {r0, r1}
 8005ebc:	e884 0003 	stmia.w	r4, {r0, r1}
 8005ec0:	e7c5      	b.n	8005e4e <debugPrintColor+0x4a>
 8005ec2:	bf00      	nop
 8005ec4:	08008b94 	.word	0x08008b94
 8005ec8:	08008bb0 	.word	0x08008bb0
 8005ecc:	20000154 	.word	0x20000154
 8005ed0:	200028b8 	.word	0x200028b8
 8005ed4:	08008ba0 	.word	0x08008ba0
 8005ed8:	08008b98 	.word	0x08008b98
 8005edc:	08008ba8 	.word	0x08008ba8

08005ee0 <debugInit>:
 8005ee0:	b508      	push	{r3, lr}
 8005ee2:	f44f 70fa 	mov.w	r0, #500	; 0x1f4
 8005ee6:	f7fb fd43 	bl	8001970 <HAL_Delay>
 8005eea:	4906      	ldr	r1, [pc, #24]	; (8005f04 <debugInit+0x24>)
 8005eec:	2001      	movs	r0, #1
 8005eee:	f7ff ff89 	bl	8005e04 <debugPrintColor>
 8005ef2:	f7fc fffb 	bl	8002eec <HAL_RCC_GetSysClockFreq>
 8005ef6:	e8bd 4008 	ldmia.w	sp!, {r3, lr}
 8005efa:	4602      	mov	r2, r0
 8005efc:	4902      	ldr	r1, [pc, #8]	; (8005f08 <debugInit+0x28>)
 8005efe:	2002      	movs	r0, #2
 8005f00:	f7ff bf80 	b.w	8005e04 <debugPrintColor>
 8005f04:	08008bb8 	.word	0x08008bb8
 8005f08:	080088e0 	.word	0x080088e0

08005f0c <arm_copy_q31>:
 8005f0c:	e92d 41f0 	stmdb	sp!, {r4, r5, r6, r7, r8, lr}
 8005f10:	ea5f 0892 	movs.w	r8, r2, lsr #2
 8005f14:	4696      	mov	lr, r2
 8005f16:	468c      	mov	ip, r1
 8005f18:	d01e      	beq.n	8005f58 <arm_copy_q31+0x4c>
 8005f1a:	4645      	mov	r5, r8
 8005f1c:	f100 0410 	add.w	r4, r0, #16
 8005f20:	f101 0310 	add.w	r3, r1, #16
 8005f24:	f854 2c0c 	ldr.w	r2, [r4, #-12]
 8005f28:	f854 7c08 	ldr.w	r7, [r4, #-8]
 8005f2c:	f854 6c04 	ldr.w	r6, [r4, #-4]
 8005f30:	f854 1c10 	ldr.w	r1, [r4, #-16]
 8005f34:	3d01      	subs	r5, #1
 8005f36:	f843 1c10 	str.w	r1, [r3, #-16]
 8005f3a:	f843 2c0c 	str.w	r2, [r3, #-12]
 8005f3e:	f843 7c08 	str.w	r7, [r3, #-8]
 8005f42:	f843 6c04 	str.w	r6, [r3, #-4]
 8005f46:	f104 0410 	add.w	r4, r4, #16
 8005f4a:	f103 0310 	add.w	r3, r3, #16
 8005f4e:	d1e9      	bne.n	8005f24 <arm_copy_q31+0x18>
 8005f50:	ea4f 1808 	mov.w	r8, r8, lsl #4
 8005f54:	4440      	add	r0, r8
 8005f56:	44c4      	add	ip, r8
 8005f58:	f01e 0203 	ands.w	r2, lr, #3
 8005f5c:	d007      	beq.n	8005f6e <arm_copy_q31+0x62>
 8005f5e:	f1ac 0104 	sub.w	r1, ip, #4
 8005f62:	f850 3b04 	ldr.w	r3, [r0], #4
 8005f66:	3a01      	subs	r2, #1
 8005f68:	f841 3f04 	str.w	r3, [r1, #4]!
 8005f6c:	d1f9      	bne.n	8005f62 <arm_copy_q31+0x56>
 8005f6e:	e8bd 81f0 	ldmia.w	sp!, {r4, r5, r6, r7, r8, pc}
 8005f72:	bf00      	nop

08005f74 <arm_cfft_radix4by2_q31>:
 8005f74:	460b      	mov	r3, r1
 8005f76:	e92d 4ff0 	stmdb	sp!, {r4, r5, r6, r7, r8, r9, sl, fp, lr}
 8005f7a:	085b      	lsrs	r3, r3, #1
 8005f7c:	b08b      	sub	sp, #44	; 0x2c
 8005f7e:	9107      	str	r1, [sp, #28]
 8005f80:	4682      	mov	sl, r0
 8005f82:	9205      	str	r2, [sp, #20]
 8005f84:	9306      	str	r3, [sp, #24]
 8005f86:	f000 8084 	beq.w	8006092 <arm_cfft_radix4by2_q31+0x11e>
 8005f8a:	00db      	lsls	r3, r3, #3
 8005f8c:	eb00 0b03 	add.w	fp, r0, r3
 8005f90:	46de      	mov	lr, fp
 8005f92:	46d4      	mov	ip, sl
 8005f94:	4691      	mov	r9, r2
 8005f96:	9308      	str	r3, [sp, #32]
 8005f98:	2500      	movs	r5, #0
 8005f9a:	f8cd a024 	str.w	sl, [sp, #36]	; 0x24
 8005f9e:	f85b 3035 	ldr.w	r3, [fp, r5, lsl #3]
 8005fa2:	f85a 2035 	ldr.w	r2, [sl, r5, lsl #3]
 8005fa6:	109e      	asrs	r6, r3, #2
 8005fa8:	9b05      	ldr	r3, [sp, #20]
 8005faa:	1092      	asrs	r2, r2, #2
 8005fac:	f853 3035 	ldr.w	r3, [r3, r5, lsl #3]
 8005fb0:	1991      	adds	r1, r2, r6
 8005fb2:	2700      	movs	r7, #0
 8005fb4:	1b92      	subs	r2, r2, r6
 8005fb6:	f04f 4600 	mov.w	r6, #2147483648	; 0x80000000
 8005fba:	f8d9 4004 	ldr.w	r4, [r9, #4]
 8005fbe:	fbc3 6702 	smlal	r6, r7, r3, r2
 8005fc2:	f84a 1035 	str.w	r1, [sl, r5, lsl #3]
 8005fc6:	f8dc 0004 	ldr.w	r0, [ip, #4]
 8005fca:	f8de 1004 	ldr.w	r1, [lr, #4]
 8005fce:	1080      	asrs	r0, r0, #2
 8005fd0:	1089      	asrs	r1, r1, #2
 8005fd2:	ebc1 0800 	rsb	r8, r1, r0
 8005fd6:	9701      	str	r7, [sp, #4]
 8005fd8:	f04f 4600 	mov.w	r6, #2147483648	; 0x80000000
 8005fdc:	2700      	movs	r7, #0
 8005fde:	fbc8 6703 	smlal	r6, r7, r8, r3
 8005fe2:	2300      	movs	r3, #0
 8005fe4:	9300      	str	r3, [sp, #0]
 8005fe6:	9302      	str	r3, [sp, #8]
 8005fe8:	fb82 2304 	smull	r2, r3, r2, r4
 8005fec:	9703      	str	r7, [sp, #12]
 8005fee:	e9dd 6702 	ldrd	r6, r7, [sp, #8]
 8005ff2:	1ab6      	subs	r6, r6, r2
 8005ff4:	eb67 0703 	sbc.w	r7, r7, r3
 8005ff8:	4632      	mov	r2, r6
 8005ffa:	463b      	mov	r3, r7
 8005ffc:	e9dd 6700 	ldrd	r6, r7, [sp]
 8006000:	fbc4 6708 	smlal	r6, r7, r4, r8
 8006004:	f116 4600 	adds.w	r6, r6, #2147483648	; 0x80000000
 8006008:	f147 0700 	adc.w	r7, r7, #0
 800600c:	f112 4200 	adds.w	r2, r2, #2147483648	; 0x80000000
 8006010:	f143 0300 	adc.w	r3, r3, #0
 8006014:	005b      	lsls	r3, r3, #1
 8006016:	4401      	add	r1, r0
 8006018:	007a      	lsls	r2, r7, #1
 800601a:	f8cc 1004 	str.w	r1, [ip, #4]
 800601e:	f84b 2035 	str.w	r2, [fp, r5, lsl #3]
 8006022:	f8ce 3004 	str.w	r3, [lr, #4]
 8006026:	9b06      	ldr	r3, [sp, #24]
 8006028:	3501      	adds	r5, #1
 800602a:	429d      	cmp	r5, r3
 800602c:	f109 0908 	add.w	r9, r9, #8
 8006030:	f10c 0c08 	add.w	ip, ip, #8
 8006034:	f10e 0e08 	add.w	lr, lr, #8
 8006038:	d1b1      	bne.n	8005f9e <arm_cfft_radix4by2_q31+0x2a>
 800603a:	9e05      	ldr	r6, [sp, #20]
 800603c:	4650      	mov	r0, sl
 800603e:	4629      	mov	r1, r5
 8006040:	4632      	mov	r2, r6
 8006042:	2302      	movs	r3, #2
 8006044:	9c09      	ldr	r4, [sp, #36]	; 0x24
 8006046:	f000 f939 	bl	80062bc <arm_radix4_butterfly_q31>
 800604a:	9b07      	ldr	r3, [sp, #28]
 800604c:	4629      	mov	r1, r5
 800604e:	eb0a 0083 	add.w	r0, sl, r3, lsl #2
 8006052:	4632      	mov	r2, r6
 8006054:	2302      	movs	r3, #2
 8006056:	f000 f931 	bl	80062bc <arm_radix4_butterfly_q31>
 800605a:	9b08      	ldr	r3, [sp, #32]
 800605c:	f10a 0a04 	add.w	sl, sl, #4
 8006060:	449b      	add	fp, r3
 8006062:	f85a 0c04 	ldr.w	r0, [sl, #-4]
 8006066:	1d21      	adds	r1, r4, #4
 8006068:	c90e      	ldmia	r1, {r1, r2, r3}
 800606a:	0040      	lsls	r0, r0, #1
 800606c:	0049      	lsls	r1, r1, #1
 800606e:	0052      	lsls	r2, r2, #1
 8006070:	005b      	lsls	r3, r3, #1
 8006072:	f84a 0c04 	str.w	r0, [sl, #-4]
 8006076:	3410      	adds	r4, #16
 8006078:	f844 1c0c 	str.w	r1, [r4, #-12]
 800607c:	f844 2c08 	str.w	r2, [r4, #-8]
 8006080:	f844 3c04 	str.w	r3, [r4, #-4]
 8006084:	455c      	cmp	r4, fp
 8006086:	f10a 0a10 	add.w	sl, sl, #16
 800608a:	d1ea      	bne.n	8006062 <arm_cfft_radix4by2_q31+0xee>
 800608c:	b00b      	add	sp, #44	; 0x2c
 800608e:	e8bd 8ff0 	ldmia.w	sp!, {r4, r5, r6, r7, r8, r9, sl, fp, pc}
 8006092:	461c      	mov	r4, r3
 8006094:	4619      	mov	r1, r3
 8006096:	2302      	movs	r3, #2
 8006098:	f000 f910 	bl	80062bc <arm_radix4_butterfly_q31>
 800609c:	4621      	mov	r1, r4
 800609e:	9b07      	ldr	r3, [sp, #28]
 80060a0:	9a05      	ldr	r2, [sp, #20]
 80060a2:	eb0a 0083 	add.w	r0, sl, r3, lsl #2
 80060a6:	2302      	movs	r3, #2
 80060a8:	b00b      	add	sp, #44	; 0x2c
 80060aa:	e8bd 4ff0 	ldmia.w	sp!, {r4, r5, r6, r7, r8, r9, sl, fp, lr}
 80060ae:	f000 b905 	b.w	80062bc <arm_radix4_butterfly_q31>
 80060b2:	bf00      	nop

080060b4 <arm_cfft_radix4by2_inverse_q31>:
 80060b4:	460b      	mov	r3, r1
 80060b6:	e92d 4ff0 	stmdb	sp!, {r4, r5, r6, r7, r8, r9, sl, fp, lr}
 80060ba:	085b      	lsrs	r3, r3, #1
 80060bc:	b08b      	sub	sp, #44	; 0x2c
 80060be:	9107      	str	r1, [sp, #28]
 80060c0:	4682      	mov	sl, r0
 80060c2:	4611      	mov	r1, r2
 80060c4:	9205      	str	r2, [sp, #20]
 80060c6:	9306      	str	r3, [sp, #24]
 80060c8:	f000 8089 	beq.w	80061de <arm_cfft_radix4by2_inverse_q31+0x12a>
 80060cc:	00db      	lsls	r3, r3, #3
 80060ce:	eb00 0b03 	add.w	fp, r0, r3
 80060d2:	46de      	mov	lr, fp
 80060d4:	4684      	mov	ip, r0
 80060d6:	9308      	str	r3, [sp, #32]
 80060d8:	2500      	movs	r5, #0
 80060da:	9009      	str	r0, [sp, #36]	; 0x24
 80060dc:	f85b 2035 	ldr.w	r2, [fp, r5, lsl #3]
 80060e0:	f85a 3035 	ldr.w	r3, [sl, r5, lsl #3]
 80060e4:	9805      	ldr	r0, [sp, #20]
 80060e6:	1096      	asrs	r6, r2, #2
 80060e8:	f850 4035 	ldr.w	r4, [r0, r5, lsl #3]
 80060ec:	109b      	asrs	r3, r3, #2
 80060ee:	199a      	adds	r2, r3, r6
 80060f0:	f04f 4800 	mov.w	r8, #2147483648	; 0x80000000
 80060f4:	1b9b      	subs	r3, r3, r6
 80060f6:	f04f 0900 	mov.w	r9, #0
 80060fa:	6848      	ldr	r0, [r1, #4]
 80060fc:	fbc4 8903 	smlal	r8, r9, r4, r3
 8006100:	f84a 2035 	str.w	r2, [sl, r5, lsl #3]
 8006104:	f8dc 7004 	ldr.w	r7, [ip, #4]
 8006108:	f8de 2004 	ldr.w	r2, [lr, #4]
 800610c:	10be      	asrs	r6, r7, #2
 800610e:	1092      	asrs	r2, r2, #2
 8006110:	9604      	str	r6, [sp, #16]
 8006112:	f8cd 9004 	str.w	r9, [sp, #4]
 8006116:	1ab6      	subs	r6, r6, r2
 8006118:	f04f 4800 	mov.w	r8, #2147483648	; 0x80000000
 800611c:	f04f 0900 	mov.w	r9, #0
 8006120:	fbc6 8904 	smlal	r8, r9, r6, r4
 8006124:	fb86 6700 	smull	r6, r7, r6, r0
 8006128:	2400      	movs	r4, #0
 800612a:	9400      	str	r4, [sp, #0]
 800612c:	f8cd 900c 	str.w	r9, [sp, #12]
 8006130:	e9dd 8900 	ldrd	r8, r9, [sp]
 8006134:	f8cd 8008 	str.w	r8, [sp, #8]
 8006138:	ebb8 0806 	subs.w	r8, r8, r6
 800613c:	eb69 0907 	sbc.w	r9, r9, r7
 8006140:	4646      	mov	r6, r8
 8006142:	464f      	mov	r7, r9
 8006144:	e9dd 8902 	ldrd	r8, r9, [sp, #8]
 8006148:	fbc0 8903 	smlal	r8, r9, r0, r3
 800614c:	f116 4600 	adds.w	r6, r6, #2147483648	; 0x80000000
 8006150:	9b04      	ldr	r3, [sp, #16]
 8006152:	f147 0700 	adc.w	r7, r7, #0
 8006156:	441a      	add	r2, r3
 8006158:	007b      	lsls	r3, r7, #1
 800615a:	f8cc 2004 	str.w	r2, [ip, #4]
 800615e:	f118 4800 	adds.w	r8, r8, #2147483648	; 0x80000000
 8006162:	f84b 3035 	str.w	r3, [fp, r5, lsl #3]
 8006166:	9b06      	ldr	r3, [sp, #24]
 8006168:	f149 0900 	adc.w	r9, r9, #0
 800616c:	3501      	adds	r5, #1
 800616e:	ea4f 0249 	mov.w	r2, r9, lsl #1
 8006172:	429d      	cmp	r5, r3
 8006174:	f8ce 2004 	str.w	r2, [lr, #4]
 8006178:	f101 0108 	add.w	r1, r1, #8
 800617c:	f10c 0c08 	add.w	ip, ip, #8
 8006180:	f10e 0e08 	add.w	lr, lr, #8
 8006184:	d1aa      	bne.n	80060dc <arm_cfft_radix4by2_inverse_q31+0x28>
 8006186:	9e05      	ldr	r6, [sp, #20]
 8006188:	4650      	mov	r0, sl
 800618a:	4629      	mov	r1, r5
 800618c:	4632      	mov	r2, r6
 800618e:	2302      	movs	r3, #2
 8006190:	9c09      	ldr	r4, [sp, #36]	; 0x24
 8006192:	f000 faa1 	bl	80066d8 <arm_radix4_butterfly_inverse_q31>
 8006196:	9b07      	ldr	r3, [sp, #28]
 8006198:	4629      	mov	r1, r5
 800619a:	eb0a 0083 	add.w	r0, sl, r3, lsl #2
 800619e:	4632      	mov	r2, r6
 80061a0:	2302      	movs	r3, #2
 80061a2:	f000 fa99 	bl	80066d8 <arm_radix4_butterfly_inverse_q31>
 80061a6:	9b08      	ldr	r3, [sp, #32]
 80061a8:	f10a 0a04 	add.w	sl, sl, #4
 80061ac:	449b      	add	fp, r3
 80061ae:	f85a 0c04 	ldr.w	r0, [sl, #-4]
 80061b2:	1d21      	adds	r1, r4, #4
 80061b4:	c90e      	ldmia	r1, {r1, r2, r3}
 80061b6:	0040      	lsls	r0, r0, #1
 80061b8:	0049      	lsls	r1, r1, #1
 80061ba:	0052      	lsls	r2, r2, #1
 80061bc:	005b      	lsls	r3, r3, #1
 80061be:	f84a 0c04 	str.w	r0, [sl, #-4]
 80061c2:	3410      	adds	r4, #16
 80061c4:	f844 1c0c 	str.w	r1, [r4, #-12]
 80061c8:	f844 2c08 	str.w	r2, [r4, #-8]
 80061cc:	f844 3c04 	str.w	r3, [r4, #-4]
 80061d0:	455c      	cmp	r4, fp
 80061d2:	f10a 0a10 	add.w	sl, sl, #16
 80061d6:	d1ea      	bne.n	80061ae <arm_cfft_radix4by2_inverse_q31+0xfa>
 80061d8:	b00b      	add	sp, #44	; 0x2c
 80061da:	e8bd 8ff0 	ldmia.w	sp!, {r4, r5, r6, r7, r8, r9, sl, fp, pc}
 80061de:	461c      	mov	r4, r3
 80061e0:	4619      	mov	r1, r3
 80061e2:	2302      	movs	r3, #2
 80061e4:	f000 fa78 	bl	80066d8 <arm_radix4_butterfly_inverse_q31>
 80061e8:	4621      	mov	r1, r4
 80061ea:	9b07      	ldr	r3, [sp, #28]
 80061ec:	9a05      	ldr	r2, [sp, #20]
 80061ee:	eb0a 0083 	add.w	r0, sl, r3, lsl #2
 80061f2:	2302      	movs	r3, #2
 80061f4:	b00b      	add	sp, #44	; 0x2c
 80061f6:	e8bd 4ff0 	ldmia.w	sp!, {r4, r5, r6, r7, r8, r9, sl, fp, lr}
 80061fa:	f000 ba6d 	b.w	80066d8 <arm_radix4_butterfly_inverse_q31>
 80061fe:	bf00      	nop

08006200 <arm_cfft_q31>:
 8006200:	b570      	push	{r4, r5, r6, lr}
 8006202:	2a01      	cmp	r2, #1
 8006204:	460d      	mov	r5, r1
 8006206:	4604      	mov	r4, r0
 8006208:	461e      	mov	r6, r3
 800620a:	8801      	ldrh	r1, [r0, #0]
 800620c:	d024      	beq.n	8006258 <arm_cfft_q31+0x58>
 800620e:	f5b1 7f80 	cmp.w	r1, #256	; 0x100
 8006212:	d013      	beq.n	800623c <arm_cfft_q31+0x3c>
 8006214:	d808      	bhi.n	8006228 <arm_cfft_q31+0x28>
 8006216:	2920      	cmp	r1, #32
 8006218:	d031      	beq.n	800627e <arm_cfft_q31+0x7e>
 800621a:	d945      	bls.n	80062a8 <arm_cfft_q31+0xa8>
 800621c:	2940      	cmp	r1, #64	; 0x40
 800621e:	d00d      	beq.n	800623c <arm_cfft_q31+0x3c>
 8006220:	2980      	cmp	r1, #128	; 0x80
 8006222:	d02c      	beq.n	800627e <arm_cfft_q31+0x7e>
 8006224:	b98e      	cbnz	r6, 800624a <arm_cfft_q31+0x4a>
 8006226:	bd70      	pop	{r4, r5, r6, pc}
 8006228:	f5b1 6f80 	cmp.w	r1, #1024	; 0x400
 800622c:	d006      	beq.n	800623c <arm_cfft_q31+0x3c>
 800622e:	d923      	bls.n	8006278 <arm_cfft_q31+0x78>
 8006230:	f5b1 6f00 	cmp.w	r1, #2048	; 0x800
 8006234:	d023      	beq.n	800627e <arm_cfft_q31+0x7e>
 8006236:	f5b1 5f80 	cmp.w	r1, #4096	; 0x1000
 800623a:	d1f3      	bne.n	8006224 <arm_cfft_q31+0x24>
 800623c:	4628      	mov	r0, r5
 800623e:	6862      	ldr	r2, [r4, #4]
 8006240:	2301      	movs	r3, #1
 8006242:	f000 f83b 	bl	80062bc <arm_radix4_butterfly_q31>
 8006246:	2e00      	cmp	r6, #0
 8006248:	d0ed      	beq.n	8006226 <arm_cfft_q31+0x26>
 800624a:	4628      	mov	r0, r5
 800624c:	89a1      	ldrh	r1, [r4, #12]
 800624e:	68a2      	ldr	r2, [r4, #8]
 8006250:	e8bd 4070 	ldmia.w	sp!, {r4, r5, r6, lr}
 8006254:	f7f9 bf7a 	b.w	800014c <arm_bitreversal_32>
 8006258:	f5b1 7f80 	cmp.w	r1, #256	; 0x100
 800625c:	d01e      	beq.n	800629c <arm_cfft_q31+0x9c>
 800625e:	d813      	bhi.n	8006288 <arm_cfft_q31+0x88>
 8006260:	2920      	cmp	r1, #32
 8006262:	d004      	beq.n	800626e <arm_cfft_q31+0x6e>
 8006264:	d927      	bls.n	80062b6 <arm_cfft_q31+0xb6>
 8006266:	2940      	cmp	r1, #64	; 0x40
 8006268:	d018      	beq.n	800629c <arm_cfft_q31+0x9c>
 800626a:	2980      	cmp	r1, #128	; 0x80
 800626c:	d1da      	bne.n	8006224 <arm_cfft_q31+0x24>
 800626e:	4628      	mov	r0, r5
 8006270:	6862      	ldr	r2, [r4, #4]
 8006272:	f7ff ff1f 	bl	80060b4 <arm_cfft_radix4by2_inverse_q31>
 8006276:	e7d5      	b.n	8006224 <arm_cfft_q31+0x24>
 8006278:	f5b1 7f00 	cmp.w	r1, #512	; 0x200
 800627c:	d1d2      	bne.n	8006224 <arm_cfft_q31+0x24>
 800627e:	4628      	mov	r0, r5
 8006280:	6862      	ldr	r2, [r4, #4]
 8006282:	f7ff fe77 	bl	8005f74 <arm_cfft_radix4by2_q31>
 8006286:	e7cd      	b.n	8006224 <arm_cfft_q31+0x24>
 8006288:	f5b1 6f80 	cmp.w	r1, #1024	; 0x400
 800628c:	d006      	beq.n	800629c <arm_cfft_q31+0x9c>
 800628e:	d90e      	bls.n	80062ae <arm_cfft_q31+0xae>
 8006290:	f5b1 6f00 	cmp.w	r1, #2048	; 0x800
 8006294:	d0eb      	beq.n	800626e <arm_cfft_q31+0x6e>
 8006296:	f5b1 5f80 	cmp.w	r1, #4096	; 0x1000
 800629a:	d1c3      	bne.n	8006224 <arm_cfft_q31+0x24>
 800629c:	4628      	mov	r0, r5
 800629e:	6862      	ldr	r2, [r4, #4]
 80062a0:	2301      	movs	r3, #1
 80062a2:	f000 fa19 	bl	80066d8 <arm_radix4_butterfly_inverse_q31>
 80062a6:	e7bd      	b.n	8006224 <arm_cfft_q31+0x24>
 80062a8:	2910      	cmp	r1, #16
 80062aa:	d1bb      	bne.n	8006224 <arm_cfft_q31+0x24>
 80062ac:	e7c6      	b.n	800623c <arm_cfft_q31+0x3c>
 80062ae:	f5b1 7f00 	cmp.w	r1, #512	; 0x200
 80062b2:	d0dc      	beq.n	800626e <arm_cfft_q31+0x6e>
 80062b4:	e7b6      	b.n	8006224 <arm_cfft_q31+0x24>
 80062b6:	2910      	cmp	r1, #16
 80062b8:	d1b4      	bne.n	8006224 <arm_cfft_q31+0x24>
 80062ba:	e7ef      	b.n	800629c <arm_cfft_q31+0x9c>

080062bc <arm_radix4_butterfly_q31>:
 80062bc:	e92d 4ff0 	stmdb	sp!, {r4, r5, r6, r7, r8, r9, sl, fp, lr}
 80062c0:	461e      	mov	r6, r3
 80062c2:	b0a1      	sub	sp, #132	; 0x84
 80062c4:	910f      	str	r1, [sp, #60]	; 0x3c
 80062c6:	0889      	lsrs	r1, r1, #2
 80062c8:	930d      	str	r3, [sp, #52]	; 0x34
 80062ca:	00cb      	lsls	r3, r1, #3
 80062cc:	4605      	mov	r5, r0
 80062ce:	901e      	str	r0, [sp, #120]	; 0x78
 80062d0:	4418      	add	r0, r3
 80062d2:	4690      	mov	r8, r2
 80062d4:	9217      	str	r2, [sp, #92]	; 0x5c
 80062d6:	911f      	str	r1, [sp, #124]	; 0x7c
 80062d8:	9106      	str	r1, [sp, #24]
 80062da:	9202      	str	r2, [sp, #8]
 80062dc:	9200      	str	r2, [sp, #0]
 80062de:	eb06 0146 	add.w	r1, r6, r6, lsl #1
 80062e2:	18c2      	adds	r2, r0, r3
 80062e4:	3308      	adds	r3, #8
 80062e6:	eb02 0c03 	add.w	ip, r2, r3
 80062ea:	00cb      	lsls	r3, r1, #3
 80062ec:	930a      	str	r3, [sp, #40]	; 0x28
 80062ee:	0133      	lsls	r3, r6, #4
 80062f0:	f102 0b08 	add.w	fp, r2, #8
 80062f4:	9308      	str	r3, [sp, #32]
 80062f6:	00f3      	lsls	r3, r6, #3
 80062f8:	930c      	str	r3, [sp, #48]	; 0x30
 80062fa:	465b      	mov	r3, fp
 80062fc:	f105 0a08 	add.w	sl, r5, #8
 8006300:	46d3      	mov	fp, sl
 8006302:	469a      	mov	sl, r3
 8006304:	f100 0908 	add.w	r9, r0, #8
 8006308:	f8cd 8004 	str.w	r8, [sp, #4]
 800630c:	f85b 0c08 	ldr.w	r0, [fp, #-8]
 8006310:	f85a 2c08 	ldr.w	r2, [sl, #-8]
 8006314:	f85c 3c08 	ldr.w	r3, [ip, #-8]
 8006318:	f859 1c08 	ldr.w	r1, [r9, #-8]
 800631c:	ea4f 1820 	mov.w	r8, r0, asr #4
 8006320:	1112      	asrs	r2, r2, #4
 8006322:	111b      	asrs	r3, r3, #4
 8006324:	eb08 0402 	add.w	r4, r8, r2
 8006328:	eb03 1521 	add.w	r5, r3, r1, asr #4
 800632c:	1963      	adds	r3, r4, r5
 800632e:	9204      	str	r2, [sp, #16]
 8006330:	f85a 2c04 	ldr.w	r2, [sl, #-4]
 8006334:	f84b 3c08 	str.w	r3, [fp, #-8]
 8006338:	f85b 0c04 	ldr.w	r0, [fp, #-4]
 800633c:	f85c 3c04 	ldr.w	r3, [ip, #-4]
 8006340:	f859 1c04 	ldr.w	r1, [r9, #-4]
 8006344:	ea4f 1e22 	mov.w	lr, r2, asr #4
 8006348:	1106      	asrs	r6, r0, #4
 800634a:	111b      	asrs	r3, r3, #4
 800634c:	9607      	str	r6, [sp, #28]
 800634e:	eb03 1121 	add.w	r1, r3, r1, asr #4
 8006352:	4476      	add	r6, lr
 8006354:	1873      	adds	r3, r6, r1
 8006356:	f84b 3c04 	str.w	r3, [fp, #-4]
 800635a:	9b01      	ldr	r3, [sp, #4]
 800635c:	1a71      	subs	r1, r6, r1
 800635e:	685a      	ldr	r2, [r3, #4]
 8006360:	6818      	ldr	r0, [r3, #0]
 8006362:	fb81 6702 	smull	r6, r7, r1, r2
 8006366:	463e      	mov	r6, r7
 8006368:	1b63      	subs	r3, r4, r5
 800636a:	fb83 4500 	smull	r4, r5, r3, r0
 800636e:	fb80 0101 	smull	r0, r1, r0, r1
 8006372:	fb83 2302 	smull	r2, r3, r3, r2
 8006376:	442e      	add	r6, r5
 8006378:	1acd      	subs	r5, r1, r3
 800637a:	e91c 0006 	ldmdb	ip, {r1, r2}
 800637e:	1110      	asrs	r0, r2, #4
 8006380:	9a04      	ldr	r2, [sp, #16]
 8006382:	e919 0018 	ldmdb	r9, {r3, r4}
 8006386:	ebc2 0208 	rsb	r2, r2, r8
 800638a:	0076      	lsls	r6, r6, #1
 800638c:	ebc0 1824 	rsb	r8, r0, r4, asr #4
 8006390:	006d      	lsls	r5, r5, #1
 8006392:	9800      	ldr	r0, [sp, #0]
 8006394:	f849 6c08 	str.w	r6, [r9, #-8]
 8006398:	f849 5c04 	str.w	r5, [r9, #-4]
 800639c:	6805      	ldr	r5, [r0, #0]
 800639e:	9e07      	ldr	r6, [sp, #28]
 80063a0:	1109      	asrs	r1, r1, #4
 80063a2:	ebc1 1323 	rsb	r3, r1, r3, asr #4
 80063a6:	6841      	ldr	r1, [r0, #4]
 80063a8:	eb02 0008 	add.w	r0, r2, r8
 80063ac:	ebce 0e06 	rsb	lr, lr, r6
 80063b0:	fb80 6705 	smull	r6, r7, r0, r5
 80063b4:	ebc3 040e 	rsb	r4, r3, lr
 80063b8:	e9cd 6704 	strd	r6, r7, [sp, #16]
 80063bc:	fb84 6701 	smull	r6, r7, r4, r1
 80063c0:	463e      	mov	r6, r7
 80063c2:	fb85 4504 	smull	r4, r5, r5, r4
 80063c6:	fb80 0101 	smull	r0, r1, r0, r1
 80063ca:	9f05      	ldr	r7, [sp, #20]
 80063cc:	1a69      	subs	r1, r5, r1
 80063ce:	443e      	add	r6, r7
 80063d0:	0070      	lsls	r0, r6, #1
 80063d2:	0049      	lsls	r1, r1, #1
 80063d4:	e90a 0003 	stmdb	sl, {r0, r1}
 80063d8:	9f02      	ldr	r7, [sp, #8]
 80063da:	ebc8 0202 	rsb	r2, r8, r2
 80063de:	6839      	ldr	r1, [r7, #0]
 80063e0:	687e      	ldr	r6, [r7, #4]
 80063e2:	fb82 4501 	smull	r4, r5, r2, r1
 80063e6:	4473      	add	r3, lr
 80063e8:	e9cd 4502 	strd	r4, r5, [sp, #8]
 80063ec:	fb81 0103 	smull	r0, r1, r1, r3
 80063f0:	fb83 4506 	smull	r4, r5, r3, r6
 80063f4:	fb82 2306 	smull	r2, r3, r2, r6
 80063f8:	9e08      	ldr	r6, [sp, #32]
 80063fa:	1acb      	subs	r3, r1, r3
 80063fc:	9901      	ldr	r1, [sp, #4]
 80063fe:	9c03      	ldr	r4, [sp, #12]
 8006400:	4431      	add	r1, r6
 8006402:	9800      	ldr	r0, [sp, #0]
 8006404:	9101      	str	r1, [sp, #4]
 8006406:	990c      	ldr	r1, [sp, #48]	; 0x30
 8006408:	442c      	add	r4, r5
 800640a:	005b      	lsls	r3, r3, #1
 800640c:	1841      	adds	r1, r0, r1
 800640e:	0062      	lsls	r2, r4, #1
 8006410:	e90c 000c 	stmdb	ip, {r2, r3}
 8006414:	9100      	str	r1, [sp, #0]
 8006416:	9b06      	ldr	r3, [sp, #24]
 8006418:	990a      	ldr	r1, [sp, #40]	; 0x28
 800641a:	3b01      	subs	r3, #1
 800641c:	4439      	add	r1, r7
 800641e:	f10b 0b08 	add.w	fp, fp, #8
 8006422:	f109 0908 	add.w	r9, r9, #8
 8006426:	f10a 0a08 	add.w	sl, sl, #8
 800642a:	9102      	str	r1, [sp, #8]
 800642c:	f10c 0c08 	add.w	ip, ip, #8
 8006430:	9306      	str	r3, [sp, #24]
 8006432:	f47f af6b 	bne.w	800630c <arm_radix4_butterfly_q31+0x50>
 8006436:	9b0d      	ldr	r3, [sp, #52]	; 0x34
 8006438:	009b      	lsls	r3, r3, #2
 800643a:	9316      	str	r3, [sp, #88]	; 0x58
 800643c:	9b1f      	ldr	r3, [sp, #124]	; 0x7c
 800643e:	2b04      	cmp	r3, #4
 8006440:	f240 80f9 	bls.w	8006636 <arm_radix4_butterfly_q31+0x37a>
 8006444:	931c      	str	r3, [sp, #112]	; 0x70
 8006446:	930e      	str	r3, [sp, #56]	; 0x38
 8006448:	2300      	movs	r3, #0
 800644a:	9312      	str	r3, [sp, #72]	; 0x48
 800644c:	9315      	str	r3, [sp, #84]	; 0x54
 800644e:	9b1e      	ldr	r3, [sp, #120]	; 0x78
 8006450:	980e      	ldr	r0, [sp, #56]	; 0x38
 8006452:	9314      	str	r3, [sp, #80]	; 0x50
 8006454:	9b17      	ldr	r3, [sp, #92]	; 0x5c
 8006456:	ea4f 08c0 	mov.w	r8, r0, lsl #3
 800645a:	9313      	str	r3, [sp, #76]	; 0x4c
 800645c:	0883      	lsrs	r3, r0, #2
 800645e:	4619      	mov	r1, r3
 8006460:	931d      	str	r3, [sp, #116]	; 0x74
 8006462:	9b16      	ldr	r3, [sp, #88]	; 0x58
 8006464:	1e4a      	subs	r2, r1, #1
 8006466:	eb03 0343 	add.w	r3, r3, r3, lsl #1
 800646a:	9218      	str	r2, [sp, #96]	; 0x60
 800646c:	00db      	lsls	r3, r3, #3
 800646e:	00ca      	lsls	r2, r1, #3
 8006470:	9219      	str	r2, [sp, #100]	; 0x64
 8006472:	931a      	str	r3, [sp, #104]	; 0x68
 8006474:	f8cd 806c 	str.w	r8, [sp, #108]	; 0x6c
 8006478:	9c17      	ldr	r4, [sp, #92]	; 0x5c
 800647a:	9b15      	ldr	r3, [sp, #84]	; 0x54
 800647c:	4622      	mov	r2, r4
 800647e:	4618      	mov	r0, r3
 8006480:	00d9      	lsls	r1, r3, #3
 8006482:	440a      	add	r2, r1
 8006484:	011b      	lsls	r3, r3, #4
 8006486:	4411      	add	r1, r2
 8006488:	58e3      	ldr	r3, [r4, r3]
 800648a:	6849      	ldr	r1, [r1, #4]
 800648c:	6852      	ldr	r2, [r2, #4]
 800648e:	9310      	str	r3, [sp, #64]	; 0x40
 8006490:	9b16      	ldr	r3, [sp, #88]	; 0x58
 8006492:	9104      	str	r1, [sp, #16]
 8006494:	9202      	str	r2, [sp, #8]
 8006496:	9913      	ldr	r1, [sp, #76]	; 0x4c
 8006498:	f854 2030 	ldr.w	r2, [r4, r0, lsl #3]
 800649c:	18c3      	adds	r3, r0, r3
 800649e:	9206      	str	r2, [sp, #24]
 80064a0:	9315      	str	r3, [sp, #84]	; 0x54
 80064a2:	680a      	ldr	r2, [r1, #0]
 80064a4:	684b      	ldr	r3, [r1, #4]
 80064a6:	9d19      	ldr	r5, [sp, #100]	; 0x64
 80064a8:	9f14      	ldr	r7, [sp, #80]	; 0x50
 80064aa:	9207      	str	r2, [sp, #28]
 80064ac:	9311      	str	r3, [sp, #68]	; 0x44
 80064ae:	9a12      	ldr	r2, [sp, #72]	; 0x48
 80064b0:	9b0f      	ldr	r3, [sp, #60]	; 0x3c
 80064b2:	eb07 0a05 	add.w	sl, r7, r5
 80064b6:	eb0a 0b05 	add.w	fp, sl, r5
 80064ba:	4293      	cmp	r3, r2
 80064bc:	eb0b 0e05 	add.w	lr, fp, r5
 80064c0:	f240 80a0 	bls.w	8006604 <arm_radix4_butterfly_q31+0x348>
 80064c4:	4613      	mov	r3, r2
 80064c6:	46d8      	mov	r8, fp
 80064c8:	46d3      	mov	fp, sl
 80064ca:	46ba      	mov	sl, r7
 80064cc:	9a0e      	ldr	r2, [sp, #56]	; 0x38
 80064ce:	f8dd 906c 	ldr.w	r9, [sp, #108]	; 0x6c
 80064d2:	4413      	add	r3, r2
 80064d4:	9300      	str	r3, [sp, #0]
 80064d6:	9b00      	ldr	r3, [sp, #0]
 80064d8:	f8da c000 	ldr.w	ip, [sl]
 80064dc:	f8d8 5000 	ldr.w	r5, [r8]
 80064e0:	f8db 2000 	ldr.w	r2, [fp]
 80064e4:	930c      	str	r3, [sp, #48]	; 0x30
 80064e6:	f8de 3000 	ldr.w	r3, [lr]
 80064ea:	eb0c 0705 	add.w	r7, ip, r5
 80064ee:	441a      	add	r2, r3
 80064f0:	18b9      	adds	r1, r7, r2
 80064f2:	1089      	asrs	r1, r1, #2
 80064f4:	f8d8 3004 	ldr.w	r3, [r8, #4]
 80064f8:	f8ca 1000 	str.w	r1, [sl]
 80064fc:	f8db 4004 	ldr.w	r4, [fp, #4]
 8006500:	f8da 1004 	ldr.w	r1, [sl, #4]
 8006504:	f8de 0004 	ldr.w	r0, [lr, #4]
 8006508:	18ce      	adds	r6, r1, r3
 800650a:	4420      	add	r0, r4
 800650c:	1834      	adds	r4, r6, r0
 800650e:	10a4      	asrs	r4, r4, #2
 8006510:	f8ca 4004 	str.w	r4, [sl, #4]
 8006514:	1ac9      	subs	r1, r1, r3
 8006516:	f8db 3004 	ldr.w	r3, [fp, #4]
 800651a:	ebc5 050c 	rsb	r5, r5, ip
 800651e:	469c      	mov	ip, r3
 8006520:	f8de 3004 	ldr.w	r3, [lr, #4]
 8006524:	f8de 4000 	ldr.w	r4, [lr]
 8006528:	ebc3 0c0c 	rsb	ip, r3, ip
 800652c:	f8db 3000 	ldr.w	r3, [fp]
 8006530:	1aba      	subs	r2, r7, r2
 8006532:	1b1b      	subs	r3, r3, r4
 8006534:	eb05 040c 	add.w	r4, r5, ip
 8006538:	ebcc 0c05 	rsb	ip, ip, r5
 800653c:	1acd      	subs	r5, r1, r3
 800653e:	440b      	add	r3, r1
 8006540:	9906      	ldr	r1, [sp, #24]
 8006542:	1a30      	subs	r0, r6, r0
 8006544:	fb84 6701 	smull	r6, r7, r4, r1
 8006548:	9902      	ldr	r1, [sp, #8]
 800654a:	9001      	str	r0, [sp, #4]
 800654c:	fb85 0101 	smull	r0, r1, r5, r1
 8006550:	e9cd 010a 	strd	r0, r1, [sp, #40]	; 0x28
 8006554:	9801      	ldr	r0, [sp, #4]
 8006556:	9904      	ldr	r1, [sp, #16]
 8006558:	44ca      	add	sl, r9
 800655a:	fb80 0101 	smull	r0, r1, r0, r1
 800655e:	e9cd 0108 	strd	r0, r1, [sp, #32]
 8006562:	990b      	ldr	r1, [sp, #44]	; 0x2c
 8006564:	19cf      	adds	r7, r1, r7
 8006566:	9910      	ldr	r1, [sp, #64]	; 0x40
 8006568:	970d      	str	r7, [sp, #52]	; 0x34
 800656a:	4608      	mov	r0, r1
 800656c:	fb82 6701 	smull	r6, r7, r2, r1
 8006570:	9901      	ldr	r1, [sp, #4]
 8006572:	fb81 0100 	smull	r0, r1, r1, r0
 8006576:	e9cd 010a 	strd	r0, r1, [sp, #40]	; 0x28
 800657a:	9809      	ldr	r0, [sp, #36]	; 0x24
 800657c:	19c6      	adds	r6, r0, r7
 800657e:	9601      	str	r6, [sp, #4]
 8006580:	9e04      	ldr	r6, [sp, #16]
 8006582:	4630      	mov	r0, r6
 8006584:	fb82 6700 	smull	r6, r7, r2, r0
 8006588:	9a06      	ldr	r2, [sp, #24]
 800658a:	fb85 0102 	smull	r0, r1, r5, r2
 800658e:	e9cd 0108 	strd	r0, r1, [sp, #32]
 8006592:	9d02      	ldr	r5, [sp, #8]
 8006594:	9907      	ldr	r1, [sp, #28]
 8006596:	fb84 4505 	smull	r4, r5, r4, r5
 800659a:	fb8c 0101 	smull	r0, r1, ip, r1
 800659e:	9a0b      	ldr	r2, [sp, #44]	; 0x2c
 80065a0:	e9cd 010a 	strd	r0, r1, [sp, #40]	; 0x28
 80065a4:	9809      	ldr	r0, [sp, #36]	; 0x24
 80065a6:	9911      	ldr	r1, [sp, #68]	; 0x44
 80065a8:	9c07      	ldr	r4, [sp, #28]
 80065aa:	1b40      	subs	r0, r0, r5
 80065ac:	1bd2      	subs	r2, r2, r7
 80065ae:	fb83 4504 	smull	r4, r5, r3, r4
 80065b2:	fb83 6701 	smull	r6, r7, r3, r1
 80065b6:	9008      	str	r0, [sp, #32]
 80065b8:	fb8c 0101 	smull	r0, r1, ip, r1
 80065bc:	9e01      	ldr	r6, [sp, #4]
 80065be:	9b0b      	ldr	r3, [sp, #44]	; 0x2c
 80065c0:	1a69      	subs	r1, r5, r1
 80065c2:	1052      	asrs	r2, r2, #1
 80065c4:	1075      	asrs	r5, r6, #1
 80065c6:	f8cb 5000 	str.w	r5, [fp]
 80065ca:	f8cb 2004 	str.w	r2, [fp, #4]
 80065ce:	443b      	add	r3, r7
 80065d0:	9a00      	ldr	r2, [sp, #0]
 80065d2:	9f0d      	ldr	r7, [sp, #52]	; 0x34
 80065d4:	9808      	ldr	r0, [sp, #32]
 80065d6:	9d0e      	ldr	r5, [sp, #56]	; 0x38
 80065d8:	105b      	asrs	r3, r3, #1
 80065da:	442a      	add	r2, r5
 80065dc:	107c      	asrs	r4, r7, #1
 80065de:	1040      	asrs	r0, r0, #1
 80065e0:	f8c8 4000 	str.w	r4, [r8]
 80065e4:	f8c8 0004 	str.w	r0, [r8, #4]
 80065e8:	9200      	str	r2, [sp, #0]
 80065ea:	f8ce 3000 	str.w	r3, [lr]
 80065ee:	9a0f      	ldr	r2, [sp, #60]	; 0x3c
 80065f0:	9b0c      	ldr	r3, [sp, #48]	; 0x30
 80065f2:	1049      	asrs	r1, r1, #1
 80065f4:	429a      	cmp	r2, r3
 80065f6:	f8ce 1004 	str.w	r1, [lr, #4]
 80065fa:	44cb      	add	fp, r9
 80065fc:	44c8      	add	r8, r9
 80065fe:	44ce      	add	lr, r9
 8006600:	f63f af69 	bhi.w	80064d6 <arm_radix4_butterfly_q31+0x21a>
 8006604:	9a13      	ldr	r2, [sp, #76]	; 0x4c
 8006606:	991a      	ldr	r1, [sp, #104]	; 0x68
 8006608:	9b12      	ldr	r3, [sp, #72]	; 0x48
 800660a:	440a      	add	r2, r1
 800660c:	9213      	str	r2, [sp, #76]	; 0x4c
 800660e:	9a14      	ldr	r2, [sp, #80]	; 0x50
 8006610:	3301      	adds	r3, #1
 8006612:	3208      	adds	r2, #8
 8006614:	9214      	str	r2, [sp, #80]	; 0x50
 8006616:	9a18      	ldr	r2, [sp, #96]	; 0x60
 8006618:	9312      	str	r3, [sp, #72]	; 0x48
 800661a:	4293      	cmp	r3, r2
 800661c:	f67f af2c 	bls.w	8006478 <arm_radix4_butterfly_q31+0x1bc>
 8006620:	9a16      	ldr	r2, [sp, #88]	; 0x58
 8006622:	9b1c      	ldr	r3, [sp, #112]	; 0x70
 8006624:	0092      	lsls	r2, r2, #2
 8006626:	089b      	lsrs	r3, r3, #2
 8006628:	9216      	str	r2, [sp, #88]	; 0x58
 800662a:	9a1d      	ldr	r2, [sp, #116]	; 0x74
 800662c:	2b04      	cmp	r3, #4
 800662e:	931c      	str	r3, [sp, #112]	; 0x70
 8006630:	920e      	str	r2, [sp, #56]	; 0x38
 8006632:	f63f af09 	bhi.w	8006448 <arm_radix4_butterfly_q31+0x18c>
 8006636:	981e      	ldr	r0, [sp, #120]	; 0x78
 8006638:	f8dd 907c 	ldr.w	r9, [sp, #124]	; 0x7c
 800663c:	3020      	adds	r0, #32
 800663e:	f850 2c20 	ldr.w	r2, [r0, #-32]
 8006642:	f850 3c18 	ldr.w	r3, [r0, #-24]
 8006646:	f850 1c14 	ldr.w	r1, [r0, #-20]
 800664a:	f850 8c1c 	ldr.w	r8, [r0, #-28]
 800664e:	f850 ac10 	ldr.w	sl, [r0, #-16]
 8006652:	f850 cc0c 	ldr.w	ip, [r0, #-12]
 8006656:	18d7      	adds	r7, r2, r3
 8006658:	1ad6      	subs	r6, r2, r3
 800665a:	1855      	adds	r5, r2, r1
 800665c:	1a52      	subs	r2, r2, r1
 800665e:	f850 ec08 	ldr.w	lr, [r0, #-8]
 8006662:	f850 bc04 	ldr.w	fp, [r0, #-4]
 8006666:	eb08 0401 	add.w	r4, r8, r1
 800666a:	4457      	add	r7, sl
 800666c:	ebc1 0108 	rsb	r1, r1, r8
 8006670:	4456      	add	r6, sl
 8006672:	ebca 0505 	rsb	r5, sl, r5
 8006676:	ebca 0202 	rsb	r2, sl, r2
 800667a:	ebc3 0a08 	rsb	sl, r3, r8
 800667e:	4443      	add	r3, r8
 8006680:	4461      	add	r1, ip
 8006682:	4464      	add	r4, ip
 8006684:	ebcc 080a 	rsb	r8, ip, sl
 8006688:	ebcc 0303 	rsb	r3, ip, r3
 800668c:	ebcb 0505 	rsb	r5, fp, r5
 8006690:	445a      	add	r2, fp
 8006692:	445c      	add	r4, fp
 8006694:	4477      	add	r7, lr
 8006696:	ebcb 0b01 	rsb	fp, fp, r1
 800669a:	ebce 0606 	rsb	r6, lr, r6
 800669e:	eb08 010e 	add.w	r1, r8, lr
 80066a2:	ebce 0303 	rsb	r3, lr, r3
 80066a6:	f1b9 0901 	subs.w	r9, r9, #1
 80066aa:	f840 7c20 	str.w	r7, [r0, #-32]
 80066ae:	f840 6c18 	str.w	r6, [r0, #-24]
 80066b2:	f840 5c10 	str.w	r5, [r0, #-16]
 80066b6:	f840 2c08 	str.w	r2, [r0, #-8]
 80066ba:	f840 4c1c 	str.w	r4, [r0, #-28]
 80066be:	f840 bc14 	str.w	fp, [r0, #-20]
 80066c2:	f840 1c0c 	str.w	r1, [r0, #-12]
 80066c6:	f840 3c04 	str.w	r3, [r0, #-4]
 80066ca:	f100 0020 	add.w	r0, r0, #32
 80066ce:	d1b6      	bne.n	800663e <arm_radix4_butterfly_q31+0x382>
 80066d0:	b021      	add	sp, #132	; 0x84
 80066d2:	e8bd 8ff0 	ldmia.w	sp!, {r4, r5, r6, r7, r8, r9, sl, fp, pc}
 80066d6:	bf00      	nop

080066d8 <arm_radix4_butterfly_inverse_q31>:
 80066d8:	e92d 4ff0 	stmdb	sp!, {r4, r5, r6, r7, r8, r9, sl, fp, lr}
 80066dc:	4605      	mov	r5, r0
 80066de:	4617      	mov	r7, r2
 80066e0:	b0a1      	sub	sp, #132	; 0x84
 80066e2:	461e      	mov	r6, r3
 80066e4:	9111      	str	r1, [sp, #68]	; 0x44
 80066e6:	0889      	lsrs	r1, r1, #2
 80066e8:	930c      	str	r3, [sp, #48]	; 0x30
 80066ea:	00cb      	lsls	r3, r1, #3
 80066ec:	901e      	str	r0, [sp, #120]	; 0x78
 80066ee:	4418      	add	r0, r3
 80066f0:	9218      	str	r2, [sp, #96]	; 0x60
 80066f2:	4694      	mov	ip, r2
 80066f4:	18c2      	adds	r2, r0, r3
 80066f6:	3308      	adds	r3, #8
 80066f8:	eb02 0b03 	add.w	fp, r2, r3
 80066fc:	f102 0908 	add.w	r9, r2, #8
 8006700:	f105 0a08 	add.w	sl, r5, #8
 8006704:	46de      	mov	lr, fp
 8006706:	46d3      	mov	fp, sl
 8006708:	46ca      	mov	sl, r9
 800670a:	46b9      	mov	r9, r7
 800670c:	911f      	str	r1, [sp, #124]	; 0x7c
 800670e:	9102      	str	r1, [sp, #8]
 8006710:	eb06 0146 	add.w	r1, r6, r6, lsl #1
 8006714:	00cb      	lsls	r3, r1, #3
 8006716:	930b      	str	r3, [sp, #44]	; 0x2c
 8006718:	0133      	lsls	r3, r6, #4
 800671a:	930a      	str	r3, [sp, #40]	; 0x28
 800671c:	00f3      	lsls	r3, r6, #3
 800671e:	f100 0808 	add.w	r8, r0, #8
 8006722:	9309      	str	r3, [sp, #36]	; 0x24
 8006724:	9701      	str	r7, [sp, #4]
 8006726:	f85a 1c08 	ldr.w	r1, [sl, #-8]
 800672a:	f85e 3c08 	ldr.w	r3, [lr, #-8]
 800672e:	f85b 0c08 	ldr.w	r0, [fp, #-8]
 8006732:	f858 2c08 	ldr.w	r2, [r8, #-8]
 8006736:	1100      	asrs	r0, r0, #4
 8006738:	1109      	asrs	r1, r1, #4
 800673a:	111b      	asrs	r3, r3, #4
 800673c:	1846      	adds	r6, r0, r1
 800673e:	eb03 1722 	add.w	r7, r3, r2, asr #4
 8006742:	19f3      	adds	r3, r6, r7
 8006744:	f85a 2c04 	ldr.w	r2, [sl, #-4]
 8006748:	f84b 3c08 	str.w	r3, [fp, #-8]
 800674c:	9108      	str	r1, [sp, #32]
 800674e:	f85b 3c04 	ldr.w	r3, [fp, #-4]
 8006752:	f85e 1c04 	ldr.w	r1, [lr, #-4]
 8006756:	f858 4c04 	ldr.w	r4, [r8, #-4]
 800675a:	111b      	asrs	r3, r3, #4
 800675c:	1112      	asrs	r2, r2, #4
 800675e:	1109      	asrs	r1, r1, #4
 8006760:	9003      	str	r0, [sp, #12]
 8006762:	eb01 1424 	add.w	r4, r1, r4, asr #4
 8006766:	1898      	adds	r0, r3, r2
 8006768:	9304      	str	r3, [sp, #16]
 800676a:	1901      	adds	r1, r0, r4
 800676c:	9b01      	ldr	r3, [sp, #4]
 800676e:	f84b 1c04 	str.w	r1, [fp, #-4]
 8006772:	6859      	ldr	r1, [r3, #4]
 8006774:	681d      	ldr	r5, [r3, #0]
 8006776:	460b      	mov	r3, r1
 8006778:	1bf1      	subs	r1, r6, r7
 800677a:	fb81 6705 	smull	r6, r7, r1, r5
 800677e:	1b04      	subs	r4, r0, r4
 8006780:	e9cd 6706 	strd	r6, r7, [sp, #24]
 8006784:	fb81 0103 	smull	r0, r1, r1, r3
 8006788:	fb84 6703 	smull	r6, r7, r4, r3
 800678c:	fb85 4504 	smull	r4, r5, r5, r4
 8006790:	9b07      	ldr	r3, [sp, #28]
 8006792:	194e      	adds	r6, r1, r5
 8006794:	1bdf      	subs	r7, r3, r7
 8006796:	007f      	lsls	r7, r7, #1
 8006798:	0076      	lsls	r6, r6, #1
 800679a:	e91e 0003 	ldmdb	lr, {r0, r1}
 800679e:	f858 5c08 	ldr.w	r5, [r8, #-8]
 80067a2:	f858 4c04 	ldr.w	r4, [r8, #-4]
 80067a6:	f848 7c08 	str.w	r7, [r8, #-8]
 80067aa:	f848 6c04 	str.w	r6, [r8, #-4]
 80067ae:	9b04      	ldr	r3, [sp, #16]
 80067b0:	9e03      	ldr	r6, [sp, #12]
 80067b2:	9f08      	ldr	r7, [sp, #32]
 80067b4:	1109      	asrs	r1, r1, #4
 80067b6:	1bf7      	subs	r7, r6, r7
 80067b8:	1a9a      	subs	r2, r3, r2
 80067ba:	1100      	asrs	r0, r0, #4
 80067bc:	ebc1 1324 	rsb	r3, r1, r4, asr #4
 80067c0:	ebc0 1625 	rsb	r6, r0, r5, asr #4
 80067c4:	1afd      	subs	r5, r7, r3
 80067c6:	e899 0011 	ldmia.w	r9, {r0, r4}
 80067ca:	1991      	adds	r1, r2, r6
 80067cc:	9308      	str	r3, [sp, #32]
 80067ce:	9203      	str	r2, [sp, #12]
 80067d0:	fb85 2300 	smull	r2, r3, r5, r0
 80067d4:	e9cd 2304 	strd	r2, r3, [sp, #16]
 80067d8:	fb81 2304 	smull	r2, r3, r1, r4
 80067dc:	fb85 4504 	smull	r4, r5, r5, r4
 80067e0:	fb80 0101 	smull	r0, r1, r0, r1
 80067e4:	e9cd 4506 	strd	r4, r5, [sp, #24]
 80067e8:	9c05      	ldr	r4, [sp, #20]
 80067ea:	f10b 0b08 	add.w	fp, fp, #8
 80067ee:	1ae2      	subs	r2, r4, r3
 80067f0:	9c07      	ldr	r4, [sp, #28]
 80067f2:	0050      	lsls	r0, r2, #1
 80067f4:	4421      	add	r1, r4
 80067f6:	0049      	lsls	r1, r1, #1
 80067f8:	e90a 0003 	stmdb	sl, {r0, r1}
 80067fc:	9b08      	ldr	r3, [sp, #32]
 80067fe:	9a03      	ldr	r2, [sp, #12]
 8006800:	f8dc 1000 	ldr.w	r1, [ip]
 8006804:	f8dc 0004 	ldr.w	r0, [ip, #4]
 8006808:	1b92      	subs	r2, r2, r6
 800680a:	443b      	add	r3, r7
 800680c:	fb83 6701 	smull	r6, r7, r3, r1
 8006810:	fb82 4500 	smull	r4, r5, r2, r0
 8006814:	fb81 0102 	smull	r0, r1, r1, r2
 8006818:	f8dc 2004 	ldr.w	r2, [ip, #4]
 800681c:	980a      	ldr	r0, [sp, #40]	; 0x28
 800681e:	fb83 2302 	smull	r2, r3, r3, r2
 8006822:	440b      	add	r3, r1
 8006824:	9901      	ldr	r1, [sp, #4]
 8006826:	1b7c      	subs	r4, r7, r5
 8006828:	4401      	add	r1, r0
 800682a:	005b      	lsls	r3, r3, #1
 800682c:	0062      	lsls	r2, r4, #1
 800682e:	9101      	str	r1, [sp, #4]
 8006830:	9909      	ldr	r1, [sp, #36]	; 0x24
 8006832:	e90e 000c 	stmdb	lr, {r2, r3}
 8006836:	9b02      	ldr	r3, [sp, #8]
 8006838:	4489      	add	r9, r1
 800683a:	990b      	ldr	r1, [sp, #44]	; 0x2c
 800683c:	3b01      	subs	r3, #1
 800683e:	f108 0808 	add.w	r8, r8, #8
 8006842:	f10a 0a08 	add.w	sl, sl, #8
 8006846:	448c      	add	ip, r1
 8006848:	f10e 0e08 	add.w	lr, lr, #8
 800684c:	9302      	str	r3, [sp, #8]
 800684e:	f47f af6a 	bne.w	8006726 <arm_radix4_butterfly_inverse_q31+0x4e>
 8006852:	9b0c      	ldr	r3, [sp, #48]	; 0x30
 8006854:	009b      	lsls	r3, r3, #2
 8006856:	9317      	str	r3, [sp, #92]	; 0x5c
 8006858:	9b1f      	ldr	r3, [sp, #124]	; 0x7c
 800685a:	2b04      	cmp	r3, #4
 800685c:	f240 80ed 	bls.w	8006a3a <arm_radix4_butterfly_inverse_q31+0x362>
 8006860:	931c      	str	r3, [sp, #112]	; 0x70
 8006862:	9310      	str	r3, [sp, #64]	; 0x40
 8006864:	2300      	movs	r3, #0
 8006866:	9313      	str	r3, [sp, #76]	; 0x4c
 8006868:	9316      	str	r3, [sp, #88]	; 0x58
 800686a:	9b1e      	ldr	r3, [sp, #120]	; 0x78
 800686c:	9810      	ldr	r0, [sp, #64]	; 0x40
 800686e:	9315      	str	r3, [sp, #84]	; 0x54
 8006870:	9b18      	ldr	r3, [sp, #96]	; 0x60
 8006872:	ea4f 08c0 	mov.w	r8, r0, lsl #3
 8006876:	9314      	str	r3, [sp, #80]	; 0x50
 8006878:	0883      	lsrs	r3, r0, #2
 800687a:	4619      	mov	r1, r3
 800687c:	931d      	str	r3, [sp, #116]	; 0x74
 800687e:	9b17      	ldr	r3, [sp, #92]	; 0x5c
 8006880:	1e4a      	subs	r2, r1, #1
 8006882:	eb03 0343 	add.w	r3, r3, r3, lsl #1
 8006886:	9219      	str	r2, [sp, #100]	; 0x64
 8006888:	00db      	lsls	r3, r3, #3
 800688a:	00ca      	lsls	r2, r1, #3
 800688c:	921a      	str	r2, [sp, #104]	; 0x68
 800688e:	931b      	str	r3, [sp, #108]	; 0x6c
 8006890:	f8cd 8048 	str.w	r8, [sp, #72]	; 0x48
 8006894:	9c18      	ldr	r4, [sp, #96]	; 0x60
 8006896:	9b16      	ldr	r3, [sp, #88]	; 0x58
 8006898:	4622      	mov	r2, r4
 800689a:	4618      	mov	r0, r3
 800689c:	00d9      	lsls	r1, r3, #3
 800689e:	440a      	add	r2, r1
 80068a0:	011b      	lsls	r3, r3, #4
 80068a2:	4411      	add	r1, r2
 80068a4:	58e3      	ldr	r3, [r4, r3]
 80068a6:	6849      	ldr	r1, [r1, #4]
 80068a8:	6852      	ldr	r2, [r2, #4]
 80068aa:	9304      	str	r3, [sp, #16]
 80068ac:	9b17      	ldr	r3, [sp, #92]	; 0x5c
 80068ae:	9106      	str	r1, [sp, #24]
 80068b0:	9208      	str	r2, [sp, #32]
 80068b2:	9914      	ldr	r1, [sp, #80]	; 0x50
 80068b4:	f854 2030 	ldr.w	r2, [r4, r0, lsl #3]
 80068b8:	18c3      	adds	r3, r0, r3
 80068ba:	9203      	str	r2, [sp, #12]
 80068bc:	9316      	str	r3, [sp, #88]	; 0x58
 80068be:	680a      	ldr	r2, [r1, #0]
 80068c0:	684b      	ldr	r3, [r1, #4]
 80068c2:	9d1a      	ldr	r5, [sp, #104]	; 0x68
 80068c4:	9f15      	ldr	r7, [sp, #84]	; 0x54
 80068c6:	9209      	str	r2, [sp, #36]	; 0x24
 80068c8:	930a      	str	r3, [sp, #40]	; 0x28
 80068ca:	9a13      	ldr	r2, [sp, #76]	; 0x4c
 80068cc:	9b11      	ldr	r3, [sp, #68]	; 0x44
 80068ce:	eb07 0a05 	add.w	sl, r7, r5
 80068d2:	eb0a 0b05 	add.w	fp, sl, r5
 80068d6:	4293      	cmp	r3, r2
 80068d8:	eb0b 0e05 	add.w	lr, fp, r5
 80068dc:	f240 8094 	bls.w	8006a08 <arm_radix4_butterfly_inverse_q31+0x330>
 80068e0:	4613      	mov	r3, r2
 80068e2:	f8cd b004 	str.w	fp, [sp, #4]
 80068e6:	46d3      	mov	fp, sl
 80068e8:	46ba      	mov	sl, r7
 80068ea:	9a10      	ldr	r2, [sp, #64]	; 0x40
 80068ec:	9801      	ldr	r0, [sp, #4]
 80068ee:	4413      	add	r3, r2
 80068f0:	9302      	str	r3, [sp, #8]
 80068f2:	9b02      	ldr	r3, [sp, #8]
 80068f4:	f8da c000 	ldr.w	ip, [sl]
 80068f8:	6804      	ldr	r4, [r0, #0]
 80068fa:	f8db 2000 	ldr.w	r2, [fp]
 80068fe:	930b      	str	r3, [sp, #44]	; 0x2c
 8006900:	f8de 3000 	ldr.w	r3, [lr]
 8006904:	eb0c 0704 	add.w	r7, ip, r4
 8006908:	441a      	add	r2, r3
 800690a:	18b9      	adds	r1, r7, r2
 800690c:	1089      	asrs	r1, r1, #2
 800690e:	6843      	ldr	r3, [r0, #4]
 8006910:	f8ca 1000 	str.w	r1, [sl]
 8006914:	f8db 5004 	ldr.w	r5, [fp, #4]
 8006918:	f8da 1004 	ldr.w	r1, [sl, #4]
 800691c:	f8de 0004 	ldr.w	r0, [lr, #4]
 8006920:	18ce      	adds	r6, r1, r3
 8006922:	4428      	add	r0, r5
 8006924:	1835      	adds	r5, r6, r0
 8006926:	10ad      	asrs	r5, r5, #2
 8006928:	f8ca 5004 	str.w	r5, [sl, #4]
 800692c:	1ac9      	subs	r1, r1, r3
 800692e:	f8db 3004 	ldr.w	r3, [fp, #4]
 8006932:	ebc4 040c 	rsb	r4, r4, ip
 8006936:	469c      	mov	ip, r3
 8006938:	f8de 3004 	ldr.w	r3, [lr, #4]
 800693c:	f8de 5000 	ldr.w	r5, [lr]
 8006940:	ebc3 0c0c 	rsb	ip, r3, ip
 8006944:	f8db 3000 	ldr.w	r3, [fp]
 8006948:	1aba      	subs	r2, r7, r2
 800694a:	1b5b      	subs	r3, r3, r5
 800694c:	ebcc 0504 	rsb	r5, ip, r4
 8006950:	44a4      	add	ip, r4
 8006952:	18cc      	adds	r4, r1, r3
 8006954:	1acb      	subs	r3, r1, r3
 8006956:	9903      	ldr	r1, [sp, #12]
 8006958:	1a30      	subs	r0, r6, r0
 800695a:	fb85 6701 	smull	r6, r7, r5, r1
 800695e:	e9cd 670c 	strd	r6, r7, [sp, #48]	; 0x30
 8006962:	9e08      	ldr	r6, [sp, #32]
 8006964:	990d      	ldr	r1, [sp, #52]	; 0x34
 8006966:	fb84 8906 	smull	r8, r9, r4, r6
 800696a:	ebc9 0101 	rsb	r1, r9, r1
 800696e:	910e      	str	r1, [sp, #56]	; 0x38
 8006970:	9904      	ldr	r1, [sp, #16]
 8006972:	9f06      	ldr	r7, [sp, #24]
 8006974:	4688      	mov	r8, r1
 8006976:	fb80 6707 	smull	r6, r7, r0, r7
 800697a:	fb82 8908 	smull	r8, r9, r2, r8
 800697e:	ebc7 0609 	rsb	r6, r7, r9
 8006982:	9f06      	ldr	r7, [sp, #24]
 8006984:	960c      	str	r6, [sp, #48]	; 0x30
 8006986:	fb82 6707 	smull	r6, r7, r2, r7
 800698a:	9a03      	ldr	r2, [sp, #12]
 800698c:	fb80 0101 	smull	r0, r1, r0, r1
 8006990:	fb84 8902 	smull	r8, r9, r4, r2
 8006994:	9c08      	ldr	r4, [sp, #32]
 8006996:	187a      	adds	r2, r7, r1
 8006998:	fb85 4504 	smull	r4, r5, r5, r4
 800699c:	9909      	ldr	r1, [sp, #36]	; 0x24
 800699e:	eb05 0409 	add.w	r4, r5, r9
 80069a2:	fb8c 6701 	smull	r6, r7, ip, r1
 80069a6:	940f      	str	r4, [sp, #60]	; 0x3c
 80069a8:	990a      	ldr	r1, [sp, #40]	; 0x28
 80069aa:	9c09      	ldr	r4, [sp, #36]	; 0x24
 80069ac:	fb83 0101 	smull	r0, r1, r3, r1
 80069b0:	fb83 4504 	smull	r4, r5, r3, r4
 80069b4:	9b0a      	ldr	r3, [sp, #40]	; 0x28
 80069b6:	9c0e      	ldr	r4, [sp, #56]	; 0x38
 80069b8:	4698      	mov	r8, r3
 80069ba:	fb8c 8908 	smull	r8, r9, ip, r8
 80069be:	9e0c      	ldr	r6, [sp, #48]	; 0x30
 80069c0:	1052      	asrs	r2, r2, #1
 80069c2:	f8cb 2004 	str.w	r2, [fp, #4]
 80069c6:	1a7b      	subs	r3, r7, r1
 80069c8:	9a02      	ldr	r2, [sp, #8]
 80069ca:	eb09 0105 	add.w	r1, r9, r5
 80069ce:	980f      	ldr	r0, [sp, #60]	; 0x3c
 80069d0:	1075      	asrs	r5, r6, #1
 80069d2:	9e10      	ldr	r6, [sp, #64]	; 0x40
 80069d4:	f8cb 5000 	str.w	r5, [fp]
 80069d8:	9d01      	ldr	r5, [sp, #4]
 80069da:	1040      	asrs	r0, r0, #1
 80069dc:	105b      	asrs	r3, r3, #1
 80069de:	4432      	add	r2, r6
 80069e0:	1064      	asrs	r4, r4, #1
 80069e2:	9f12      	ldr	r7, [sp, #72]	; 0x48
 80069e4:	6068      	str	r0, [r5, #4]
 80069e6:	602c      	str	r4, [r5, #0]
 80069e8:	9202      	str	r2, [sp, #8]
 80069ea:	f8ce 3000 	str.w	r3, [lr]
 80069ee:	9a11      	ldr	r2, [sp, #68]	; 0x44
 80069f0:	9b0b      	ldr	r3, [sp, #44]	; 0x2c
 80069f2:	1049      	asrs	r1, r1, #1
 80069f4:	19e8      	adds	r0, r5, r7
 80069f6:	429a      	cmp	r2, r3
 80069f8:	f8ce 1004 	str.w	r1, [lr, #4]
 80069fc:	44ba      	add	sl, r7
 80069fe:	44bb      	add	fp, r7
 8006a00:	9001      	str	r0, [sp, #4]
 8006a02:	44be      	add	lr, r7
 8006a04:	f63f af75 	bhi.w	80068f2 <arm_radix4_butterfly_inverse_q31+0x21a>
 8006a08:	9a14      	ldr	r2, [sp, #80]	; 0x50
 8006a0a:	991b      	ldr	r1, [sp, #108]	; 0x6c
 8006a0c:	9b13      	ldr	r3, [sp, #76]	; 0x4c
 8006a0e:	440a      	add	r2, r1
 8006a10:	9214      	str	r2, [sp, #80]	; 0x50
 8006a12:	9a15      	ldr	r2, [sp, #84]	; 0x54
 8006a14:	3301      	adds	r3, #1
 8006a16:	3208      	adds	r2, #8
 8006a18:	9215      	str	r2, [sp, #84]	; 0x54
 8006a1a:	9a19      	ldr	r2, [sp, #100]	; 0x64
 8006a1c:	9313      	str	r3, [sp, #76]	; 0x4c
 8006a1e:	4293      	cmp	r3, r2
 8006a20:	f67f af38 	bls.w	8006894 <arm_radix4_butterfly_inverse_q31+0x1bc>
 8006a24:	9a17      	ldr	r2, [sp, #92]	; 0x5c
 8006a26:	9b1c      	ldr	r3, [sp, #112]	; 0x70
 8006a28:	0092      	lsls	r2, r2, #2
 8006a2a:	089b      	lsrs	r3, r3, #2
 8006a2c:	9217      	str	r2, [sp, #92]	; 0x5c
 8006a2e:	9a1d      	ldr	r2, [sp, #116]	; 0x74
 8006a30:	2b04      	cmp	r3, #4
 8006a32:	931c      	str	r3, [sp, #112]	; 0x70
 8006a34:	9210      	str	r2, [sp, #64]	; 0x40
 8006a36:	f63f af15 	bhi.w	8006864 <arm_radix4_butterfly_inverse_q31+0x18c>
 8006a3a:	981e      	ldr	r0, [sp, #120]	; 0x78
 8006a3c:	f8dd 807c 	ldr.w	r8, [sp, #124]	; 0x7c
 8006a40:	3020      	adds	r0, #32
 8006a42:	f850 2c20 	ldr.w	r2, [r0, #-32]
 8006a46:	f850 1c18 	ldr.w	r1, [r0, #-24]
 8006a4a:	f850 3c14 	ldr.w	r3, [r0, #-20]
 8006a4e:	f850 9c1c 	ldr.w	r9, [r0, #-28]
 8006a52:	f850 ac10 	ldr.w	sl, [r0, #-16]
 8006a56:	f850 cc0c 	ldr.w	ip, [r0, #-12]
 8006a5a:	eb02 0e01 	add.w	lr, r2, r1
 8006a5e:	1a57      	subs	r7, r2, r1
 8006a60:	1ad6      	subs	r6, r2, r3
 8006a62:	441a      	add	r2, r3
 8006a64:	f850 4c08 	ldr.w	r4, [r0, #-8]
 8006a68:	f850 bc04 	ldr.w	fp, [r0, #-4]
 8006a6c:	eb09 0503 	add.w	r5, r9, r3
 8006a70:	44d6      	add	lr, sl
 8006a72:	4457      	add	r7, sl
 8006a74:	ebca 0606 	rsb	r6, sl, r6
 8006a78:	ebc3 0309 	rsb	r3, r3, r9
 8006a7c:	ebca 0a02 	rsb	sl, sl, r2
 8006a80:	eb09 0201 	add.w	r2, r9, r1
 8006a84:	ebc1 0109 	rsb	r1, r1, r9
 8006a88:	4463      	add	r3, ip
 8006a8a:	4465      	add	r5, ip
 8006a8c:	ebcc 0202 	rsb	r2, ip, r2
 8006a90:	ebcc 0c01 	rsb	ip, ip, r1
 8006a94:	445e      	add	r6, fp
 8006a96:	ebcb 0a0a 	rsb	sl, fp, sl
 8006a9a:	445d      	add	r5, fp
 8006a9c:	eb0e 0104 	add.w	r1, lr, r4
 8006aa0:	ebcb 0b03 	rsb	fp, fp, r3
 8006aa4:	1b3f      	subs	r7, r7, r4
 8006aa6:	1b12      	subs	r2, r2, r4
 8006aa8:	eb0c 0304 	add.w	r3, ip, r4
 8006aac:	f1b8 0801 	subs.w	r8, r8, #1
 8006ab0:	f840 1c20 	str.w	r1, [r0, #-32]
 8006ab4:	f840 7c18 	str.w	r7, [r0, #-24]
 8006ab8:	f840 6c10 	str.w	r6, [r0, #-16]
 8006abc:	f840 ac08 	str.w	sl, [r0, #-8]
 8006ac0:	f840 5c1c 	str.w	r5, [r0, #-28]
 8006ac4:	f840 bc14 	str.w	fp, [r0, #-20]
 8006ac8:	f840 2c0c 	str.w	r2, [r0, #-12]
 8006acc:	f840 3c04 	str.w	r3, [r0, #-4]
 8006ad0:	f100 0020 	add.w	r0, r0, #32
 8006ad4:	d1b5      	bne.n	8006a42 <arm_radix4_butterfly_inverse_q31+0x36a>
 8006ad6:	b021      	add	sp, #132	; 0x84
 8006ad8:	e8bd 8ff0 	ldmia.w	sp!, {r4, r5, r6, r7, r8, r9, sl, fp, pc}

08006adc <arm_fir_interpolate_init_q31>:
 8006adc:	b570      	push	{r4, r5, r6, lr}
 8006ade:	fb92 f6f1 	sdiv	r6, r2, r1
 8006ae2:	fb01 2416 	mls	r4, r1, r6, r2
 8006ae6:	b994      	cbnz	r4, 8006b0e <arm_fir_interpolate_init_q31+0x32>
 8006ae8:	9a05      	ldr	r2, [sp, #20]
 8006aea:	6043      	str	r3, [r0, #4]
 8006aec:	f102 4280 	add.w	r2, r2, #1073741824	; 0x40000000
 8006af0:	3a01      	subs	r2, #1
 8006af2:	4432      	add	r2, r6
 8006af4:	7001      	strb	r1, [r0, #0]
 8006af6:	4605      	mov	r5, r0
 8006af8:	8046      	strh	r6, [r0, #2]
 8006afa:	0092      	lsls	r2, r2, #2
 8006afc:	9804      	ldr	r0, [sp, #16]
 8006afe:	4621      	mov	r1, r4
 8006b00:	f000 fbd2 	bl	80072a8 <memset>
 8006b04:	4620      	mov	r0, r4
 8006b06:	9b04      	ldr	r3, [sp, #16]
 8006b08:	60ab      	str	r3, [r5, #8]
 8006b0a:	b240      	sxtb	r0, r0
 8006b0c:	bd70      	pop	{r4, r5, r6, pc}
 8006b0e:	20fe      	movs	r0, #254	; 0xfe
 8006b10:	e7fb      	b.n	8006b0a <arm_fir_interpolate_init_q31+0x2e>
 8006b12:	bf00      	nop

08006b14 <arm_fir_decimate_q31>:
 8006b14:	e92d 4ff0 	stmdb	sp!, {r4, r5, r6, r7, r8, r9, sl, fp, lr}
 8006b18:	4680      	mov	r8, r0
 8006b1a:	7805      	ldrb	r5, [r0, #0]
 8006b1c:	8840      	ldrh	r0, [r0, #2]
 8006b1e:	fbb3 f9f5 	udiv	r9, r3, r5
 8006b22:	f100 4c80 	add.w	ip, r0, #1073741824	; 0x40000000
 8006b26:	f8d8 3004 	ldr.w	r3, [r8, #4]
 8006b2a:	f8d8 e008 	ldr.w	lr, [r8, #8]
 8006b2e:	b087      	sub	sp, #28
 8006b30:	f10c 3cff 	add.w	ip, ip, #4294967295
 8006b34:	9005      	str	r0, [sp, #20]
 8006b36:	eb0e 0c8c 	add.w	ip, lr, ip, lsl #2
 8006b3a:	461c      	mov	r4, r3
 8006b3c:	9302      	str	r3, [sp, #8]
 8006b3e:	f1b9 0f00 	cmp.w	r9, #0
 8006b42:	f000 80a0 	beq.w	8006c86 <arm_fir_decimate_q31+0x172>
 8006b46:	ea4f 0b90 	mov.w	fp, r0, lsr #2
 8006b4a:	4692      	mov	sl, r2
 8006b4c:	ea4f 120b 	mov.w	r2, fp, lsl #4
 8006b50:	4603      	mov	r3, r0
 8006b52:	9203      	str	r2, [sp, #12]
 8006b54:	4610      	mov	r0, r2
 8006b56:	4622      	mov	r2, r4
 8006b58:	f003 0303 	and.w	r3, r3, #3
 8006b5c:	4402      	add	r2, r0
 8006b5e:	9204      	str	r2, [sp, #16]
 8006b60:	9301      	str	r3, [sp, #4]
 8006b62:	462b      	mov	r3, r5
 8006b64:	4608      	mov	r0, r1
 8006b66:	f1ac 0204 	sub.w	r2, ip, #4
 8006b6a:	f850 4b04 	ldr.w	r4, [r0], #4
 8006b6e:	3b01      	subs	r3, #1
 8006b70:	f842 4f04 	str.w	r4, [r2, #4]!
 8006b74:	d1f9      	bne.n	8006b6a <arm_fir_decimate_q31+0x56>
 8006b76:	00ad      	lsls	r5, r5, #2
 8006b78:	44ac      	add	ip, r5
 8006b7a:	4429      	add	r1, r5
 8006b7c:	f1bb 0f00 	cmp.w	fp, #0
 8006b80:	d04b      	beq.n	8006c1a <arm_fir_decimate_q31+0x106>
 8006b82:	9b02      	ldr	r3, [sp, #8]
 8006b84:	2600      	movs	r6, #0
 8006b86:	2700      	movs	r7, #0
 8006b88:	f103 0410 	add.w	r4, r3, #16
 8006b8c:	465d      	mov	r5, fp
 8006b8e:	4632      	mov	r2, r6
 8006b90:	463b      	mov	r3, r7
 8006b92:	f10e 0010 	add.w	r0, lr, #16
 8006b96:	9100      	str	r1, [sp, #0]
 8006b98:	f854 6c10 	ldr.w	r6, [r4, #-16]
 8006b9c:	f850 7c10 	ldr.w	r7, [r0, #-16]
 8006ba0:	3d01      	subs	r5, #1
 8006ba2:	fbc6 2307 	smlal	r2, r3, r6, r7
 8006ba6:	f850 6c0c 	ldr.w	r6, [r0, #-12]
 8006baa:	f854 7c0c 	ldr.w	r7, [r4, #-12]
 8006bae:	f100 0010 	add.w	r0, r0, #16
 8006bb2:	fbc7 2306 	smlal	r2, r3, r7, r6
 8006bb6:	e914 0082 	ldmdb	r4, {r1, r7}
 8006bba:	f850 6c18 	ldr.w	r6, [r0, #-24]
 8006bbe:	f104 0410 	add.w	r4, r4, #16
 8006bc2:	fbc1 2306 	smlal	r2, r3, r1, r6
 8006bc6:	f850 6c14 	ldr.w	r6, [r0, #-20]
 8006bca:	fbc7 2306 	smlal	r2, r3, r7, r6
 8006bce:	d1e3      	bne.n	8006b98 <arm_fir_decimate_q31+0x84>
 8006bd0:	4616      	mov	r6, r2
 8006bd2:	461f      	mov	r7, r3
 8006bd4:	9b03      	ldr	r3, [sp, #12]
 8006bd6:	9900      	ldr	r1, [sp, #0]
 8006bd8:	9c04      	ldr	r4, [sp, #16]
 8006bda:	eb0e 0503 	add.w	r5, lr, r3
 8006bde:	9b01      	ldr	r3, [sp, #4]
 8006be0:	b163      	cbz	r3, 8006bfc <arm_fir_decimate_q31+0xe8>
 8006be2:	4618      	mov	r0, r3
 8006be4:	4632      	mov	r2, r6
 8006be6:	463b      	mov	r3, r7
 8006be8:	f854 6b04 	ldr.w	r6, [r4], #4
 8006bec:	f855 7b04 	ldr.w	r7, [r5], #4
 8006bf0:	3801      	subs	r0, #1
 8006bf2:	fbc6 2307 	smlal	r2, r3, r6, r7
 8006bf6:	d1f7      	bne.n	8006be8 <arm_fir_decimate_q31+0xd4>
 8006bf8:	4616      	mov	r6, r2
 8006bfa:	461f      	mov	r7, r3
 8006bfc:	f898 0000 	ldrb.w	r0, [r8]
 8006c00:	0ff2      	lsrs	r2, r6, #31
 8006c02:	ea42 0247 	orr.w	r2, r2, r7, lsl #1
 8006c06:	f1b9 0901 	subs.w	r9, r9, #1
 8006c0a:	f84a 2b04 	str.w	r2, [sl], #4
 8006c0e:	eb0e 0e80 	add.w	lr, lr, r0, lsl #2
 8006c12:	d007      	beq.n	8006c24 <arm_fir_decimate_q31+0x110>
 8006c14:	f898 5000 	ldrb.w	r5, [r8]
 8006c18:	e7a3      	b.n	8006b62 <arm_fir_decimate_q31+0x4e>
 8006c1a:	9c02      	ldr	r4, [sp, #8]
 8006c1c:	4675      	mov	r5, lr
 8006c1e:	2600      	movs	r6, #0
 8006c20:	2700      	movs	r7, #0
 8006c22:	e7dc      	b.n	8006bde <arm_fir_decimate_q31+0xca>
 8006c24:	f8d8 4008 	ldr.w	r4, [r8, #8]
 8006c28:	9b05      	ldr	r3, [sp, #20]
 8006c2a:	1e59      	subs	r1, r3, #1
 8006c2c:	088e      	lsrs	r6, r1, #2
 8006c2e:	d01d      	beq.n	8006c6c <arm_fir_decimate_q31+0x158>
 8006c30:	4630      	mov	r0, r6
 8006c32:	f104 0210 	add.w	r2, r4, #16
 8006c36:	f10e 0310 	add.w	r3, lr, #16
 8006c3a:	f853 5c10 	ldr.w	r5, [r3, #-16]
 8006c3e:	3801      	subs	r0, #1
 8006c40:	f842 5c10 	str.w	r5, [r2, #-16]
 8006c44:	f853 5c0c 	ldr.w	r5, [r3, #-12]
 8006c48:	f102 0210 	add.w	r2, r2, #16
 8006c4c:	f842 5c1c 	str.w	r5, [r2, #-28]
 8006c50:	f853 5c08 	ldr.w	r5, [r3, #-8]
 8006c54:	f103 0310 	add.w	r3, r3, #16
 8006c58:	f842 5c18 	str.w	r5, [r2, #-24]
 8006c5c:	f853 5c14 	ldr.w	r5, [r3, #-20]
 8006c60:	f842 5c14 	str.w	r5, [r2, #-20]
 8006c64:	d1e9      	bne.n	8006c3a <arm_fir_decimate_q31+0x126>
 8006c66:	0133      	lsls	r3, r6, #4
 8006c68:	441c      	add	r4, r3
 8006c6a:	449e      	add	lr, r3
 8006c6c:	f011 0303 	ands.w	r3, r1, #3
 8006c70:	d006      	beq.n	8006c80 <arm_fir_decimate_q31+0x16c>
 8006c72:	1f22      	subs	r2, r4, #4
 8006c74:	f85e 1b04 	ldr.w	r1, [lr], #4
 8006c78:	3b01      	subs	r3, #1
 8006c7a:	f842 1f04 	str.w	r1, [r2, #4]!
 8006c7e:	d1f9      	bne.n	8006c74 <arm_fir_decimate_q31+0x160>
 8006c80:	b007      	add	sp, #28
 8006c82:	e8bd 8ff0 	ldmia.w	sp!, {r4, r5, r6, r7, r8, r9, sl, fp, pc}
 8006c86:	4674      	mov	r4, lr
 8006c88:	e7ce      	b.n	8006c28 <arm_fir_decimate_q31+0x114>
 8006c8a:	bf00      	nop

08006c8c <arm_fir_decimate_init_q31>:
 8006c8c:	b570      	push	{r4, r5, r6, lr}
 8006c8e:	4616      	mov	r6, r2
 8006c90:	9a05      	ldr	r2, [sp, #20]
 8006c92:	fbb2 f4f6 	udiv	r4, r2, r6
 8006c96:	fb06 2414 	mls	r4, r6, r4, r2
 8006c9a:	b98c      	cbnz	r4, 8006cc0 <arm_fir_decimate_init_q31+0x34>
 8006c9c:	4605      	mov	r5, r0
 8006c9e:	f101 4080 	add.w	r0, r1, #1073741824	; 0x40000000
 8006ca2:	3801      	subs	r0, #1
 8006ca4:	4402      	add	r2, r0
 8006ca6:	8069      	strh	r1, [r5, #2]
 8006ca8:	606b      	str	r3, [r5, #4]
 8006caa:	0092      	lsls	r2, r2, #2
 8006cac:	9804      	ldr	r0, [sp, #16]
 8006cae:	4621      	mov	r1, r4
 8006cb0:	f000 fafa 	bl	80072a8 <memset>
 8006cb4:	4620      	mov	r0, r4
 8006cb6:	9b04      	ldr	r3, [sp, #16]
 8006cb8:	702e      	strb	r6, [r5, #0]
 8006cba:	60ab      	str	r3, [r5, #8]
 8006cbc:	b240      	sxtb	r0, r0
 8006cbe:	bd70      	pop	{r4, r5, r6, pc}
 8006cc0:	20fe      	movs	r0, #254	; 0xfe
 8006cc2:	e7fb      	b.n	8006cbc <arm_fir_decimate_init_q31+0x30>

08006cc4 <arm_cmplx_mag_q31>:
 8006cc4:	e92d 4ff0 	stmdb	sp!, {r4, r5, r6, r7, r8, r9, sl, fp, lr}
 8006cc8:	0893      	lsrs	r3, r2, #2
 8006cca:	b085      	sub	sp, #20
 8006ccc:	e88d 0005 	stmia.w	sp, {r0, r2}
 8006cd0:	460e      	mov	r6, r1
 8006cd2:	9302      	str	r3, [sp, #8]
 8006cd4:	d053      	beq.n	8006d7e <arm_cmplx_mag_q31+0xba>
 8006cd6:	461f      	mov	r7, r3
 8006cd8:	460d      	mov	r5, r1
 8006cda:	46ba      	mov	sl, r7
 8006cdc:	f100 0420 	add.w	r4, r0, #32
 8006ce0:	9103      	str	r1, [sp, #12]
 8006ce2:	f854 3c14 	ldr.w	r3, [r4, #-20]
 8006ce6:	f854 0c1c 	ldr.w	r0, [r4, #-28]
 8006cea:	f854 6c20 	ldr.w	r6, [r4, #-32]
 8006cee:	f854 2c18 	ldr.w	r2, [r4, #-24]
 8006cf2:	fb83 8903 	smull	r8, r9, r3, r3
 8006cf6:	fb80 0100 	smull	r0, r1, r0, r0
 8006cfa:	fb82 2302 	smull	r2, r3, r2, r2
 8006cfe:	fb86 6706 	smull	r6, r7, r6, r6
 8006d02:	ea4f 0269 	mov.w	r2, r9, asr #1
 8006d06:	1048      	asrs	r0, r1, #1
 8006d08:	f854 9c04 	ldr.w	r9, [r4, #-4]
 8006d0c:	f854 8c0c 	ldr.w	r8, [r4, #-12]
 8006d10:	4629      	mov	r1, r5
 8006d12:	eb00 0067 	add.w	r0, r0, r7, asr #1
 8006d16:	eb02 0763 	add.w	r7, r2, r3, asr #1
 8006d1a:	f854 bc10 	ldr.w	fp, [r4, #-16]
 8006d1e:	f854 6c08 	ldr.w	r6, [r4, #-8]
 8006d22:	f000 f849 	bl	8006db8 <arm_sqrt_q31>
 8006d26:	1d29      	adds	r1, r5, #4
 8006d28:	4638      	mov	r0, r7
 8006d2a:	f000 f845 	bl	8006db8 <arm_sqrt_q31>
 8006d2e:	fb89 0109 	smull	r0, r1, r9, r9
 8006d32:	fb88 8908 	smull	r8, r9, r8, r8
 8006d36:	fb8b 230b 	smull	r2, r3, fp, fp
 8006d3a:	fb86 6706 	smull	r6, r7, r6, r6
 8006d3e:	ea4f 0069 	mov.w	r0, r9, asr #1
 8006d42:	104e      	asrs	r6, r1, #1
 8006d44:	eb00 0063 	add.w	r0, r0, r3, asr #1
 8006d48:	f105 0108 	add.w	r1, r5, #8
 8006d4c:	eb06 0667 	add.w	r6, r6, r7, asr #1
 8006d50:	f000 f832 	bl	8006db8 <arm_sqrt_q31>
 8006d54:	f105 010c 	add.w	r1, r5, #12
 8006d58:	4630      	mov	r0, r6
 8006d5a:	f000 f82d 	bl	8006db8 <arm_sqrt_q31>
 8006d5e:	f1ba 0a01 	subs.w	sl, sl, #1
 8006d62:	f104 0420 	add.w	r4, r4, #32
 8006d66:	f105 0510 	add.w	r5, r5, #16
 8006d6a:	d1ba      	bne.n	8006ce2 <arm_cmplx_mag_q31+0x1e>
 8006d6c:	9b00      	ldr	r3, [sp, #0]
 8006d6e:	9a02      	ldr	r2, [sp, #8]
 8006d70:	4619      	mov	r1, r3
 8006d72:	9e03      	ldr	r6, [sp, #12]
 8006d74:	eb01 1342 	add.w	r3, r1, r2, lsl #5
 8006d78:	9300      	str	r3, [sp, #0]
 8006d7a:	eb06 1602 	add.w	r6, r6, r2, lsl #4
 8006d7e:	9b01      	ldr	r3, [sp, #4]
 8006d80:	f013 0503 	ands.w	r5, r3, #3
 8006d84:	d015      	beq.n	8006db2 <arm_cmplx_mag_q31+0xee>
 8006d86:	9c00      	ldr	r4, [sp, #0]
 8006d88:	3408      	adds	r4, #8
 8006d8a:	f854 0c04 	ldr.w	r0, [r4, #-4]
 8006d8e:	f854 2c08 	ldr.w	r2, [r4, #-8]
 8006d92:	fb80 0100 	smull	r0, r1, r0, r0
 8006d96:	fb82 2302 	smull	r2, r3, r2, r2
 8006d9a:	1048      	asrs	r0, r1, #1
 8006d9c:	eb00 0063 	add.w	r0, r0, r3, asr #1
 8006da0:	4631      	mov	r1, r6
 8006da2:	f000 f809 	bl	8006db8 <arm_sqrt_q31>
 8006da6:	3d01      	subs	r5, #1
 8006da8:	f106 0604 	add.w	r6, r6, #4
 8006dac:	f104 0408 	add.w	r4, r4, #8
 8006db0:	d1eb      	bne.n	8006d8a <arm_cmplx_mag_q31+0xc6>
 8006db2:	b005      	add	sp, #20
 8006db4:	e8bd 8ff0 	ldmia.w	sp!, {r4, r5, r6, r7, r8, r9, sl, fp, pc}

08006db8 <arm_sqrt_q31>:
 8006db8:	2800      	cmp	r0, #0
 8006dba:	dd71      	ble.n	8006ea0 <arm_sqrt_q31+0xe8>
 8006dbc:	e92d 4df0 	stmdb	sp!, {r4, r5, r6, r7, r8, sl, fp, lr}
 8006dc0:	fab0 f580 	clz	r5, r0
 8006dc4:	1e6e      	subs	r6, r5, #1
 8006dc6:	f016 0701 	ands.w	r7, r6, #1
 8006dca:	bf1a      	itte	ne
 8006dcc:	1eab      	subne	r3, r5, #2
 8006dce:	fa00 f403 	lslne.w	r4, r0, r3
 8006dd2:	fa00 f406 	lsleq.w	r4, r0, r6
 8006dd6:	4620      	mov	r0, r4
 8006dd8:	4688      	mov	r8, r1
 8006dda:	f7f9 fe0f 	bl	80009fc <__aeabi_i2f>
 8006dde:	f04f 5140 	mov.w	r1, #805306368	; 0x30000000
 8006de2:	f7f9 fe5f 	bl	8000aa4 <__aeabi_fmul>
 8006de6:	1043      	asrs	r3, r0, #1
 8006de8:	4830      	ldr	r0, [pc, #192]	; (8006eac <arm_sqrt_q31+0xf4>)
 8006dea:	f04f 419d 	mov.w	r1, #1317011456	; 0x4e800000
 8006dee:	1ac0      	subs	r0, r0, r3
 8006df0:	f7f9 fe58 	bl	8000aa4 <__aeabi_fmul>
 8006df4:	f7f9 ffa6 	bl	8000d44 <__aeabi_f2iz>
 8006df8:	fb80 ab00 	smull	sl, fp, r0, r0
 8006dfc:	ea4f 72da 	mov.w	r2, sl, lsr #31
 8006e00:	ea4f 0e64 	mov.w	lr, r4, asr #1
 8006e04:	ea42 024b 	orr.w	r2, r2, fp, lsl #1
 8006e08:	fb82 230e 	smull	r2, r3, r2, lr
 8006e0c:	0fd2      	lsrs	r2, r2, #31
 8006e0e:	ea42 0243 	orr.w	r2, r2, r3, lsl #1
 8006e12:	f1c2 5240 	rsb	r2, r2, #805306368	; 0x30000000
 8006e16:	fb80 0102 	smull	r0, r1, r0, r2
 8006e1a:	0fc2      	lsrs	r2, r0, #31
 8006e1c:	ea42 0241 	orr.w	r2, r2, r1, lsl #1
 8006e20:	0093      	lsls	r3, r2, #2
 8006e22:	fb83 ab03 	smull	sl, fp, r3, r3
 8006e26:	ea4f 70da 	mov.w	r0, sl, lsr #31
 8006e2a:	ea40 004b 	orr.w	r0, r0, fp, lsl #1
 8006e2e:	fb8e 0100 	smull	r0, r1, lr, r0
 8006e32:	0fc2      	lsrs	r2, r0, #31
 8006e34:	ea42 0241 	orr.w	r2, r2, r1, lsl #1
 8006e38:	f1c2 5240 	rsb	r2, r2, #805306368	; 0x30000000
 8006e3c:	fb83 2302 	smull	r2, r3, r3, r2
 8006e40:	0fd2      	lsrs	r2, r2, #31
 8006e42:	ea42 0243 	orr.w	r2, r2, r3, lsl #1
 8006e46:	0093      	lsls	r3, r2, #2
 8006e48:	fb83 0103 	smull	r0, r1, r3, r3
 8006e4c:	0fc0      	lsrs	r0, r0, #31
 8006e4e:	ea40 0041 	orr.w	r0, r0, r1, lsl #1
 8006e52:	fb8e 0100 	smull	r0, r1, lr, r0
 8006e56:	0fc2      	lsrs	r2, r0, #31
 8006e58:	ea42 0241 	orr.w	r2, r2, r1, lsl #1
 8006e5c:	f1c2 5240 	rsb	r2, r2, #805306368	; 0x30000000
 8006e60:	fb83 2302 	smull	r2, r3, r3, r2
 8006e64:	0fd0      	lsrs	r0, r2, #31
 8006e66:	ea40 0043 	orr.w	r0, r0, r3, lsl #1
 8006e6a:	0080      	lsls	r0, r0, #2
 8006e6c:	fb84 0100 	smull	r0, r1, r4, r0
 8006e70:	0fc3      	lsrs	r3, r0, #31
 8006e72:	ea43 0341 	orr.w	r3, r3, r1, lsl #1
 8006e76:	005b      	lsls	r3, r3, #1
 8006e78:	b157      	cbz	r7, 8006e90 <arm_sqrt_q31+0xd8>
 8006e7a:	3d02      	subs	r5, #2
 8006e7c:	eb05 75d5 	add.w	r5, r5, r5, lsr #31
 8006e80:	106d      	asrs	r5, r5, #1
 8006e82:	412b      	asrs	r3, r5
 8006e84:	f8c8 3000 	str.w	r3, [r8]
 8006e88:	2000      	movs	r0, #0
 8006e8a:	b240      	sxtb	r0, r0
 8006e8c:	e8bd 8df0 	ldmia.w	sp!, {r4, r5, r6, r7, r8, sl, fp, pc}
 8006e90:	1076      	asrs	r6, r6, #1
 8006e92:	4133      	asrs	r3, r6
 8006e94:	f8c8 3000 	str.w	r3, [r8]
 8006e98:	2000      	movs	r0, #0
 8006e9a:	b240      	sxtb	r0, r0
 8006e9c:	e8bd 8df0 	ldmia.w	sp!, {r4, r5, r6, r7, r8, sl, fp, pc}
 8006ea0:	2300      	movs	r3, #0
 8006ea2:	20ff      	movs	r0, #255	; 0xff
 8006ea4:	600b      	str	r3, [r1, #0]
 8006ea6:	b240      	sxtb	r0, r0
 8006ea8:	4770      	bx	lr
 8006eaa:	bf00      	nop
 8006eac:	5f3759df 	.word	0x5f3759df

08006eb0 <arm_sub_q31>:
 8006eb0:	e92d 4ff0 	stmdb	sp!, {r4, r5, r6, r7, r8, r9, sl, fp, lr}
 8006eb4:	b085      	sub	sp, #20
 8006eb6:	9302      	str	r3, [sp, #8]
 8006eb8:	089b      	lsrs	r3, r3, #2
 8006eba:	4683      	mov	fp, r0
 8006ebc:	468a      	mov	sl, r1
 8006ebe:	9201      	str	r2, [sp, #4]
 8006ec0:	9303      	str	r3, [sp, #12]
 8006ec2:	d063      	beq.n	8006f8c <arm_sub_q31+0xdc>
 8006ec4:	461f      	mov	r7, r3
 8006ec6:	f100 0e10 	add.w	lr, r0, #16
 8006eca:	f101 0610 	add.w	r6, r1, #16
 8006ece:	f102 0510 	add.w	r5, r2, #16
 8006ed2:	f856 1c10 	ldr.w	r1, [r6, #-16]
 8006ed6:	f85e 2c10 	ldr.w	r2, [lr, #-16]
 8006eda:	f856 4c0c 	ldr.w	r4, [r6, #-12]
 8006ede:	17d3      	asrs	r3, r2, #31
 8006ee0:	1a52      	subs	r2, r2, r1
 8006ee2:	eb63 73e1 	sbc.w	r3, r3, r1, asr #31
 8006ee6:	f85e 0c0c 	ldr.w	r0, [lr, #-12]
 8006eea:	ea4f 7ce3 	mov.w	ip, r3, asr #31
 8006eee:	ebb3 7fe2 	cmp.w	r3, r2, asr #31
 8006ef2:	f08c 4c00 	eor.w	ip, ip, #2147483648	; 0x80000000
 8006ef6:	ea6f 0c0c 	mvn.w	ip, ip
 8006efa:	ea4f 71e0 	mov.w	r1, r0, asr #31
 8006efe:	bf08      	it	eq
 8006f00:	4694      	moveq	ip, r2
 8006f02:	1b00      	subs	r0, r0, r4
 8006f04:	eb61 71e4 	sbc.w	r1, r1, r4, asr #31
 8006f08:	ea4f 78e1 	mov.w	r8, r1, asr #31
 8006f0c:	f088 4800 	eor.w	r8, r8, #2147483648	; 0x80000000
 8006f10:	ea6f 0808 	mvn.w	r8, r8
 8006f14:	f856 4c08 	ldr.w	r4, [r6, #-8]
 8006f18:	f85e 2c08 	ldr.w	r2, [lr, #-8]
 8006f1c:	ebb1 7fe0 	cmp.w	r1, r0, asr #31
 8006f20:	bf18      	it	ne
 8006f22:	4640      	movne	r0, r8
 8006f24:	17d3      	asrs	r3, r2, #31
 8006f26:	1b12      	subs	r2, r2, r4
 8006f28:	eb63 73e4 	sbc.w	r3, r3, r4, asr #31
 8006f2c:	f85e 1c04 	ldr.w	r1, [lr, #-4]
 8006f30:	17dc      	asrs	r4, r3, #31
 8006f32:	f084 4400 	eor.w	r4, r4, #2147483648	; 0x80000000
 8006f36:	4688      	mov	r8, r1
 8006f38:	43e4      	mvns	r4, r4
 8006f3a:	ea4f 79e1 	mov.w	r9, r1, asr #31
 8006f3e:	f856 1c04 	ldr.w	r1, [r6, #-4]
 8006f42:	ebb3 7fe2 	cmp.w	r3, r2, asr #31
 8006f46:	bf18      	it	ne
 8006f48:	4622      	movne	r2, r4
 8006f4a:	ebb8 0801 	subs.w	r8, r8, r1
 8006f4e:	eb69 79e1 	sbc.w	r9, r9, r1, asr #31
 8006f52:	ea4f 73e9 	mov.w	r3, r9, asr #31
 8006f56:	ebb9 7fe8 	cmp.w	r9, r8, asr #31
 8006f5a:	f083 4300 	eor.w	r3, r3, #2147483648	; 0x80000000
 8006f5e:	ea6f 0303 	mvn.w	r3, r3
 8006f62:	bf08      	it	eq
 8006f64:	4643      	moveq	r3, r8
 8006f66:	3f01      	subs	r7, #1
 8006f68:	f845 cc10 	str.w	ip, [r5, #-16]
 8006f6c:	e905 000d 	stmdb	r5, {r0, r2, r3}
 8006f70:	f10e 0e10 	add.w	lr, lr, #16
 8006f74:	f106 0610 	add.w	r6, r6, #16
 8006f78:	f105 0510 	add.w	r5, r5, #16
 8006f7c:	d1a9      	bne.n	8006ed2 <arm_sub_q31+0x22>
 8006f7e:	9b03      	ldr	r3, [sp, #12]
 8006f80:	9a01      	ldr	r2, [sp, #4]
 8006f82:	011b      	lsls	r3, r3, #4
 8006f84:	441a      	add	r2, r3
 8006f86:	449b      	add	fp, r3
 8006f88:	449a      	add	sl, r3
 8006f8a:	9201      	str	r2, [sp, #4]
 8006f8c:	9b02      	ldr	r3, [sp, #8]
 8006f8e:	f013 0303 	ands.w	r3, r3, #3
 8006f92:	d015      	beq.n	8006fc0 <arm_sub_q31+0x110>
 8006f94:	9a01      	ldr	r2, [sp, #4]
 8006f96:	3a04      	subs	r2, #4
 8006f98:	f85a 4b04 	ldr.w	r4, [sl], #4
 8006f9c:	f85b 0b04 	ldr.w	r0, [fp], #4
 8006fa0:	17c1      	asrs	r1, r0, #31
 8006fa2:	1b00      	subs	r0, r0, r4
 8006fa4:	eb61 71e4 	sbc.w	r1, r1, r4, asr #31
 8006fa8:	17cc      	asrs	r4, r1, #31
 8006faa:	f084 4400 	eor.w	r4, r4, #2147483648	; 0x80000000
 8006fae:	43e4      	mvns	r4, r4
 8006fb0:	ebb1 7fe0 	cmp.w	r1, r0, asr #31
 8006fb4:	bf18      	it	ne
 8006fb6:	4620      	movne	r0, r4
 8006fb8:	3b01      	subs	r3, #1
 8006fba:	f842 0f04 	str.w	r0, [r2, #4]!
 8006fbe:	d1eb      	bne.n	8006f98 <arm_sub_q31+0xe8>
 8006fc0:	b005      	add	sp, #20
 8006fc2:	e8bd 8ff0 	ldmia.w	sp!, {r4, r5, r6, r7, r8, r9, sl, fp, pc}
 8006fc6:	bf00      	nop

08006fc8 <arm_scale_q31>:
 8006fc8:	e92d 4ff0 	stmdb	sp!, {r4, r5, r6, r7, r8, r9, sl, fp, lr}
 8006fcc:	b089      	sub	sp, #36	; 0x24
 8006fce:	3201      	adds	r2, #1
 8006fd0:	9305      	str	r3, [sp, #20]
 8006fd2:	9b12      	ldr	r3, [sp, #72]	; 0x48
 8006fd4:	fa4f fc82 	sxtb.w	ip, r2
 8006fd8:	089b      	lsrs	r3, r3, #2
 8006fda:	f1bc 0f00 	cmp.w	ip, #0
 8006fde:	4683      	mov	fp, r0
 8006fe0:	468a      	mov	sl, r1
 8006fe2:	9306      	str	r3, [sp, #24]
 8006fe4:	da48      	bge.n	8007078 <arm_scale_q31+0xb0>
 8006fe6:	b39b      	cbz	r3, 8007050 <arm_scale_q31+0x88>
 8006fe8:	9b05      	ldr	r3, [sp, #20]
 8006fea:	f8dd e018 	ldr.w	lr, [sp, #24]
 8006fee:	f1cc 0100 	rsb	r1, ip, #0
 8006ff2:	f100 0210 	add.w	r2, r0, #16
 8006ff6:	3310      	adds	r3, #16
 8006ff8:	f852 6c10 	ldr.w	r6, [r2, #-16]
 8006ffc:	f852 5c0c 	ldr.w	r5, [r2, #-12]
 8007000:	fb86 670a 	smull	r6, r7, r6, sl
 8007004:	f852 0c04 	ldr.w	r0, [r2, #-4]
 8007008:	f852 4c08 	ldr.w	r4, [r2, #-8]
 800700c:	fb85 890a 	smull	r8, r9, r5, sl
 8007010:	fb84 450a 	smull	r4, r5, r4, sl
 8007014:	fa47 f401 	asr.w	r4, r7, r1
 8007018:	fb80 670a 	smull	r6, r7, r0, sl
 800701c:	410d      	asrs	r5, r1
 800701e:	fa49 f601 	asr.w	r6, r9, r1
 8007022:	fa47 f001 	asr.w	r0, r7, r1
 8007026:	f1be 0e01 	subs.w	lr, lr, #1
 800702a:	f843 4c10 	str.w	r4, [r3, #-16]
 800702e:	f843 6c0c 	str.w	r6, [r3, #-12]
 8007032:	f843 5c08 	str.w	r5, [r3, #-8]
 8007036:	f843 0c04 	str.w	r0, [r3, #-4]
 800703a:	f102 0210 	add.w	r2, r2, #16
 800703e:	f103 0310 	add.w	r3, r3, #16
 8007042:	d1d9      	bne.n	8006ff8 <arm_scale_q31+0x30>
 8007044:	9b06      	ldr	r3, [sp, #24]
 8007046:	9a05      	ldr	r2, [sp, #20]
 8007048:	011b      	lsls	r3, r3, #4
 800704a:	441a      	add	r2, r3
 800704c:	449b      	add	fp, r3
 800704e:	9205      	str	r2, [sp, #20]
 8007050:	9b12      	ldr	r3, [sp, #72]	; 0x48
 8007052:	f013 0103 	ands.w	r1, r3, #3
 8007056:	d00c      	beq.n	8007072 <arm_scale_q31+0xaa>
 8007058:	9805      	ldr	r0, [sp, #20]
 800705a:	f1cc 0c00 	rsb	ip, ip, #0
 800705e:	f85b 2b04 	ldr.w	r2, [fp], #4
 8007062:	3901      	subs	r1, #1
 8007064:	fb82 230a 	smull	r2, r3, r2, sl
 8007068:	fa43 f30c 	asr.w	r3, r3, ip
 800706c:	f840 3b04 	str.w	r3, [r0], #4
 8007070:	d1f5      	bne.n	800705e <arm_scale_q31+0x96>
 8007072:	b009      	add	sp, #36	; 0x24
 8007074:	e8bd 8ff0 	ldmia.w	sp!, {r4, r5, r6, r7, r8, r9, sl, fp, pc}
 8007078:	2b00      	cmp	r3, #0
 800707a:	d060      	beq.n	800713e <arm_scale_q31+0x176>
 800707c:	9304      	str	r3, [sp, #16]
 800707e:	9b05      	ldr	r3, [sp, #20]
 8007080:	f100 0210 	add.w	r2, r0, #16
 8007084:	f103 0910 	add.w	r9, r3, #16
 8007088:	9201      	str	r2, [sp, #4]
 800708a:	9007      	str	r0, [sp, #28]
 800708c:	9b01      	ldr	r3, [sp, #4]
 800708e:	f853 6c10 	ldr.w	r6, [r3, #-16]
 8007092:	f853 4c0c 	ldr.w	r4, [r3, #-12]
 8007096:	fb86 670a 	smull	r6, r7, r6, sl
 800709a:	f853 0c08 	ldr.w	r0, [r3, #-8]
 800709e:	fb84 450a 	smull	r4, r5, r4, sl
 80070a2:	f853 3c04 	ldr.w	r3, [r3, #-4]
 80070a6:	fb80 010a 	smull	r0, r1, r0, sl
 80070aa:	17fe      	asrs	r6, r7, #31
 80070ac:	fb83 230a 	smull	r2, r3, r3, sl
 80070b0:	f086 4e00 	eor.w	lr, r6, #2147483648	; 0x80000000
 80070b4:	ea6f 0e0e 	mvn.w	lr, lr
 80070b8:	17ec      	asrs	r4, r5, #31
 80070ba:	17c8      	asrs	r0, r1, #31
 80070bc:	f084 4400 	eor.w	r4, r4, #2147483648	; 0x80000000
 80070c0:	43e4      	mvns	r4, r4
 80070c2:	f080 4000 	eor.w	r0, r0, #2147483648	; 0x80000000
 80070c6:	e9cd 2302 	strd	r2, r3, [sp, #8]
 80070ca:	43c0      	mvns	r0, r0
 80070cc:	17db      	asrs	r3, r3, #31
 80070ce:	f083 4300 	eor.w	r3, r3, #2147483648	; 0x80000000
 80070d2:	43db      	mvns	r3, r3
 80070d4:	fa07 f60c 	lsl.w	r6, r7, ip
 80070d8:	fa46 f80c 	asr.w	r8, r6, ip
 80070dc:	45b8      	cmp	r8, r7
 80070de:	bf18      	it	ne
 80070e0:	4676      	movne	r6, lr
 80070e2:	fa05 f80c 	lsl.w	r8, r5, ip
 80070e6:	fa01 fe0c 	lsl.w	lr, r1, ip
 80070ea:	9f03      	ldr	r7, [sp, #12]
 80070ec:	fa48 fb0c 	asr.w	fp, r8, ip
 80070f0:	45ab      	cmp	fp, r5
 80070f2:	bf08      	it	eq
 80070f4:	4644      	moveq	r4, r8
 80070f6:	fa4e f50c 	asr.w	r5, lr, ip
 80070fa:	428d      	cmp	r5, r1
 80070fc:	bf08      	it	eq
 80070fe:	4670      	moveq	r0, lr
 8007100:	fa07 f70c 	lsl.w	r7, r7, ip
 8007104:	9d03      	ldr	r5, [sp, #12]
 8007106:	fa47 f10c 	asr.w	r1, r7, ip
 800710a:	42a9      	cmp	r1, r5
 800710c:	bf08      	it	eq
 800710e:	463b      	moveq	r3, r7
 8007110:	9a01      	ldr	r2, [sp, #4]
 8007112:	e909 0009 	stmdb	r9, {r0, r3}
 8007116:	9b04      	ldr	r3, [sp, #16]
 8007118:	3210      	adds	r2, #16
 800711a:	3b01      	subs	r3, #1
 800711c:	f849 6c10 	str.w	r6, [r9, #-16]
 8007120:	f849 4c0c 	str.w	r4, [r9, #-12]
 8007124:	9201      	str	r2, [sp, #4]
 8007126:	f109 0910 	add.w	r9, r9, #16
 800712a:	9304      	str	r3, [sp, #16]
 800712c:	d1ae      	bne.n	800708c <arm_scale_q31+0xc4>
 800712e:	9b06      	ldr	r3, [sp, #24]
 8007130:	9a05      	ldr	r2, [sp, #20]
 8007132:	011b      	lsls	r3, r3, #4
 8007134:	f8dd b01c 	ldr.w	fp, [sp, #28]
 8007138:	441a      	add	r2, r3
 800713a:	449b      	add	fp, r3
 800713c:	9205      	str	r2, [sp, #20]
 800713e:	9b12      	ldr	r3, [sp, #72]	; 0x48
 8007140:	f013 0003 	ands.w	r0, r3, #3
 8007144:	d095      	beq.n	8007072 <arm_scale_q31+0xaa>
 8007146:	9905      	ldr	r1, [sp, #20]
 8007148:	f85b 4b04 	ldr.w	r4, [fp], #4
 800714c:	fb84 450a 	smull	r4, r5, r4, sl
 8007150:	17eb      	asrs	r3, r5, #31
 8007152:	f083 4300 	eor.w	r3, r3, #2147483648	; 0x80000000
 8007156:	43db      	mvns	r3, r3
 8007158:	fa05 f20c 	lsl.w	r2, r5, ip
 800715c:	fa42 f40c 	asr.w	r4, r2, ip
 8007160:	42ac      	cmp	r4, r5
 8007162:	bf08      	it	eq
 8007164:	4613      	moveq	r3, r2
 8007166:	3801      	subs	r0, #1
 8007168:	f841 3b04 	str.w	r3, [r1], #4
 800716c:	d1ec      	bne.n	8007148 <arm_scale_q31+0x180>
 800716e:	b009      	add	sp, #36	; 0x24
 8007170:	e8bd 8ff0 	ldmia.w	sp!, {r4, r5, r6, r7, r8, r9, sl, fp, pc}

08007174 <arm_mult_q31>:
 8007174:	e92d 4ff0 	stmdb	sp!, {r4, r5, r6, r7, r8, r9, sl, fp, lr}
 8007178:	ea5f 0b93 	movs.w	fp, r3, lsr #2
 800717c:	b083      	sub	sp, #12
 800717e:	469a      	mov	sl, r3
 8007180:	d04a      	beq.n	8007218 <arm_mult_q31+0xa4>
 8007182:	46dc      	mov	ip, fp
 8007184:	f8cd b004 	str.w	fp, [sp, #4]
 8007188:	468e      	mov	lr, r1
 800718a:	4683      	mov	fp, r0
 800718c:	f100 0510 	add.w	r5, r0, #16
 8007190:	f101 0410 	add.w	r4, r1, #16
 8007194:	f102 0310 	add.w	r3, r2, #16
 8007198:	f855 0c10 	ldr.w	r0, [r5, #-16]
 800719c:	f854 1c10 	ldr.w	r1, [r4, #-16]
 80071a0:	f855 7c0c 	ldr.w	r7, [r5, #-12]
 80071a4:	fb80 0101 	smull	r0, r1, r0, r1
 80071a8:	f301 011e 	ssat	r1, #31, r1
 80071ac:	f854 0c0c 	ldr.w	r0, [r4, #-12]
 80071b0:	f854 6c04 	ldr.w	r6, [r4, #-4]
 80071b4:	fb87 8900 	smull	r8, r9, r7, r0
 80071b8:	f309 071e 	ssat	r7, #31, r9
 80071bc:	f855 0c08 	ldr.w	r0, [r5, #-8]
 80071c0:	0049      	lsls	r1, r1, #1
 80071c2:	4680      	mov	r8, r0
 80071c4:	f854 0c08 	ldr.w	r0, [r4, #-8]
 80071c8:	f1bc 0c01 	subs.w	ip, ip, #1
 80071cc:	fb88 8900 	smull	r8, r9, r8, r0
 80071d0:	f309 001e 	ssat	r0, #31, r9
 80071d4:	ea4f 0847 	mov.w	r8, r7, lsl #1
 80071d8:	f855 7c04 	ldr.w	r7, [r5, #-4]
 80071dc:	ea4f 0040 	mov.w	r0, r0, lsl #1
 80071e0:	fb87 6706 	smull	r6, r7, r7, r6
 80071e4:	f307 061e 	ssat	r6, #31, r7
 80071e8:	ea4f 0646 	mov.w	r6, r6, lsl #1
 80071ec:	f843 1c10 	str.w	r1, [r3, #-16]
 80071f0:	f843 8c0c 	str.w	r8, [r3, #-12]
 80071f4:	e903 0041 	stmdb	r3, {r0, r6}
 80071f8:	f105 0510 	add.w	r5, r5, #16
 80071fc:	f104 0410 	add.w	r4, r4, #16
 8007200:	f103 0310 	add.w	r3, r3, #16
 8007204:	d1c8      	bne.n	8007198 <arm_mult_q31+0x24>
 8007206:	4658      	mov	r0, fp
 8007208:	4671      	mov	r1, lr
 800720a:	f8dd b004 	ldr.w	fp, [sp, #4]
 800720e:	ea4f 1b0b 	mov.w	fp, fp, lsl #4
 8007212:	4458      	add	r0, fp
 8007214:	4459      	add	r1, fp
 8007216:	445a      	add	r2, fp
 8007218:	f01a 0a03 	ands.w	sl, sl, #3
 800721c:	d00e      	beq.n	800723c <arm_mult_q31+0xc8>
 800721e:	f850 3b04 	ldr.w	r3, [r0], #4
 8007222:	f851 4b04 	ldr.w	r4, [r1], #4
 8007226:	f1ba 0a01 	subs.w	sl, sl, #1
 800722a:	fb83 4504 	smull	r4, r5, r3, r4
 800722e:	f305 031e 	ssat	r3, #31, r5
 8007232:	ea4f 0343 	mov.w	r3, r3, lsl #1
 8007236:	f842 3b04 	str.w	r3, [r2], #4
 800723a:	d1f0      	bne.n	800721e <arm_mult_q31+0xaa>
 800723c:	b003      	add	sp, #12
 800723e:	e8bd 8ff0 	ldmia.w	sp!, {r4, r5, r6, r7, r8, r9, sl, fp, pc}
 8007242:	bf00      	nop

08007244 <__errno>:
 8007244:	4b01      	ldr	r3, [pc, #4]	; (800724c <__errno+0x8>)
 8007246:	6818      	ldr	r0, [r3, #0]
 8007248:	4770      	bx	lr
 800724a:	bf00      	nop
 800724c:	20000158 	.word	0x20000158

08007250 <__libc_init_array>:
 8007250:	b570      	push	{r4, r5, r6, lr}
 8007252:	2600      	movs	r6, #0
 8007254:	4d0c      	ldr	r5, [pc, #48]	; (8007288 <__libc_init_array+0x38>)
 8007256:	4c0d      	ldr	r4, [pc, #52]	; (800728c <__libc_init_array+0x3c>)
 8007258:	1b64      	subs	r4, r4, r5
 800725a:	10a4      	asrs	r4, r4, #2
 800725c:	42a6      	cmp	r6, r4
 800725e:	d109      	bne.n	8007274 <__libc_init_array+0x24>
 8007260:	f001 fab2 	bl	80087c8 <_init>
 8007264:	2600      	movs	r6, #0
 8007266:	4d0a      	ldr	r5, [pc, #40]	; (8007290 <__libc_init_array+0x40>)
 8007268:	4c0a      	ldr	r4, [pc, #40]	; (8007294 <__libc_init_array+0x44>)
 800726a:	1b64      	subs	r4, r4, r5
 800726c:	10a4      	asrs	r4, r4, #2
 800726e:	42a6      	cmp	r6, r4
 8007270:	d105      	bne.n	800727e <__libc_init_array+0x2e>
 8007272:	bd70      	pop	{r4, r5, r6, pc}
 8007274:	f855 3b04 	ldr.w	r3, [r5], #4
 8007278:	4798      	blx	r3
 800727a:	3601      	adds	r6, #1
 800727c:	e7ee      	b.n	800725c <__libc_init_array+0xc>
 800727e:	f855 3b04 	ldr.w	r3, [r5], #4
 8007282:	4798      	blx	r3
 8007284:	3601      	adds	r6, #1
 8007286:	e7f2      	b.n	800726e <__libc_init_array+0x1e>
 8007288:	08008d08 	.word	0x08008d08
 800728c:	08008d08 	.word	0x08008d08
 8007290:	08008d08 	.word	0x08008d08
 8007294:	08008d0c 	.word	0x08008d0c

08007298 <malloc>:
 8007298:	4b02      	ldr	r3, [pc, #8]	; (80072a4 <malloc+0xc>)
 800729a:	4601      	mov	r1, r0
 800729c:	6818      	ldr	r0, [r3, #0]
 800729e:	f000 b873 	b.w	8007388 <_malloc_r>
 80072a2:	bf00      	nop
 80072a4:	20000158 	.word	0x20000158

080072a8 <memset>:
 80072a8:	4603      	mov	r3, r0
 80072aa:	4402      	add	r2, r0
 80072ac:	4293      	cmp	r3, r2
 80072ae:	d100      	bne.n	80072b2 <memset+0xa>
 80072b0:	4770      	bx	lr
 80072b2:	f803 1b01 	strb.w	r1, [r3], #1
 80072b6:	e7f9      	b.n	80072ac <memset+0x4>

080072b8 <_free_r>:
 80072b8:	b538      	push	{r3, r4, r5, lr}
 80072ba:	4605      	mov	r5, r0
 80072bc:	2900      	cmp	r1, #0
 80072be:	d040      	beq.n	8007342 <_free_r+0x8a>
 80072c0:	f851 3c04 	ldr.w	r3, [r1, #-4]
 80072c4:	1f0c      	subs	r4, r1, #4
 80072c6:	2b00      	cmp	r3, #0
 80072c8:	bfb8      	it	lt
 80072ca:	18e4      	addlt	r4, r4, r3
 80072cc:	f000 f9e4 	bl	8007698 <__malloc_lock>
 80072d0:	4a1c      	ldr	r2, [pc, #112]	; (8007344 <_free_r+0x8c>)
 80072d2:	6813      	ldr	r3, [r2, #0]
 80072d4:	b933      	cbnz	r3, 80072e4 <_free_r+0x2c>
 80072d6:	6063      	str	r3, [r4, #4]
 80072d8:	6014      	str	r4, [r2, #0]
 80072da:	4628      	mov	r0, r5
 80072dc:	e8bd 4038 	ldmia.w	sp!, {r3, r4, r5, lr}
 80072e0:	f000 b9e0 	b.w	80076a4 <__malloc_unlock>
 80072e4:	42a3      	cmp	r3, r4
 80072e6:	d908      	bls.n	80072fa <_free_r+0x42>
 80072e8:	6820      	ldr	r0, [r4, #0]
 80072ea:	1821      	adds	r1, r4, r0
 80072ec:	428b      	cmp	r3, r1
 80072ee:	bf01      	itttt	eq
 80072f0:	6819      	ldreq	r1, [r3, #0]
 80072f2:	685b      	ldreq	r3, [r3, #4]
 80072f4:	1809      	addeq	r1, r1, r0
 80072f6:	6021      	streq	r1, [r4, #0]
 80072f8:	e7ed      	b.n	80072d6 <_free_r+0x1e>
 80072fa:	461a      	mov	r2, r3
 80072fc:	685b      	ldr	r3, [r3, #4]
 80072fe:	b10b      	cbz	r3, 8007304 <_free_r+0x4c>
 8007300:	42a3      	cmp	r3, r4
 8007302:	d9fa      	bls.n	80072fa <_free_r+0x42>
 8007304:	6811      	ldr	r1, [r2, #0]
 8007306:	1850      	adds	r0, r2, r1
 8007308:	42a0      	cmp	r0, r4
 800730a:	d10b      	bne.n	8007324 <_free_r+0x6c>
 800730c:	6820      	ldr	r0, [r4, #0]
 800730e:	4401      	add	r1, r0
 8007310:	1850      	adds	r0, r2, r1
 8007312:	4283      	cmp	r3, r0
 8007314:	6011      	str	r1, [r2, #0]
 8007316:	d1e0      	bne.n	80072da <_free_r+0x22>
 8007318:	6818      	ldr	r0, [r3, #0]
 800731a:	685b      	ldr	r3, [r3, #4]
 800731c:	4401      	add	r1, r0
 800731e:	6011      	str	r1, [r2, #0]
 8007320:	6053      	str	r3, [r2, #4]
 8007322:	e7da      	b.n	80072da <_free_r+0x22>
 8007324:	d902      	bls.n	800732c <_free_r+0x74>
 8007326:	230c      	movs	r3, #12
 8007328:	602b      	str	r3, [r5, #0]
 800732a:	e7d6      	b.n	80072da <_free_r+0x22>
 800732c:	6820      	ldr	r0, [r4, #0]
 800732e:	1821      	adds	r1, r4, r0
 8007330:	428b      	cmp	r3, r1
 8007332:	bf01      	itttt	eq
 8007334:	6819      	ldreq	r1, [r3, #0]
 8007336:	685b      	ldreq	r3, [r3, #4]
 8007338:	1809      	addeq	r1, r1, r0
 800733a:	6021      	streq	r1, [r4, #0]
 800733c:	6063      	str	r3, [r4, #4]
 800733e:	6054      	str	r4, [r2, #4]
 8007340:	e7cb      	b.n	80072da <_free_r+0x22>
 8007342:	bd38      	pop	{r3, r4, r5, pc}
 8007344:	200028bc 	.word	0x200028bc

08007348 <sbrk_aligned>:
 8007348:	b570      	push	{r4, r5, r6, lr}
 800734a:	4e0e      	ldr	r6, [pc, #56]	; (8007384 <sbrk_aligned+0x3c>)
 800734c:	460c      	mov	r4, r1
 800734e:	6831      	ldr	r1, [r6, #0]
 8007350:	4605      	mov	r5, r0
 8007352:	b911      	cbnz	r1, 800735a <sbrk_aligned+0x12>
 8007354:	f000 f8ca 	bl	80074ec <_sbrk_r>
 8007358:	6030      	str	r0, [r6, #0]
 800735a:	4621      	mov	r1, r4
 800735c:	4628      	mov	r0, r5
 800735e:	f000 f8c5 	bl	80074ec <_sbrk_r>
 8007362:	1c43      	adds	r3, r0, #1
 8007364:	d00a      	beq.n	800737c <sbrk_aligned+0x34>
 8007366:	1cc4      	adds	r4, r0, #3
 8007368:	f024 0403 	bic.w	r4, r4, #3
 800736c:	42a0      	cmp	r0, r4
 800736e:	d007      	beq.n	8007380 <sbrk_aligned+0x38>
 8007370:	1a21      	subs	r1, r4, r0
 8007372:	4628      	mov	r0, r5
 8007374:	f000 f8ba 	bl	80074ec <_sbrk_r>
 8007378:	3001      	adds	r0, #1
 800737a:	d101      	bne.n	8007380 <sbrk_aligned+0x38>
 800737c:	f04f 34ff 	mov.w	r4, #4294967295
 8007380:	4620      	mov	r0, r4
 8007382:	bd70      	pop	{r4, r5, r6, pc}
 8007384:	200028c0 	.word	0x200028c0

08007388 <_malloc_r>:
 8007388:	e92d 41f0 	stmdb	sp!, {r4, r5, r6, r7, r8, lr}
 800738c:	1ccd      	adds	r5, r1, #3
 800738e:	f025 0503 	bic.w	r5, r5, #3
 8007392:	3508      	adds	r5, #8
 8007394:	2d0c      	cmp	r5, #12
 8007396:	bf38      	it	cc
 8007398:	250c      	movcc	r5, #12
 800739a:	2d00      	cmp	r5, #0
 800739c:	4607      	mov	r7, r0
 800739e:	db01      	blt.n	80073a4 <_malloc_r+0x1c>
 80073a0:	42a9      	cmp	r1, r5
 80073a2:	d905      	bls.n	80073b0 <_malloc_r+0x28>
 80073a4:	230c      	movs	r3, #12
 80073a6:	2600      	movs	r6, #0
 80073a8:	603b      	str	r3, [r7, #0]
 80073aa:	4630      	mov	r0, r6
 80073ac:	e8bd 81f0 	ldmia.w	sp!, {r4, r5, r6, r7, r8, pc}
 80073b0:	4e2e      	ldr	r6, [pc, #184]	; (800746c <_malloc_r+0xe4>)
 80073b2:	f000 f971 	bl	8007698 <__malloc_lock>
 80073b6:	6833      	ldr	r3, [r6, #0]
 80073b8:	461c      	mov	r4, r3
 80073ba:	bb34      	cbnz	r4, 800740a <_malloc_r+0x82>
 80073bc:	4629      	mov	r1, r5
 80073be:	4638      	mov	r0, r7
 80073c0:	f7ff ffc2 	bl	8007348 <sbrk_aligned>
 80073c4:	1c43      	adds	r3, r0, #1
 80073c6:	4604      	mov	r4, r0
 80073c8:	d14d      	bne.n	8007466 <_malloc_r+0xde>
 80073ca:	6834      	ldr	r4, [r6, #0]
 80073cc:	4626      	mov	r6, r4
 80073ce:	2e00      	cmp	r6, #0
 80073d0:	d140      	bne.n	8007454 <_malloc_r+0xcc>
 80073d2:	6823      	ldr	r3, [r4, #0]
 80073d4:	4631      	mov	r1, r6
 80073d6:	4638      	mov	r0, r7
 80073d8:	eb04 0803 	add.w	r8, r4, r3
 80073dc:	f000 f886 	bl	80074ec <_sbrk_r>
 80073e0:	4580      	cmp	r8, r0
 80073e2:	d13a      	bne.n	800745a <_malloc_r+0xd2>
 80073e4:	6821      	ldr	r1, [r4, #0]
 80073e6:	3503      	adds	r5, #3
 80073e8:	1a6d      	subs	r5, r5, r1
 80073ea:	f025 0503 	bic.w	r5, r5, #3
 80073ee:	3508      	adds	r5, #8
 80073f0:	2d0c      	cmp	r5, #12
 80073f2:	bf38      	it	cc
 80073f4:	250c      	movcc	r5, #12
 80073f6:	4638      	mov	r0, r7
 80073f8:	4629      	mov	r1, r5
 80073fa:	f7ff ffa5 	bl	8007348 <sbrk_aligned>
 80073fe:	3001      	adds	r0, #1
 8007400:	d02b      	beq.n	800745a <_malloc_r+0xd2>
 8007402:	6823      	ldr	r3, [r4, #0]
 8007404:	442b      	add	r3, r5
 8007406:	6023      	str	r3, [r4, #0]
 8007408:	e00e      	b.n	8007428 <_malloc_r+0xa0>
 800740a:	6822      	ldr	r2, [r4, #0]
 800740c:	1b52      	subs	r2, r2, r5
 800740e:	d41e      	bmi.n	800744e <_malloc_r+0xc6>
 8007410:	2a0b      	cmp	r2, #11
 8007412:	d916      	bls.n	8007442 <_malloc_r+0xba>
 8007414:	1961      	adds	r1, r4, r5
 8007416:	42a3      	cmp	r3, r4
 8007418:	6025      	str	r5, [r4, #0]
 800741a:	bf18      	it	ne
 800741c:	6059      	strne	r1, [r3, #4]
 800741e:	6863      	ldr	r3, [r4, #4]
 8007420:	bf08      	it	eq
 8007422:	6031      	streq	r1, [r6, #0]
 8007424:	5162      	str	r2, [r4, r5]
 8007426:	604b      	str	r3, [r1, #4]
 8007428:	4638      	mov	r0, r7
 800742a:	f104 060b 	add.w	r6, r4, #11
 800742e:	f000 f939 	bl	80076a4 <__malloc_unlock>
 8007432:	f026 0607 	bic.w	r6, r6, #7
 8007436:	1d23      	adds	r3, r4, #4
 8007438:	1af2      	subs	r2, r6, r3
 800743a:	d0b6      	beq.n	80073aa <_malloc_r+0x22>
 800743c:	1b9b      	subs	r3, r3, r6
 800743e:	50a3      	str	r3, [r4, r2]
 8007440:	e7b3      	b.n	80073aa <_malloc_r+0x22>
 8007442:	6862      	ldr	r2, [r4, #4]
 8007444:	42a3      	cmp	r3, r4
 8007446:	bf0c      	ite	eq
 8007448:	6032      	streq	r2, [r6, #0]
 800744a:	605a      	strne	r2, [r3, #4]
 800744c:	e7ec      	b.n	8007428 <_malloc_r+0xa0>
 800744e:	4623      	mov	r3, r4
 8007450:	6864      	ldr	r4, [r4, #4]
 8007452:	e7b2      	b.n	80073ba <_malloc_r+0x32>
 8007454:	4634      	mov	r4, r6
 8007456:	6876      	ldr	r6, [r6, #4]
 8007458:	e7b9      	b.n	80073ce <_malloc_r+0x46>
 800745a:	230c      	movs	r3, #12
 800745c:	4638      	mov	r0, r7
 800745e:	603b      	str	r3, [r7, #0]
 8007460:	f000 f920 	bl	80076a4 <__malloc_unlock>
 8007464:	e7a1      	b.n	80073aa <_malloc_r+0x22>
 8007466:	6025      	str	r5, [r4, #0]
 8007468:	e7de      	b.n	8007428 <_malloc_r+0xa0>
 800746a:	bf00      	nop
 800746c:	200028bc 	.word	0x200028bc

08007470 <rand>:
 8007470:	4b16      	ldr	r3, [pc, #88]	; (80074cc <rand+0x5c>)
 8007472:	b510      	push	{r4, lr}
 8007474:	681c      	ldr	r4, [r3, #0]
 8007476:	6ba3      	ldr	r3, [r4, #56]	; 0x38
 8007478:	b9b3      	cbnz	r3, 80074a8 <rand+0x38>
 800747a:	2018      	movs	r0, #24
 800747c:	f7ff ff0c 	bl	8007298 <malloc>
 8007480:	4602      	mov	r2, r0
 8007482:	63a0      	str	r0, [r4, #56]	; 0x38
 8007484:	b920      	cbnz	r0, 8007490 <rand+0x20>
 8007486:	214e      	movs	r1, #78	; 0x4e
 8007488:	4b11      	ldr	r3, [pc, #68]	; (80074d0 <rand+0x60>)
 800748a:	4812      	ldr	r0, [pc, #72]	; (80074d4 <rand+0x64>)
 800748c:	f000 f8d4 	bl	8007638 <__assert_func>
 8007490:	4911      	ldr	r1, [pc, #68]	; (80074d8 <rand+0x68>)
 8007492:	4b12      	ldr	r3, [pc, #72]	; (80074dc <rand+0x6c>)
 8007494:	e9c0 1300 	strd	r1, r3, [r0]
 8007498:	4b11      	ldr	r3, [pc, #68]	; (80074e0 <rand+0x70>)
 800749a:	2100      	movs	r1, #0
 800749c:	6083      	str	r3, [r0, #8]
 800749e:	230b      	movs	r3, #11
 80074a0:	8183      	strh	r3, [r0, #12]
 80074a2:	2001      	movs	r0, #1
 80074a4:	e9c2 0104 	strd	r0, r1, [r2, #16]
 80074a8:	6ba4      	ldr	r4, [r4, #56]	; 0x38
 80074aa:	4a0e      	ldr	r2, [pc, #56]	; (80074e4 <rand+0x74>)
 80074ac:	6920      	ldr	r0, [r4, #16]
 80074ae:	6963      	ldr	r3, [r4, #20]
 80074b0:	4342      	muls	r2, r0
 80074b2:	490d      	ldr	r1, [pc, #52]	; (80074e8 <rand+0x78>)
 80074b4:	fb01 2203 	mla	r2, r1, r3, r2
 80074b8:	fba0 0101 	umull	r0, r1, r0, r1
 80074bc:	1c43      	adds	r3, r0, #1
 80074be:	eb42 0001 	adc.w	r0, r2, r1
 80074c2:	e9c4 3004 	strd	r3, r0, [r4, #16]
 80074c6:	f020 4000 	bic.w	r0, r0, #2147483648	; 0x80000000
 80074ca:	bd10      	pop	{r4, pc}
 80074cc:	20000158 	.word	0x20000158
 80074d0:	08008bc4 	.word	0x08008bc4
 80074d4:	08008bdb 	.word	0x08008bdb
 80074d8:	abcd330e 	.word	0xabcd330e
 80074dc:	e66d1234 	.word	0xe66d1234
 80074e0:	0005deec 	.word	0x0005deec
 80074e4:	5851f42d 	.word	0x5851f42d
 80074e8:	4c957f2d 	.word	0x4c957f2d

080074ec <_sbrk_r>:
 80074ec:	b538      	push	{r3, r4, r5, lr}
 80074ee:	2300      	movs	r3, #0
 80074f0:	4d05      	ldr	r5, [pc, #20]	; (8007508 <_sbrk_r+0x1c>)
 80074f2:	4604      	mov	r4, r0
 80074f4:	4608      	mov	r0, r1
 80074f6:	602b      	str	r3, [r5, #0]
 80074f8:	f7fa f9a6 	bl	8001848 <_sbrk>
 80074fc:	1c43      	adds	r3, r0, #1
 80074fe:	d102      	bne.n	8007506 <_sbrk_r+0x1a>
 8007500:	682b      	ldr	r3, [r5, #0]
 8007502:	b103      	cbz	r3, 8007506 <_sbrk_r+0x1a>
 8007504:	6023      	str	r3, [r4, #0]
 8007506:	bd38      	pop	{r3, r4, r5, pc}
 8007508:	200028c4 	.word	0x200028c4

0800750c <sniprintf>:
 800750c:	b40c      	push	{r2, r3}
 800750e:	b530      	push	{r4, r5, lr}
 8007510:	4b17      	ldr	r3, [pc, #92]	; (8007570 <sniprintf+0x64>)
 8007512:	1e0c      	subs	r4, r1, #0
 8007514:	681d      	ldr	r5, [r3, #0]
 8007516:	b09d      	sub	sp, #116	; 0x74
 8007518:	da08      	bge.n	800752c <sniprintf+0x20>
 800751a:	238b      	movs	r3, #139	; 0x8b
 800751c:	f04f 30ff 	mov.w	r0, #4294967295
 8007520:	602b      	str	r3, [r5, #0]
 8007522:	b01d      	add	sp, #116	; 0x74
 8007524:	e8bd 4030 	ldmia.w	sp!, {r4, r5, lr}
 8007528:	b002      	add	sp, #8
 800752a:	4770      	bx	lr
 800752c:	f44f 7302 	mov.w	r3, #520	; 0x208
 8007530:	f8ad 3014 	strh.w	r3, [sp, #20]
 8007534:	bf0c      	ite	eq
 8007536:	4623      	moveq	r3, r4
 8007538:	f104 33ff 	addne.w	r3, r4, #4294967295
 800753c:	9304      	str	r3, [sp, #16]
 800753e:	9307      	str	r3, [sp, #28]
 8007540:	f64f 73ff 	movw	r3, #65535	; 0xffff
 8007544:	9002      	str	r0, [sp, #8]
 8007546:	9006      	str	r0, [sp, #24]
 8007548:	f8ad 3016 	strh.w	r3, [sp, #22]
 800754c:	4628      	mov	r0, r5
 800754e:	ab21      	add	r3, sp, #132	; 0x84
 8007550:	9a20      	ldr	r2, [sp, #128]	; 0x80
 8007552:	a902      	add	r1, sp, #8
 8007554:	9301      	str	r3, [sp, #4]
 8007556:	f000 f907 	bl	8007768 <_svfiprintf_r>
 800755a:	1c43      	adds	r3, r0, #1
 800755c:	bfbc      	itt	lt
 800755e:	238b      	movlt	r3, #139	; 0x8b
 8007560:	602b      	strlt	r3, [r5, #0]
 8007562:	2c00      	cmp	r4, #0
 8007564:	d0dd      	beq.n	8007522 <sniprintf+0x16>
 8007566:	2200      	movs	r2, #0
 8007568:	9b02      	ldr	r3, [sp, #8]
 800756a:	701a      	strb	r2, [r3, #0]
 800756c:	e7d9      	b.n	8007522 <sniprintf+0x16>
 800756e:	bf00      	nop
 8007570:	20000158 	.word	0x20000158

08007574 <siprintf>:
 8007574:	b40e      	push	{r1, r2, r3}
 8007576:	f06f 4100 	mvn.w	r1, #2147483648	; 0x80000000
 800757a:	b500      	push	{lr}
 800757c:	b09c      	sub	sp, #112	; 0x70
 800757e:	ab1d      	add	r3, sp, #116	; 0x74
 8007580:	9002      	str	r0, [sp, #8]
 8007582:	9006      	str	r0, [sp, #24]
 8007584:	9107      	str	r1, [sp, #28]
 8007586:	9104      	str	r1, [sp, #16]
 8007588:	4808      	ldr	r0, [pc, #32]	; (80075ac <siprintf+0x38>)
 800758a:	4909      	ldr	r1, [pc, #36]	; (80075b0 <siprintf+0x3c>)
 800758c:	f853 2b04 	ldr.w	r2, [r3], #4
 8007590:	9105      	str	r1, [sp, #20]
 8007592:	6800      	ldr	r0, [r0, #0]
 8007594:	a902      	add	r1, sp, #8
 8007596:	9301      	str	r3, [sp, #4]
 8007598:	f000 f8e6 	bl	8007768 <_svfiprintf_r>
 800759c:	2200      	movs	r2, #0
 800759e:	9b02      	ldr	r3, [sp, #8]
 80075a0:	701a      	strb	r2, [r3, #0]
 80075a2:	b01c      	add	sp, #112	; 0x70
 80075a4:	f85d eb04 	ldr.w	lr, [sp], #4
 80075a8:	b003      	add	sp, #12
 80075aa:	4770      	bx	lr
 80075ac:	20000158 	.word	0x20000158
 80075b0:	ffff0208 	.word	0xffff0208

080075b4 <stpcpy>:
 80075b4:	4603      	mov	r3, r0
 80075b6:	f811 2b01 	ldrb.w	r2, [r1], #1
 80075ba:	4618      	mov	r0, r3
 80075bc:	f803 2b01 	strb.w	r2, [r3], #1
 80075c0:	2a00      	cmp	r2, #0
 80075c2:	d1f8      	bne.n	80075b6 <stpcpy+0x2>
 80075c4:	4770      	bx	lr

080075c6 <_vsniprintf_r>:
 80075c6:	b530      	push	{r4, r5, lr}
 80075c8:	4614      	mov	r4, r2
 80075ca:	2c00      	cmp	r4, #0
 80075cc:	4605      	mov	r5, r0
 80075ce:	461a      	mov	r2, r3
 80075d0:	b09b      	sub	sp, #108	; 0x6c
 80075d2:	da05      	bge.n	80075e0 <_vsniprintf_r+0x1a>
 80075d4:	238b      	movs	r3, #139	; 0x8b
 80075d6:	6003      	str	r3, [r0, #0]
 80075d8:	f04f 30ff 	mov.w	r0, #4294967295
 80075dc:	b01b      	add	sp, #108	; 0x6c
 80075de:	bd30      	pop	{r4, r5, pc}
 80075e0:	f44f 7302 	mov.w	r3, #520	; 0x208
 80075e4:	f8ad 300c 	strh.w	r3, [sp, #12]
 80075e8:	bf0c      	ite	eq
 80075ea:	4623      	moveq	r3, r4
 80075ec:	f104 33ff 	addne.w	r3, r4, #4294967295
 80075f0:	9302      	str	r3, [sp, #8]
 80075f2:	9305      	str	r3, [sp, #20]
 80075f4:	f64f 73ff 	movw	r3, #65535	; 0xffff
 80075f8:	9100      	str	r1, [sp, #0]
 80075fa:	9104      	str	r1, [sp, #16]
 80075fc:	f8ad 300e 	strh.w	r3, [sp, #14]
 8007600:	4669      	mov	r1, sp
 8007602:	9b1e      	ldr	r3, [sp, #120]	; 0x78
 8007604:	f000 f8b0 	bl	8007768 <_svfiprintf_r>
 8007608:	1c43      	adds	r3, r0, #1
 800760a:	bfbc      	itt	lt
 800760c:	238b      	movlt	r3, #139	; 0x8b
 800760e:	602b      	strlt	r3, [r5, #0]
 8007610:	2c00      	cmp	r4, #0
 8007612:	d0e3      	beq.n	80075dc <_vsniprintf_r+0x16>
 8007614:	2200      	movs	r2, #0
 8007616:	9b00      	ldr	r3, [sp, #0]
 8007618:	701a      	strb	r2, [r3, #0]
 800761a:	e7df      	b.n	80075dc <_vsniprintf_r+0x16>

0800761c <vsniprintf>:
 800761c:	b507      	push	{r0, r1, r2, lr}
 800761e:	9300      	str	r3, [sp, #0]
 8007620:	4613      	mov	r3, r2
 8007622:	460a      	mov	r2, r1
 8007624:	4601      	mov	r1, r0
 8007626:	4803      	ldr	r0, [pc, #12]	; (8007634 <vsniprintf+0x18>)
 8007628:	6800      	ldr	r0, [r0, #0]
 800762a:	f7ff ffcc 	bl	80075c6 <_vsniprintf_r>
 800762e:	b003      	add	sp, #12
 8007630:	f85d fb04 	ldr.w	pc, [sp], #4
 8007634:	20000158 	.word	0x20000158

08007638 <__assert_func>:
 8007638:	b51f      	push	{r0, r1, r2, r3, r4, lr}
 800763a:	4614      	mov	r4, r2
 800763c:	461a      	mov	r2, r3
 800763e:	4b09      	ldr	r3, [pc, #36]	; (8007664 <__assert_func+0x2c>)
 8007640:	4605      	mov	r5, r0
 8007642:	681b      	ldr	r3, [r3, #0]
 8007644:	68d8      	ldr	r0, [r3, #12]
 8007646:	b14c      	cbz	r4, 800765c <__assert_func+0x24>
 8007648:	4b07      	ldr	r3, [pc, #28]	; (8007668 <__assert_func+0x30>)
 800764a:	e9cd 3401 	strd	r3, r4, [sp, #4]
 800764e:	9100      	str	r1, [sp, #0]
 8007650:	462b      	mov	r3, r5
 8007652:	4906      	ldr	r1, [pc, #24]	; (800766c <__assert_func+0x34>)
 8007654:	f000 f80e 	bl	8007674 <fiprintf>
 8007658:	f000 fd34 	bl	80080c4 <abort>
 800765c:	4b04      	ldr	r3, [pc, #16]	; (8007670 <__assert_func+0x38>)
 800765e:	461c      	mov	r4, r3
 8007660:	e7f3      	b.n	800764a <__assert_func+0x12>
 8007662:	bf00      	nop
 8007664:	20000158 	.word	0x20000158
 8007668:	08008c36 	.word	0x08008c36
 800766c:	08008c43 	.word	0x08008c43
 8007670:	08008c71 	.word	0x08008c71

08007674 <fiprintf>:
 8007674:	b40e      	push	{r1, r2, r3}
 8007676:	b503      	push	{r0, r1, lr}
 8007678:	4601      	mov	r1, r0
 800767a:	ab03      	add	r3, sp, #12
 800767c:	4805      	ldr	r0, [pc, #20]	; (8007694 <fiprintf+0x20>)
 800767e:	f853 2b04 	ldr.w	r2, [r3], #4
 8007682:	6800      	ldr	r0, [r0, #0]
 8007684:	9301      	str	r3, [sp, #4]
 8007686:	f000 f997 	bl	80079b8 <_vfiprintf_r>
 800768a:	b002      	add	sp, #8
 800768c:	f85d eb04 	ldr.w	lr, [sp], #4
 8007690:	b003      	add	sp, #12
 8007692:	4770      	bx	lr
 8007694:	20000158 	.word	0x20000158

08007698 <__malloc_lock>:
 8007698:	4801      	ldr	r0, [pc, #4]	; (80076a0 <__malloc_lock+0x8>)
 800769a:	f000 becf 	b.w	800843c <__retarget_lock_acquire_recursive>
 800769e:	bf00      	nop
 80076a0:	200028c8 	.word	0x200028c8

080076a4 <__malloc_unlock>:
 80076a4:	4801      	ldr	r0, [pc, #4]	; (80076ac <__malloc_unlock+0x8>)
 80076a6:	f000 beca 	b.w	800843e <__retarget_lock_release_recursive>
 80076aa:	bf00      	nop
 80076ac:	200028c8 	.word	0x200028c8

080076b0 <__ssputs_r>:
 80076b0:	e92d 47f0 	stmdb	sp!, {r4, r5, r6, r7, r8, r9, sl, lr}
 80076b4:	688e      	ldr	r6, [r1, #8]
 80076b6:	4682      	mov	sl, r0
 80076b8:	429e      	cmp	r6, r3
 80076ba:	460c      	mov	r4, r1
 80076bc:	4690      	mov	r8, r2
 80076be:	461f      	mov	r7, r3
 80076c0:	d838      	bhi.n	8007734 <__ssputs_r+0x84>
 80076c2:	898a      	ldrh	r2, [r1, #12]
 80076c4:	f412 6f90 	tst.w	r2, #1152	; 0x480
 80076c8:	d032      	beq.n	8007730 <__ssputs_r+0x80>
 80076ca:	6825      	ldr	r5, [r4, #0]
 80076cc:	6909      	ldr	r1, [r1, #16]
 80076ce:	3301      	adds	r3, #1
 80076d0:	eba5 0901 	sub.w	r9, r5, r1
 80076d4:	6965      	ldr	r5, [r4, #20]
 80076d6:	444b      	add	r3, r9
 80076d8:	eb05 0545 	add.w	r5, r5, r5, lsl #1
 80076dc:	eb05 75d5 	add.w	r5, r5, r5, lsr #31
 80076e0:	106d      	asrs	r5, r5, #1
 80076e2:	429d      	cmp	r5, r3
 80076e4:	bf38      	it	cc
 80076e6:	461d      	movcc	r5, r3
 80076e8:	0553      	lsls	r3, r2, #21
 80076ea:	d531      	bpl.n	8007750 <__ssputs_r+0xa0>
 80076ec:	4629      	mov	r1, r5
 80076ee:	f7ff fe4b 	bl	8007388 <_malloc_r>
 80076f2:	4606      	mov	r6, r0
 80076f4:	b950      	cbnz	r0, 800770c <__ssputs_r+0x5c>
 80076f6:	230c      	movs	r3, #12
 80076f8:	f04f 30ff 	mov.w	r0, #4294967295
 80076fc:	f8ca 3000 	str.w	r3, [sl]
 8007700:	89a3      	ldrh	r3, [r4, #12]
 8007702:	f043 0340 	orr.w	r3, r3, #64	; 0x40
 8007706:	81a3      	strh	r3, [r4, #12]
 8007708:	e8bd 87f0 	ldmia.w	sp!, {r4, r5, r6, r7, r8, r9, sl, pc}
 800770c:	464a      	mov	r2, r9
 800770e:	6921      	ldr	r1, [r4, #16]
 8007710:	f000 ff0a 	bl	8008528 <memcpy>
 8007714:	89a3      	ldrh	r3, [r4, #12]
 8007716:	f423 6390 	bic.w	r3, r3, #1152	; 0x480
 800771a:	f043 0380 	orr.w	r3, r3, #128	; 0x80
 800771e:	81a3      	strh	r3, [r4, #12]
 8007720:	6126      	str	r6, [r4, #16]
 8007722:	444e      	add	r6, r9
 8007724:	6026      	str	r6, [r4, #0]
 8007726:	463e      	mov	r6, r7
 8007728:	6165      	str	r5, [r4, #20]
 800772a:	eba5 0509 	sub.w	r5, r5, r9
 800772e:	60a5      	str	r5, [r4, #8]
 8007730:	42be      	cmp	r6, r7
 8007732:	d900      	bls.n	8007736 <__ssputs_r+0x86>
 8007734:	463e      	mov	r6, r7
 8007736:	4632      	mov	r2, r6
 8007738:	4641      	mov	r1, r8
 800773a:	6820      	ldr	r0, [r4, #0]
 800773c:	f000 ff02 	bl	8008544 <memmove>
 8007740:	68a3      	ldr	r3, [r4, #8]
 8007742:	2000      	movs	r0, #0
 8007744:	1b9b      	subs	r3, r3, r6
 8007746:	60a3      	str	r3, [r4, #8]
 8007748:	6823      	ldr	r3, [r4, #0]
 800774a:	4433      	add	r3, r6
 800774c:	6023      	str	r3, [r4, #0]
 800774e:	e7db      	b.n	8007708 <__ssputs_r+0x58>
 8007750:	462a      	mov	r2, r5
 8007752:	f000 ff11 	bl	8008578 <_realloc_r>
 8007756:	4606      	mov	r6, r0
 8007758:	2800      	cmp	r0, #0
 800775a:	d1e1      	bne.n	8007720 <__ssputs_r+0x70>
 800775c:	4650      	mov	r0, sl
 800775e:	6921      	ldr	r1, [r4, #16]
 8007760:	f7ff fdaa 	bl	80072b8 <_free_r>
 8007764:	e7c7      	b.n	80076f6 <__ssputs_r+0x46>
	...

08007768 <_svfiprintf_r>:
 8007768:	e92d 4ff0 	stmdb	sp!, {r4, r5, r6, r7, r8, r9, sl, fp, lr}
 800776c:	4698      	mov	r8, r3
 800776e:	898b      	ldrh	r3, [r1, #12]
 8007770:	4607      	mov	r7, r0
 8007772:	061b      	lsls	r3, r3, #24
 8007774:	460d      	mov	r5, r1
 8007776:	4614      	mov	r4, r2
 8007778:	b09d      	sub	sp, #116	; 0x74
 800777a:	d50e      	bpl.n	800779a <_svfiprintf_r+0x32>
 800777c:	690b      	ldr	r3, [r1, #16]
 800777e:	b963      	cbnz	r3, 800779a <_svfiprintf_r+0x32>
 8007780:	2140      	movs	r1, #64	; 0x40
 8007782:	f7ff fe01 	bl	8007388 <_malloc_r>
 8007786:	6028      	str	r0, [r5, #0]
 8007788:	6128      	str	r0, [r5, #16]
 800778a:	b920      	cbnz	r0, 8007796 <_svfiprintf_r+0x2e>
 800778c:	230c      	movs	r3, #12
 800778e:	603b      	str	r3, [r7, #0]
 8007790:	f04f 30ff 	mov.w	r0, #4294967295
 8007794:	e0d1      	b.n	800793a <_svfiprintf_r+0x1d2>
 8007796:	2340      	movs	r3, #64	; 0x40
 8007798:	616b      	str	r3, [r5, #20]
 800779a:	2300      	movs	r3, #0
 800779c:	9309      	str	r3, [sp, #36]	; 0x24
 800779e:	2320      	movs	r3, #32
 80077a0:	f88d 3029 	strb.w	r3, [sp, #41]	; 0x29
 80077a4:	2330      	movs	r3, #48	; 0x30
 80077a6:	f04f 0901 	mov.w	r9, #1
 80077aa:	f8cd 800c 	str.w	r8, [sp, #12]
 80077ae:	f8df 81a4 	ldr.w	r8, [pc, #420]	; 8007954 <_svfiprintf_r+0x1ec>
 80077b2:	f88d 302a 	strb.w	r3, [sp, #42]	; 0x2a
 80077b6:	4623      	mov	r3, r4
 80077b8:	469a      	mov	sl, r3
 80077ba:	f813 2b01 	ldrb.w	r2, [r3], #1
 80077be:	b10a      	cbz	r2, 80077c4 <_svfiprintf_r+0x5c>
 80077c0:	2a25      	cmp	r2, #37	; 0x25
 80077c2:	d1f9      	bne.n	80077b8 <_svfiprintf_r+0x50>
 80077c4:	ebba 0b04 	subs.w	fp, sl, r4
 80077c8:	d00b      	beq.n	80077e2 <_svfiprintf_r+0x7a>
 80077ca:	465b      	mov	r3, fp
 80077cc:	4622      	mov	r2, r4
 80077ce:	4629      	mov	r1, r5
 80077d0:	4638      	mov	r0, r7
 80077d2:	f7ff ff6d 	bl	80076b0 <__ssputs_r>
 80077d6:	3001      	adds	r0, #1
 80077d8:	f000 80aa 	beq.w	8007930 <_svfiprintf_r+0x1c8>
 80077dc:	9a09      	ldr	r2, [sp, #36]	; 0x24
 80077de:	445a      	add	r2, fp
 80077e0:	9209      	str	r2, [sp, #36]	; 0x24
 80077e2:	f89a 3000 	ldrb.w	r3, [sl]
 80077e6:	2b00      	cmp	r3, #0
 80077e8:	f000 80a2 	beq.w	8007930 <_svfiprintf_r+0x1c8>
 80077ec:	2300      	movs	r3, #0
 80077ee:	f04f 32ff 	mov.w	r2, #4294967295
 80077f2:	e9cd 2305 	strd	r2, r3, [sp, #20]
 80077f6:	f10a 0a01 	add.w	sl, sl, #1
 80077fa:	9304      	str	r3, [sp, #16]
 80077fc:	9307      	str	r3, [sp, #28]
 80077fe:	f88d 3053 	strb.w	r3, [sp, #83]	; 0x53
 8007802:	931a      	str	r3, [sp, #104]	; 0x68
 8007804:	4654      	mov	r4, sl
 8007806:	2205      	movs	r2, #5
 8007808:	f814 1b01 	ldrb.w	r1, [r4], #1
 800780c:	4851      	ldr	r0, [pc, #324]	; (8007954 <_svfiprintf_r+0x1ec>)
 800780e:	f000 fe7d 	bl	800850c <memchr>
 8007812:	9a04      	ldr	r2, [sp, #16]
 8007814:	b9d8      	cbnz	r0, 800784e <_svfiprintf_r+0xe6>
 8007816:	06d0      	lsls	r0, r2, #27
 8007818:	bf44      	itt	mi
 800781a:	2320      	movmi	r3, #32
 800781c:	f88d 3053 	strbmi.w	r3, [sp, #83]	; 0x53
 8007820:	0711      	lsls	r1, r2, #28
 8007822:	bf44      	itt	mi
 8007824:	232b      	movmi	r3, #43	; 0x2b
 8007826:	f88d 3053 	strbmi.w	r3, [sp, #83]	; 0x53
 800782a:	f89a 3000 	ldrb.w	r3, [sl]
 800782e:	2b2a      	cmp	r3, #42	; 0x2a
 8007830:	d015      	beq.n	800785e <_svfiprintf_r+0xf6>
 8007832:	4654      	mov	r4, sl
 8007834:	2000      	movs	r0, #0
 8007836:	f04f 0c0a 	mov.w	ip, #10
 800783a:	9a07      	ldr	r2, [sp, #28]
 800783c:	4621      	mov	r1, r4
 800783e:	f811 3b01 	ldrb.w	r3, [r1], #1
 8007842:	3b30      	subs	r3, #48	; 0x30
 8007844:	2b09      	cmp	r3, #9
 8007846:	d94e      	bls.n	80078e6 <_svfiprintf_r+0x17e>
 8007848:	b1b0      	cbz	r0, 8007878 <_svfiprintf_r+0x110>
 800784a:	9207      	str	r2, [sp, #28]
 800784c:	e014      	b.n	8007878 <_svfiprintf_r+0x110>
 800784e:	eba0 0308 	sub.w	r3, r0, r8
 8007852:	fa09 f303 	lsl.w	r3, r9, r3
 8007856:	4313      	orrs	r3, r2
 8007858:	46a2      	mov	sl, r4
 800785a:	9304      	str	r3, [sp, #16]
 800785c:	e7d2      	b.n	8007804 <_svfiprintf_r+0x9c>
 800785e:	9b03      	ldr	r3, [sp, #12]
 8007860:	1d19      	adds	r1, r3, #4
 8007862:	681b      	ldr	r3, [r3, #0]
 8007864:	9103      	str	r1, [sp, #12]
 8007866:	2b00      	cmp	r3, #0
 8007868:	bfbb      	ittet	lt
 800786a:	425b      	neglt	r3, r3
 800786c:	f042 0202 	orrlt.w	r2, r2, #2
 8007870:	9307      	strge	r3, [sp, #28]
 8007872:	9307      	strlt	r3, [sp, #28]
 8007874:	bfb8      	it	lt
 8007876:	9204      	strlt	r2, [sp, #16]
 8007878:	7823      	ldrb	r3, [r4, #0]
 800787a:	2b2e      	cmp	r3, #46	; 0x2e
 800787c:	d10c      	bne.n	8007898 <_svfiprintf_r+0x130>
 800787e:	7863      	ldrb	r3, [r4, #1]
 8007880:	2b2a      	cmp	r3, #42	; 0x2a
 8007882:	d135      	bne.n	80078f0 <_svfiprintf_r+0x188>
 8007884:	9b03      	ldr	r3, [sp, #12]
 8007886:	3402      	adds	r4, #2
 8007888:	1d1a      	adds	r2, r3, #4
 800788a:	681b      	ldr	r3, [r3, #0]
 800788c:	9203      	str	r2, [sp, #12]
 800788e:	2b00      	cmp	r3, #0
 8007890:	bfb8      	it	lt
 8007892:	f04f 33ff 	movlt.w	r3, #4294967295
 8007896:	9305      	str	r3, [sp, #20]
 8007898:	f8df a0bc 	ldr.w	sl, [pc, #188]	; 8007958 <_svfiprintf_r+0x1f0>
 800789c:	2203      	movs	r2, #3
 800789e:	4650      	mov	r0, sl
 80078a0:	7821      	ldrb	r1, [r4, #0]
 80078a2:	f000 fe33 	bl	800850c <memchr>
 80078a6:	b140      	cbz	r0, 80078ba <_svfiprintf_r+0x152>
 80078a8:	2340      	movs	r3, #64	; 0x40
 80078aa:	eba0 000a 	sub.w	r0, r0, sl
 80078ae:	fa03 f000 	lsl.w	r0, r3, r0
 80078b2:	9b04      	ldr	r3, [sp, #16]
 80078b4:	3401      	adds	r4, #1
 80078b6:	4303      	orrs	r3, r0
 80078b8:	9304      	str	r3, [sp, #16]
 80078ba:	f814 1b01 	ldrb.w	r1, [r4], #1
 80078be:	2206      	movs	r2, #6
 80078c0:	4826      	ldr	r0, [pc, #152]	; (800795c <_svfiprintf_r+0x1f4>)
 80078c2:	f88d 1028 	strb.w	r1, [sp, #40]	; 0x28
 80078c6:	f000 fe21 	bl	800850c <memchr>
 80078ca:	2800      	cmp	r0, #0
 80078cc:	d038      	beq.n	8007940 <_svfiprintf_r+0x1d8>
 80078ce:	4b24      	ldr	r3, [pc, #144]	; (8007960 <_svfiprintf_r+0x1f8>)
 80078d0:	bb1b      	cbnz	r3, 800791a <_svfiprintf_r+0x1b2>
 80078d2:	9b03      	ldr	r3, [sp, #12]
 80078d4:	3307      	adds	r3, #7
 80078d6:	f023 0307 	bic.w	r3, r3, #7
 80078da:	3308      	adds	r3, #8
 80078dc:	9303      	str	r3, [sp, #12]
 80078de:	9b09      	ldr	r3, [sp, #36]	; 0x24
 80078e0:	4433      	add	r3, r6
 80078e2:	9309      	str	r3, [sp, #36]	; 0x24
 80078e4:	e767      	b.n	80077b6 <_svfiprintf_r+0x4e>
 80078e6:	460c      	mov	r4, r1
 80078e8:	2001      	movs	r0, #1
 80078ea:	fb0c 3202 	mla	r2, ip, r2, r3
 80078ee:	e7a5      	b.n	800783c <_svfiprintf_r+0xd4>
 80078f0:	2300      	movs	r3, #0
 80078f2:	f04f 0c0a 	mov.w	ip, #10
 80078f6:	4619      	mov	r1, r3
 80078f8:	3401      	adds	r4, #1
 80078fa:	9305      	str	r3, [sp, #20]
 80078fc:	4620      	mov	r0, r4
 80078fe:	f810 2b01 	ldrb.w	r2, [r0], #1
 8007902:	3a30      	subs	r2, #48	; 0x30
 8007904:	2a09      	cmp	r2, #9
 8007906:	d903      	bls.n	8007910 <_svfiprintf_r+0x1a8>
 8007908:	2b00      	cmp	r3, #0
 800790a:	d0c5      	beq.n	8007898 <_svfiprintf_r+0x130>
 800790c:	9105      	str	r1, [sp, #20]
 800790e:	e7c3      	b.n	8007898 <_svfiprintf_r+0x130>
 8007910:	4604      	mov	r4, r0
 8007912:	2301      	movs	r3, #1
 8007914:	fb0c 2101 	mla	r1, ip, r1, r2
 8007918:	e7f0      	b.n	80078fc <_svfiprintf_r+0x194>
 800791a:	ab03      	add	r3, sp, #12
 800791c:	9300      	str	r3, [sp, #0]
 800791e:	462a      	mov	r2, r5
 8007920:	4638      	mov	r0, r7
 8007922:	4b10      	ldr	r3, [pc, #64]	; (8007964 <_svfiprintf_r+0x1fc>)
 8007924:	a904      	add	r1, sp, #16
 8007926:	f3af 8000 	nop.w
 800792a:	1c42      	adds	r2, r0, #1
 800792c:	4606      	mov	r6, r0
 800792e:	d1d6      	bne.n	80078de <_svfiprintf_r+0x176>
 8007930:	89ab      	ldrh	r3, [r5, #12]
 8007932:	065b      	lsls	r3, r3, #25
 8007934:	f53f af2c 	bmi.w	8007790 <_svfiprintf_r+0x28>
 8007938:	9809      	ldr	r0, [sp, #36]	; 0x24
 800793a:	b01d      	add	sp, #116	; 0x74
 800793c:	e8bd 8ff0 	ldmia.w	sp!, {r4, r5, r6, r7, r8, r9, sl, fp, pc}
 8007940:	ab03      	add	r3, sp, #12
 8007942:	9300      	str	r3, [sp, #0]
 8007944:	462a      	mov	r2, r5
 8007946:	4638      	mov	r0, r7
 8007948:	4b06      	ldr	r3, [pc, #24]	; (8007964 <_svfiprintf_r+0x1fc>)
 800794a:	a904      	add	r1, sp, #16
 800794c:	f000 f9d4 	bl	8007cf8 <_printf_i>
 8007950:	e7eb      	b.n	800792a <_svfiprintf_r+0x1c2>
 8007952:	bf00      	nop
 8007954:	08008c72 	.word	0x08008c72
 8007958:	08008c78 	.word	0x08008c78
 800795c:	08008c7c 	.word	0x08008c7c
 8007960:	00000000 	.word	0x00000000
 8007964:	080076b1 	.word	0x080076b1

08007968 <__sfputc_r>:
 8007968:	6893      	ldr	r3, [r2, #8]
 800796a:	b410      	push	{r4}
 800796c:	3b01      	subs	r3, #1
 800796e:	2b00      	cmp	r3, #0
 8007970:	6093      	str	r3, [r2, #8]
 8007972:	da07      	bge.n	8007984 <__sfputc_r+0x1c>
 8007974:	6994      	ldr	r4, [r2, #24]
 8007976:	42a3      	cmp	r3, r4
 8007978:	db01      	blt.n	800797e <__sfputc_r+0x16>
 800797a:	290a      	cmp	r1, #10
 800797c:	d102      	bne.n	8007984 <__sfputc_r+0x1c>
 800797e:	bc10      	pop	{r4}
 8007980:	f000 bae0 	b.w	8007f44 <__swbuf_r>
 8007984:	6813      	ldr	r3, [r2, #0]
 8007986:	1c58      	adds	r0, r3, #1
 8007988:	6010      	str	r0, [r2, #0]
 800798a:	7019      	strb	r1, [r3, #0]
 800798c:	4608      	mov	r0, r1
 800798e:	bc10      	pop	{r4}
 8007990:	4770      	bx	lr

08007992 <__sfputs_r>:
 8007992:	b5f8      	push	{r3, r4, r5, r6, r7, lr}
 8007994:	4606      	mov	r6, r0
 8007996:	460f      	mov	r7, r1
 8007998:	4614      	mov	r4, r2
 800799a:	18d5      	adds	r5, r2, r3
 800799c:	42ac      	cmp	r4, r5
 800799e:	d101      	bne.n	80079a4 <__sfputs_r+0x12>
 80079a0:	2000      	movs	r0, #0
 80079a2:	e007      	b.n	80079b4 <__sfputs_r+0x22>
 80079a4:	463a      	mov	r2, r7
 80079a6:	4630      	mov	r0, r6
 80079a8:	f814 1b01 	ldrb.w	r1, [r4], #1
 80079ac:	f7ff ffdc 	bl	8007968 <__sfputc_r>
 80079b0:	1c43      	adds	r3, r0, #1
 80079b2:	d1f3      	bne.n	800799c <__sfputs_r+0xa>
 80079b4:	bdf8      	pop	{r3, r4, r5, r6, r7, pc}
	...

080079b8 <_vfiprintf_r>:
 80079b8:	e92d 4ff0 	stmdb	sp!, {r4, r5, r6, r7, r8, r9, sl, fp, lr}
 80079bc:	460d      	mov	r5, r1
 80079be:	4614      	mov	r4, r2
 80079c0:	4698      	mov	r8, r3
 80079c2:	4606      	mov	r6, r0
 80079c4:	b09d      	sub	sp, #116	; 0x74
 80079c6:	b118      	cbz	r0, 80079d0 <_vfiprintf_r+0x18>
 80079c8:	6983      	ldr	r3, [r0, #24]
 80079ca:	b90b      	cbnz	r3, 80079d0 <_vfiprintf_r+0x18>
 80079cc:	f000 fc98 	bl	8008300 <__sinit>
 80079d0:	4b89      	ldr	r3, [pc, #548]	; (8007bf8 <_vfiprintf_r+0x240>)
 80079d2:	429d      	cmp	r5, r3
 80079d4:	d11b      	bne.n	8007a0e <_vfiprintf_r+0x56>
 80079d6:	6875      	ldr	r5, [r6, #4]
 80079d8:	6e6b      	ldr	r3, [r5, #100]	; 0x64
 80079da:	07d9      	lsls	r1, r3, #31
 80079dc:	d405      	bmi.n	80079ea <_vfiprintf_r+0x32>
 80079de:	89ab      	ldrh	r3, [r5, #12]
 80079e0:	059a      	lsls	r2, r3, #22
 80079e2:	d402      	bmi.n	80079ea <_vfiprintf_r+0x32>
 80079e4:	6da8      	ldr	r0, [r5, #88]	; 0x58
 80079e6:	f000 fd29 	bl	800843c <__retarget_lock_acquire_recursive>
 80079ea:	89ab      	ldrh	r3, [r5, #12]
 80079ec:	071b      	lsls	r3, r3, #28
 80079ee:	d501      	bpl.n	80079f4 <_vfiprintf_r+0x3c>
 80079f0:	692b      	ldr	r3, [r5, #16]
 80079f2:	b9eb      	cbnz	r3, 8007a30 <_vfiprintf_r+0x78>
 80079f4:	4629      	mov	r1, r5
 80079f6:	4630      	mov	r0, r6
 80079f8:	f000 faf6 	bl	8007fe8 <__swsetup_r>
 80079fc:	b1c0      	cbz	r0, 8007a30 <_vfiprintf_r+0x78>
 80079fe:	6e6b      	ldr	r3, [r5, #100]	; 0x64
 8007a00:	07dc      	lsls	r4, r3, #31
 8007a02:	d50e      	bpl.n	8007a22 <_vfiprintf_r+0x6a>
 8007a04:	f04f 30ff 	mov.w	r0, #4294967295
 8007a08:	b01d      	add	sp, #116	; 0x74
 8007a0a:	e8bd 8ff0 	ldmia.w	sp!, {r4, r5, r6, r7, r8, r9, sl, fp, pc}
 8007a0e:	4b7b      	ldr	r3, [pc, #492]	; (8007bfc <_vfiprintf_r+0x244>)
 8007a10:	429d      	cmp	r5, r3
 8007a12:	d101      	bne.n	8007a18 <_vfiprintf_r+0x60>
 8007a14:	68b5      	ldr	r5, [r6, #8]
 8007a16:	e7df      	b.n	80079d8 <_vfiprintf_r+0x20>
 8007a18:	4b79      	ldr	r3, [pc, #484]	; (8007c00 <_vfiprintf_r+0x248>)
 8007a1a:	429d      	cmp	r5, r3
 8007a1c:	bf08      	it	eq
 8007a1e:	68f5      	ldreq	r5, [r6, #12]
 8007a20:	e7da      	b.n	80079d8 <_vfiprintf_r+0x20>
 8007a22:	89ab      	ldrh	r3, [r5, #12]
 8007a24:	0598      	lsls	r0, r3, #22
 8007a26:	d4ed      	bmi.n	8007a04 <_vfiprintf_r+0x4c>
 8007a28:	6da8      	ldr	r0, [r5, #88]	; 0x58
 8007a2a:	f000 fd08 	bl	800843e <__retarget_lock_release_recursive>
 8007a2e:	e7e9      	b.n	8007a04 <_vfiprintf_r+0x4c>
 8007a30:	2300      	movs	r3, #0
 8007a32:	9309      	str	r3, [sp, #36]	; 0x24
 8007a34:	2320      	movs	r3, #32
 8007a36:	f88d 3029 	strb.w	r3, [sp, #41]	; 0x29
 8007a3a:	2330      	movs	r3, #48	; 0x30
 8007a3c:	f04f 0901 	mov.w	r9, #1
 8007a40:	f8cd 800c 	str.w	r8, [sp, #12]
 8007a44:	f8df 81bc 	ldr.w	r8, [pc, #444]	; 8007c04 <_vfiprintf_r+0x24c>
 8007a48:	f88d 302a 	strb.w	r3, [sp, #42]	; 0x2a
 8007a4c:	4623      	mov	r3, r4
 8007a4e:	469a      	mov	sl, r3
 8007a50:	f813 2b01 	ldrb.w	r2, [r3], #1
 8007a54:	b10a      	cbz	r2, 8007a5a <_vfiprintf_r+0xa2>
 8007a56:	2a25      	cmp	r2, #37	; 0x25
 8007a58:	d1f9      	bne.n	8007a4e <_vfiprintf_r+0x96>
 8007a5a:	ebba 0b04 	subs.w	fp, sl, r4
 8007a5e:	d00b      	beq.n	8007a78 <_vfiprintf_r+0xc0>
 8007a60:	465b      	mov	r3, fp
 8007a62:	4622      	mov	r2, r4
 8007a64:	4629      	mov	r1, r5
 8007a66:	4630      	mov	r0, r6
 8007a68:	f7ff ff93 	bl	8007992 <__sfputs_r>
 8007a6c:	3001      	adds	r0, #1
 8007a6e:	f000 80aa 	beq.w	8007bc6 <_vfiprintf_r+0x20e>
 8007a72:	9a09      	ldr	r2, [sp, #36]	; 0x24
 8007a74:	445a      	add	r2, fp
 8007a76:	9209      	str	r2, [sp, #36]	; 0x24
 8007a78:	f89a 3000 	ldrb.w	r3, [sl]
 8007a7c:	2b00      	cmp	r3, #0
 8007a7e:	f000 80a2 	beq.w	8007bc6 <_vfiprintf_r+0x20e>
 8007a82:	2300      	movs	r3, #0
 8007a84:	f04f 32ff 	mov.w	r2, #4294967295
 8007a88:	e9cd 2305 	strd	r2, r3, [sp, #20]
 8007a8c:	f10a 0a01 	add.w	sl, sl, #1
 8007a90:	9304      	str	r3, [sp, #16]
 8007a92:	9307      	str	r3, [sp, #28]
 8007a94:	f88d 3053 	strb.w	r3, [sp, #83]	; 0x53
 8007a98:	931a      	str	r3, [sp, #104]	; 0x68
 8007a9a:	4654      	mov	r4, sl
 8007a9c:	2205      	movs	r2, #5
 8007a9e:	f814 1b01 	ldrb.w	r1, [r4], #1
 8007aa2:	4858      	ldr	r0, [pc, #352]	; (8007c04 <_vfiprintf_r+0x24c>)
 8007aa4:	f000 fd32 	bl	800850c <memchr>
 8007aa8:	9a04      	ldr	r2, [sp, #16]
 8007aaa:	b9d8      	cbnz	r0, 8007ae4 <_vfiprintf_r+0x12c>
 8007aac:	06d1      	lsls	r1, r2, #27
 8007aae:	bf44      	itt	mi
 8007ab0:	2320      	movmi	r3, #32
 8007ab2:	f88d 3053 	strbmi.w	r3, [sp, #83]	; 0x53
 8007ab6:	0713      	lsls	r3, r2, #28
 8007ab8:	bf44      	itt	mi
 8007aba:	232b      	movmi	r3, #43	; 0x2b
 8007abc:	f88d 3053 	strbmi.w	r3, [sp, #83]	; 0x53
 8007ac0:	f89a 3000 	ldrb.w	r3, [sl]
 8007ac4:	2b2a      	cmp	r3, #42	; 0x2a
 8007ac6:	d015      	beq.n	8007af4 <_vfiprintf_r+0x13c>
 8007ac8:	4654      	mov	r4, sl
 8007aca:	2000      	movs	r0, #0
 8007acc:	f04f 0c0a 	mov.w	ip, #10
 8007ad0:	9a07      	ldr	r2, [sp, #28]
 8007ad2:	4621      	mov	r1, r4
 8007ad4:	f811 3b01 	ldrb.w	r3, [r1], #1
 8007ad8:	3b30      	subs	r3, #48	; 0x30
 8007ada:	2b09      	cmp	r3, #9
 8007adc:	d94e      	bls.n	8007b7c <_vfiprintf_r+0x1c4>
 8007ade:	b1b0      	cbz	r0, 8007b0e <_vfiprintf_r+0x156>
 8007ae0:	9207      	str	r2, [sp, #28]
 8007ae2:	e014      	b.n	8007b0e <_vfiprintf_r+0x156>
 8007ae4:	eba0 0308 	sub.w	r3, r0, r8
 8007ae8:	fa09 f303 	lsl.w	r3, r9, r3
 8007aec:	4313      	orrs	r3, r2
 8007aee:	46a2      	mov	sl, r4
 8007af0:	9304      	str	r3, [sp, #16]
 8007af2:	e7d2      	b.n	8007a9a <_vfiprintf_r+0xe2>
 8007af4:	9b03      	ldr	r3, [sp, #12]
 8007af6:	1d19      	adds	r1, r3, #4
 8007af8:	681b      	ldr	r3, [r3, #0]
 8007afa:	9103      	str	r1, [sp, #12]
 8007afc:	2b00      	cmp	r3, #0
 8007afe:	bfbb      	ittet	lt
 8007b00:	425b      	neglt	r3, r3
 8007b02:	f042 0202 	orrlt.w	r2, r2, #2
 8007b06:	9307      	strge	r3, [sp, #28]
 8007b08:	9307      	strlt	r3, [sp, #28]
 8007b0a:	bfb8      	it	lt
 8007b0c:	9204      	strlt	r2, [sp, #16]
 8007b0e:	7823      	ldrb	r3, [r4, #0]
 8007b10:	2b2e      	cmp	r3, #46	; 0x2e
 8007b12:	d10c      	bne.n	8007b2e <_vfiprintf_r+0x176>
 8007b14:	7863      	ldrb	r3, [r4, #1]
 8007b16:	2b2a      	cmp	r3, #42	; 0x2a
 8007b18:	d135      	bne.n	8007b86 <_vfiprintf_r+0x1ce>
 8007b1a:	9b03      	ldr	r3, [sp, #12]
 8007b1c:	3402      	adds	r4, #2
 8007b1e:	1d1a      	adds	r2, r3, #4
 8007b20:	681b      	ldr	r3, [r3, #0]
 8007b22:	9203      	str	r2, [sp, #12]
 8007b24:	2b00      	cmp	r3, #0
 8007b26:	bfb8      	it	lt
 8007b28:	f04f 33ff 	movlt.w	r3, #4294967295
 8007b2c:	9305      	str	r3, [sp, #20]
 8007b2e:	f8df a0d8 	ldr.w	sl, [pc, #216]	; 8007c08 <_vfiprintf_r+0x250>
 8007b32:	2203      	movs	r2, #3
 8007b34:	4650      	mov	r0, sl
 8007b36:	7821      	ldrb	r1, [r4, #0]
 8007b38:	f000 fce8 	bl	800850c <memchr>
 8007b3c:	b140      	cbz	r0, 8007b50 <_vfiprintf_r+0x198>
 8007b3e:	2340      	movs	r3, #64	; 0x40
 8007b40:	eba0 000a 	sub.w	r0, r0, sl
 8007b44:	fa03 f000 	lsl.w	r0, r3, r0
 8007b48:	9b04      	ldr	r3, [sp, #16]
 8007b4a:	3401      	adds	r4, #1
 8007b4c:	4303      	orrs	r3, r0
 8007b4e:	9304      	str	r3, [sp, #16]
 8007b50:	f814 1b01 	ldrb.w	r1, [r4], #1
 8007b54:	2206      	movs	r2, #6
 8007b56:	482d      	ldr	r0, [pc, #180]	; (8007c0c <_vfiprintf_r+0x254>)
 8007b58:	f88d 1028 	strb.w	r1, [sp, #40]	; 0x28
 8007b5c:	f000 fcd6 	bl	800850c <memchr>
 8007b60:	2800      	cmp	r0, #0
 8007b62:	d03f      	beq.n	8007be4 <_vfiprintf_r+0x22c>
 8007b64:	4b2a      	ldr	r3, [pc, #168]	; (8007c10 <_vfiprintf_r+0x258>)
 8007b66:	bb1b      	cbnz	r3, 8007bb0 <_vfiprintf_r+0x1f8>
 8007b68:	9b03      	ldr	r3, [sp, #12]
 8007b6a:	3307      	adds	r3, #7
 8007b6c:	f023 0307 	bic.w	r3, r3, #7
 8007b70:	3308      	adds	r3, #8
 8007b72:	9303      	str	r3, [sp, #12]
 8007b74:	9b09      	ldr	r3, [sp, #36]	; 0x24
 8007b76:	443b      	add	r3, r7
 8007b78:	9309      	str	r3, [sp, #36]	; 0x24
 8007b7a:	e767      	b.n	8007a4c <_vfiprintf_r+0x94>
 8007b7c:	460c      	mov	r4, r1
 8007b7e:	2001      	movs	r0, #1
 8007b80:	fb0c 3202 	mla	r2, ip, r2, r3
 8007b84:	e7a5      	b.n	8007ad2 <_vfiprintf_r+0x11a>
 8007b86:	2300      	movs	r3, #0
 8007b88:	f04f 0c0a 	mov.w	ip, #10
 8007b8c:	4619      	mov	r1, r3
 8007b8e:	3401      	adds	r4, #1
 8007b90:	9305      	str	r3, [sp, #20]
 8007b92:	4620      	mov	r0, r4
 8007b94:	f810 2b01 	ldrb.w	r2, [r0], #1
 8007b98:	3a30      	subs	r2, #48	; 0x30
 8007b9a:	2a09      	cmp	r2, #9
 8007b9c:	d903      	bls.n	8007ba6 <_vfiprintf_r+0x1ee>
 8007b9e:	2b00      	cmp	r3, #0
 8007ba0:	d0c5      	beq.n	8007b2e <_vfiprintf_r+0x176>
 8007ba2:	9105      	str	r1, [sp, #20]
 8007ba4:	e7c3      	b.n	8007b2e <_vfiprintf_r+0x176>
 8007ba6:	4604      	mov	r4, r0
 8007ba8:	2301      	movs	r3, #1
 8007baa:	fb0c 2101 	mla	r1, ip, r1, r2
 8007bae:	e7f0      	b.n	8007b92 <_vfiprintf_r+0x1da>
 8007bb0:	ab03      	add	r3, sp, #12
 8007bb2:	9300      	str	r3, [sp, #0]
 8007bb4:	462a      	mov	r2, r5
 8007bb6:	4630      	mov	r0, r6
 8007bb8:	4b16      	ldr	r3, [pc, #88]	; (8007c14 <_vfiprintf_r+0x25c>)
 8007bba:	a904      	add	r1, sp, #16
 8007bbc:	f3af 8000 	nop.w
 8007bc0:	4607      	mov	r7, r0
 8007bc2:	1c78      	adds	r0, r7, #1
 8007bc4:	d1d6      	bne.n	8007b74 <_vfiprintf_r+0x1bc>
 8007bc6:	6e6b      	ldr	r3, [r5, #100]	; 0x64
 8007bc8:	07d9      	lsls	r1, r3, #31
 8007bca:	d405      	bmi.n	8007bd8 <_vfiprintf_r+0x220>
 8007bcc:	89ab      	ldrh	r3, [r5, #12]
 8007bce:	059a      	lsls	r2, r3, #22
 8007bd0:	d402      	bmi.n	8007bd8 <_vfiprintf_r+0x220>
 8007bd2:	6da8      	ldr	r0, [r5, #88]	; 0x58
 8007bd4:	f000 fc33 	bl	800843e <__retarget_lock_release_recursive>
 8007bd8:	89ab      	ldrh	r3, [r5, #12]
 8007bda:	065b      	lsls	r3, r3, #25
 8007bdc:	f53f af12 	bmi.w	8007a04 <_vfiprintf_r+0x4c>
 8007be0:	9809      	ldr	r0, [sp, #36]	; 0x24
 8007be2:	e711      	b.n	8007a08 <_vfiprintf_r+0x50>
 8007be4:	ab03      	add	r3, sp, #12
 8007be6:	9300      	str	r3, [sp, #0]
 8007be8:	462a      	mov	r2, r5
 8007bea:	4630      	mov	r0, r6
 8007bec:	4b09      	ldr	r3, [pc, #36]	; (8007c14 <_vfiprintf_r+0x25c>)
 8007bee:	a904      	add	r1, sp, #16
 8007bf0:	f000 f882 	bl	8007cf8 <_printf_i>
 8007bf4:	e7e4      	b.n	8007bc0 <_vfiprintf_r+0x208>
 8007bf6:	bf00      	nop
 8007bf8:	08008cc8 	.word	0x08008cc8
 8007bfc:	08008ce8 	.word	0x08008ce8
 8007c00:	08008ca8 	.word	0x08008ca8
 8007c04:	08008c72 	.word	0x08008c72
 8007c08:	08008c78 	.word	0x08008c78
 8007c0c:	08008c7c 	.word	0x08008c7c
 8007c10:	00000000 	.word	0x00000000
 8007c14:	08007993 	.word	0x08007993

08007c18 <_printf_common>:
 8007c18:	e92d 47f0 	stmdb	sp!, {r4, r5, r6, r7, r8, r9, sl, lr}
 8007c1c:	4616      	mov	r6, r2
 8007c1e:	4699      	mov	r9, r3
 8007c20:	688a      	ldr	r2, [r1, #8]
 8007c22:	690b      	ldr	r3, [r1, #16]
 8007c24:	4607      	mov	r7, r0
 8007c26:	4293      	cmp	r3, r2
 8007c28:	bfb8      	it	lt
 8007c2a:	4613      	movlt	r3, r2
 8007c2c:	6033      	str	r3, [r6, #0]
 8007c2e:	f891 2043 	ldrb.w	r2, [r1, #67]	; 0x43
 8007c32:	460c      	mov	r4, r1
 8007c34:	f8dd 8020 	ldr.w	r8, [sp, #32]
 8007c38:	b10a      	cbz	r2, 8007c3e <_printf_common+0x26>
 8007c3a:	3301      	adds	r3, #1
 8007c3c:	6033      	str	r3, [r6, #0]
 8007c3e:	6823      	ldr	r3, [r4, #0]
 8007c40:	0699      	lsls	r1, r3, #26
 8007c42:	bf42      	ittt	mi
 8007c44:	6833      	ldrmi	r3, [r6, #0]
 8007c46:	3302      	addmi	r3, #2
 8007c48:	6033      	strmi	r3, [r6, #0]
 8007c4a:	6825      	ldr	r5, [r4, #0]
 8007c4c:	f015 0506 	ands.w	r5, r5, #6
 8007c50:	d106      	bne.n	8007c60 <_printf_common+0x48>
 8007c52:	f104 0a19 	add.w	sl, r4, #25
 8007c56:	68e3      	ldr	r3, [r4, #12]
 8007c58:	6832      	ldr	r2, [r6, #0]
 8007c5a:	1a9b      	subs	r3, r3, r2
 8007c5c:	42ab      	cmp	r3, r5
 8007c5e:	dc28      	bgt.n	8007cb2 <_printf_common+0x9a>
 8007c60:	f894 2043 	ldrb.w	r2, [r4, #67]	; 0x43
 8007c64:	1e13      	subs	r3, r2, #0
 8007c66:	6822      	ldr	r2, [r4, #0]
 8007c68:	bf18      	it	ne
 8007c6a:	2301      	movne	r3, #1
 8007c6c:	0692      	lsls	r2, r2, #26
 8007c6e:	d42d      	bmi.n	8007ccc <_printf_common+0xb4>
 8007c70:	4649      	mov	r1, r9
 8007c72:	4638      	mov	r0, r7
 8007c74:	f104 0243 	add.w	r2, r4, #67	; 0x43
 8007c78:	47c0      	blx	r8
 8007c7a:	3001      	adds	r0, #1
 8007c7c:	d020      	beq.n	8007cc0 <_printf_common+0xa8>
 8007c7e:	6823      	ldr	r3, [r4, #0]
 8007c80:	68e5      	ldr	r5, [r4, #12]
 8007c82:	f003 0306 	and.w	r3, r3, #6
 8007c86:	2b04      	cmp	r3, #4
 8007c88:	bf18      	it	ne
 8007c8a:	2500      	movne	r5, #0
 8007c8c:	6832      	ldr	r2, [r6, #0]
 8007c8e:	f04f 0600 	mov.w	r6, #0
 8007c92:	68a3      	ldr	r3, [r4, #8]
 8007c94:	bf08      	it	eq
 8007c96:	1aad      	subeq	r5, r5, r2
 8007c98:	6922      	ldr	r2, [r4, #16]
 8007c9a:	bf08      	it	eq
 8007c9c:	ea25 75e5 	biceq.w	r5, r5, r5, asr #31
 8007ca0:	4293      	cmp	r3, r2
 8007ca2:	bfc4      	itt	gt
 8007ca4:	1a9b      	subgt	r3, r3, r2
 8007ca6:	18ed      	addgt	r5, r5, r3
 8007ca8:	341a      	adds	r4, #26
 8007caa:	42b5      	cmp	r5, r6
 8007cac:	d11a      	bne.n	8007ce4 <_printf_common+0xcc>
 8007cae:	2000      	movs	r0, #0
 8007cb0:	e008      	b.n	8007cc4 <_printf_common+0xac>
 8007cb2:	2301      	movs	r3, #1
 8007cb4:	4652      	mov	r2, sl
 8007cb6:	4649      	mov	r1, r9
 8007cb8:	4638      	mov	r0, r7
 8007cba:	47c0      	blx	r8
 8007cbc:	3001      	adds	r0, #1
 8007cbe:	d103      	bne.n	8007cc8 <_printf_common+0xb0>
 8007cc0:	f04f 30ff 	mov.w	r0, #4294967295
 8007cc4:	e8bd 87f0 	ldmia.w	sp!, {r4, r5, r6, r7, r8, r9, sl, pc}
 8007cc8:	3501      	adds	r5, #1
 8007cca:	e7c4      	b.n	8007c56 <_printf_common+0x3e>
 8007ccc:	2030      	movs	r0, #48	; 0x30
 8007cce:	18e1      	adds	r1, r4, r3
 8007cd0:	f881 0043 	strb.w	r0, [r1, #67]	; 0x43
 8007cd4:	1c5a      	adds	r2, r3, #1
 8007cd6:	f894 1045 	ldrb.w	r1, [r4, #69]	; 0x45
 8007cda:	4422      	add	r2, r4
 8007cdc:	3302      	adds	r3, #2
 8007cde:	f882 1043 	strb.w	r1, [r2, #67]	; 0x43
 8007ce2:	e7c5      	b.n	8007c70 <_printf_common+0x58>
 8007ce4:	2301      	movs	r3, #1
 8007ce6:	4622      	mov	r2, r4
 8007ce8:	4649      	mov	r1, r9
 8007cea:	4638      	mov	r0, r7
 8007cec:	47c0      	blx	r8
 8007cee:	3001      	adds	r0, #1
 8007cf0:	d0e6      	beq.n	8007cc0 <_printf_common+0xa8>
 8007cf2:	3601      	adds	r6, #1
 8007cf4:	e7d9      	b.n	8007caa <_printf_common+0x92>
	...

08007cf8 <_printf_i>:
 8007cf8:	e92d 47ff 	stmdb	sp!, {r0, r1, r2, r3, r4, r5, r6, r7, r8, r9, sl, lr}
 8007cfc:	7e0f      	ldrb	r7, [r1, #24]
 8007cfe:	4691      	mov	r9, r2
 8007d00:	2f78      	cmp	r7, #120	; 0x78
 8007d02:	4680      	mov	r8, r0
 8007d04:	460c      	mov	r4, r1
 8007d06:	469a      	mov	sl, r3
 8007d08:	9d0c      	ldr	r5, [sp, #48]	; 0x30
 8007d0a:	f101 0243 	add.w	r2, r1, #67	; 0x43
 8007d0e:	d807      	bhi.n	8007d20 <_printf_i+0x28>
 8007d10:	2f62      	cmp	r7, #98	; 0x62
 8007d12:	d80a      	bhi.n	8007d2a <_printf_i+0x32>
 8007d14:	2f00      	cmp	r7, #0
 8007d16:	f000 80d9 	beq.w	8007ecc <_printf_i+0x1d4>
 8007d1a:	2f58      	cmp	r7, #88	; 0x58
 8007d1c:	f000 80a4 	beq.w	8007e68 <_printf_i+0x170>
 8007d20:	f104 0542 	add.w	r5, r4, #66	; 0x42
 8007d24:	f884 7042 	strb.w	r7, [r4, #66]	; 0x42
 8007d28:	e03a      	b.n	8007da0 <_printf_i+0xa8>
 8007d2a:	f1a7 0363 	sub.w	r3, r7, #99	; 0x63
 8007d2e:	2b15      	cmp	r3, #21
 8007d30:	d8f6      	bhi.n	8007d20 <_printf_i+0x28>
 8007d32:	a101      	add	r1, pc, #4	; (adr r1, 8007d38 <_printf_i+0x40>)
 8007d34:	f851 f023 	ldr.w	pc, [r1, r3, lsl #2]
 8007d38:	08007d91 	.word	0x08007d91
 8007d3c:	08007da5 	.word	0x08007da5
 8007d40:	08007d21 	.word	0x08007d21
 8007d44:	08007d21 	.word	0x08007d21
 8007d48:	08007d21 	.word	0x08007d21
 8007d4c:	08007d21 	.word	0x08007d21
 8007d50:	08007da5 	.word	0x08007da5
 8007d54:	08007d21 	.word	0x08007d21
 8007d58:	08007d21 	.word	0x08007d21
 8007d5c:	08007d21 	.word	0x08007d21
 8007d60:	08007d21 	.word	0x08007d21
 8007d64:	08007eb3 	.word	0x08007eb3
 8007d68:	08007dd5 	.word	0x08007dd5
 8007d6c:	08007e95 	.word	0x08007e95
 8007d70:	08007d21 	.word	0x08007d21
 8007d74:	08007d21 	.word	0x08007d21
 8007d78:	08007ed5 	.word	0x08007ed5
 8007d7c:	08007d21 	.word	0x08007d21
 8007d80:	08007dd5 	.word	0x08007dd5
 8007d84:	08007d21 	.word	0x08007d21
 8007d88:	08007d21 	.word	0x08007d21
 8007d8c:	08007e9d 	.word	0x08007e9d
 8007d90:	682b      	ldr	r3, [r5, #0]
 8007d92:	1d1a      	adds	r2, r3, #4
 8007d94:	681b      	ldr	r3, [r3, #0]
 8007d96:	602a      	str	r2, [r5, #0]
 8007d98:	f104 0542 	add.w	r5, r4, #66	; 0x42
 8007d9c:	f884 3042 	strb.w	r3, [r4, #66]	; 0x42
 8007da0:	2301      	movs	r3, #1
 8007da2:	e0a4      	b.n	8007eee <_printf_i+0x1f6>
 8007da4:	6820      	ldr	r0, [r4, #0]
 8007da6:	6829      	ldr	r1, [r5, #0]
 8007da8:	0606      	lsls	r6, r0, #24
 8007daa:	f101 0304 	add.w	r3, r1, #4
 8007dae:	d50a      	bpl.n	8007dc6 <_printf_i+0xce>
 8007db0:	680e      	ldr	r6, [r1, #0]
 8007db2:	602b      	str	r3, [r5, #0]
 8007db4:	2e00      	cmp	r6, #0
 8007db6:	da03      	bge.n	8007dc0 <_printf_i+0xc8>
 8007db8:	232d      	movs	r3, #45	; 0x2d
 8007dba:	4276      	negs	r6, r6
 8007dbc:	f884 3043 	strb.w	r3, [r4, #67]	; 0x43
 8007dc0:	230a      	movs	r3, #10
 8007dc2:	485e      	ldr	r0, [pc, #376]	; (8007f3c <_printf_i+0x244>)
 8007dc4:	e019      	b.n	8007dfa <_printf_i+0x102>
 8007dc6:	680e      	ldr	r6, [r1, #0]
 8007dc8:	f010 0f40 	tst.w	r0, #64	; 0x40
 8007dcc:	602b      	str	r3, [r5, #0]
 8007dce:	bf18      	it	ne
 8007dd0:	b236      	sxthne	r6, r6
 8007dd2:	e7ef      	b.n	8007db4 <_printf_i+0xbc>
 8007dd4:	682b      	ldr	r3, [r5, #0]
 8007dd6:	6820      	ldr	r0, [r4, #0]
 8007dd8:	1d19      	adds	r1, r3, #4
 8007dda:	6029      	str	r1, [r5, #0]
 8007ddc:	0601      	lsls	r1, r0, #24
 8007dde:	d501      	bpl.n	8007de4 <_printf_i+0xec>
 8007de0:	681e      	ldr	r6, [r3, #0]
 8007de2:	e002      	b.n	8007dea <_printf_i+0xf2>
 8007de4:	0646      	lsls	r6, r0, #25
 8007de6:	d5fb      	bpl.n	8007de0 <_printf_i+0xe8>
 8007de8:	881e      	ldrh	r6, [r3, #0]
 8007dea:	2f6f      	cmp	r7, #111	; 0x6f
 8007dec:	bf0c      	ite	eq
 8007dee:	2308      	moveq	r3, #8
 8007df0:	230a      	movne	r3, #10
 8007df2:	4852      	ldr	r0, [pc, #328]	; (8007f3c <_printf_i+0x244>)
 8007df4:	2100      	movs	r1, #0
 8007df6:	f884 1043 	strb.w	r1, [r4, #67]	; 0x43
 8007dfa:	6865      	ldr	r5, [r4, #4]
 8007dfc:	2d00      	cmp	r5, #0
 8007dfe:	bfa8      	it	ge
 8007e00:	6821      	ldrge	r1, [r4, #0]
 8007e02:	60a5      	str	r5, [r4, #8]
 8007e04:	bfa4      	itt	ge
 8007e06:	f021 0104 	bicge.w	r1, r1, #4
 8007e0a:	6021      	strge	r1, [r4, #0]
 8007e0c:	b90e      	cbnz	r6, 8007e12 <_printf_i+0x11a>
 8007e0e:	2d00      	cmp	r5, #0
 8007e10:	d04d      	beq.n	8007eae <_printf_i+0x1b6>
 8007e12:	4615      	mov	r5, r2
 8007e14:	fbb6 f1f3 	udiv	r1, r6, r3
 8007e18:	fb03 6711 	mls	r7, r3, r1, r6
 8007e1c:	5dc7      	ldrb	r7, [r0, r7]
 8007e1e:	f805 7d01 	strb.w	r7, [r5, #-1]!
 8007e22:	4637      	mov	r7, r6
 8007e24:	42bb      	cmp	r3, r7
 8007e26:	460e      	mov	r6, r1
 8007e28:	d9f4      	bls.n	8007e14 <_printf_i+0x11c>
 8007e2a:	2b08      	cmp	r3, #8
 8007e2c:	d10b      	bne.n	8007e46 <_printf_i+0x14e>
 8007e2e:	6823      	ldr	r3, [r4, #0]
 8007e30:	07de      	lsls	r6, r3, #31
 8007e32:	d508      	bpl.n	8007e46 <_printf_i+0x14e>
 8007e34:	6923      	ldr	r3, [r4, #16]
 8007e36:	6861      	ldr	r1, [r4, #4]
 8007e38:	4299      	cmp	r1, r3
 8007e3a:	bfde      	ittt	le
 8007e3c:	2330      	movle	r3, #48	; 0x30
 8007e3e:	f805 3c01 	strble.w	r3, [r5, #-1]
 8007e42:	f105 35ff 	addle.w	r5, r5, #4294967295
 8007e46:	1b52      	subs	r2, r2, r5
 8007e48:	6122      	str	r2, [r4, #16]
 8007e4a:	464b      	mov	r3, r9
 8007e4c:	4621      	mov	r1, r4
 8007e4e:	4640      	mov	r0, r8
 8007e50:	f8cd a000 	str.w	sl, [sp]
 8007e54:	aa03      	add	r2, sp, #12
 8007e56:	f7ff fedf 	bl	8007c18 <_printf_common>
 8007e5a:	3001      	adds	r0, #1
 8007e5c:	d14c      	bne.n	8007ef8 <_printf_i+0x200>
 8007e5e:	f04f 30ff 	mov.w	r0, #4294967295
 8007e62:	b004      	add	sp, #16
 8007e64:	e8bd 87f0 	ldmia.w	sp!, {r4, r5, r6, r7, r8, r9, sl, pc}
 8007e68:	4834      	ldr	r0, [pc, #208]	; (8007f3c <_printf_i+0x244>)
 8007e6a:	f881 7045 	strb.w	r7, [r1, #69]	; 0x45
 8007e6e:	6829      	ldr	r1, [r5, #0]
 8007e70:	6823      	ldr	r3, [r4, #0]
 8007e72:	f851 6b04 	ldr.w	r6, [r1], #4
 8007e76:	6029      	str	r1, [r5, #0]
 8007e78:	061d      	lsls	r5, r3, #24
 8007e7a:	d514      	bpl.n	8007ea6 <_printf_i+0x1ae>
 8007e7c:	07df      	lsls	r7, r3, #31
 8007e7e:	bf44      	itt	mi
 8007e80:	f043 0320 	orrmi.w	r3, r3, #32
 8007e84:	6023      	strmi	r3, [r4, #0]
 8007e86:	b91e      	cbnz	r6, 8007e90 <_printf_i+0x198>
 8007e88:	6823      	ldr	r3, [r4, #0]
 8007e8a:	f023 0320 	bic.w	r3, r3, #32
 8007e8e:	6023      	str	r3, [r4, #0]
 8007e90:	2310      	movs	r3, #16
 8007e92:	e7af      	b.n	8007df4 <_printf_i+0xfc>
 8007e94:	6823      	ldr	r3, [r4, #0]
 8007e96:	f043 0320 	orr.w	r3, r3, #32
 8007e9a:	6023      	str	r3, [r4, #0]
 8007e9c:	2378      	movs	r3, #120	; 0x78
 8007e9e:	4828      	ldr	r0, [pc, #160]	; (8007f40 <_printf_i+0x248>)
 8007ea0:	f884 3045 	strb.w	r3, [r4, #69]	; 0x45
 8007ea4:	e7e3      	b.n	8007e6e <_printf_i+0x176>
 8007ea6:	0659      	lsls	r1, r3, #25
 8007ea8:	bf48      	it	mi
 8007eaa:	b2b6      	uxthmi	r6, r6
 8007eac:	e7e6      	b.n	8007e7c <_printf_i+0x184>
 8007eae:	4615      	mov	r5, r2
 8007eb0:	e7bb      	b.n	8007e2a <_printf_i+0x132>
 8007eb2:	682b      	ldr	r3, [r5, #0]
 8007eb4:	6826      	ldr	r6, [r4, #0]
 8007eb6:	1d18      	adds	r0, r3, #4
 8007eb8:	6961      	ldr	r1, [r4, #20]
 8007eba:	6028      	str	r0, [r5, #0]
 8007ebc:	0635      	lsls	r5, r6, #24
 8007ebe:	681b      	ldr	r3, [r3, #0]
 8007ec0:	d501      	bpl.n	8007ec6 <_printf_i+0x1ce>
 8007ec2:	6019      	str	r1, [r3, #0]
 8007ec4:	e002      	b.n	8007ecc <_printf_i+0x1d4>
 8007ec6:	0670      	lsls	r0, r6, #25
 8007ec8:	d5fb      	bpl.n	8007ec2 <_printf_i+0x1ca>
 8007eca:	8019      	strh	r1, [r3, #0]
 8007ecc:	2300      	movs	r3, #0
 8007ece:	4615      	mov	r5, r2
 8007ed0:	6123      	str	r3, [r4, #16]
 8007ed2:	e7ba      	b.n	8007e4a <_printf_i+0x152>
 8007ed4:	682b      	ldr	r3, [r5, #0]
 8007ed6:	2100      	movs	r1, #0
 8007ed8:	1d1a      	adds	r2, r3, #4
 8007eda:	602a      	str	r2, [r5, #0]
 8007edc:	681d      	ldr	r5, [r3, #0]
 8007ede:	6862      	ldr	r2, [r4, #4]
 8007ee0:	4628      	mov	r0, r5
 8007ee2:	f000 fb13 	bl	800850c <memchr>
 8007ee6:	b108      	cbz	r0, 8007eec <_printf_i+0x1f4>
 8007ee8:	1b40      	subs	r0, r0, r5
 8007eea:	6060      	str	r0, [r4, #4]
 8007eec:	6863      	ldr	r3, [r4, #4]
 8007eee:	6123      	str	r3, [r4, #16]
 8007ef0:	2300      	movs	r3, #0
 8007ef2:	f884 3043 	strb.w	r3, [r4, #67]	; 0x43
 8007ef6:	e7a8      	b.n	8007e4a <_printf_i+0x152>
 8007ef8:	462a      	mov	r2, r5
 8007efa:	4649      	mov	r1, r9
 8007efc:	4640      	mov	r0, r8
 8007efe:	6923      	ldr	r3, [r4, #16]
 8007f00:	47d0      	blx	sl
 8007f02:	3001      	adds	r0, #1
 8007f04:	d0ab      	beq.n	8007e5e <_printf_i+0x166>
 8007f06:	6823      	ldr	r3, [r4, #0]
 8007f08:	079b      	lsls	r3, r3, #30
 8007f0a:	d413      	bmi.n	8007f34 <_printf_i+0x23c>
 8007f0c:	68e0      	ldr	r0, [r4, #12]
 8007f0e:	9b03      	ldr	r3, [sp, #12]
 8007f10:	4298      	cmp	r0, r3
 8007f12:	bfb8      	it	lt
 8007f14:	4618      	movlt	r0, r3
 8007f16:	e7a4      	b.n	8007e62 <_printf_i+0x16a>
 8007f18:	2301      	movs	r3, #1
 8007f1a:	4632      	mov	r2, r6
 8007f1c:	4649      	mov	r1, r9
 8007f1e:	4640      	mov	r0, r8
 8007f20:	47d0      	blx	sl
 8007f22:	3001      	adds	r0, #1
 8007f24:	d09b      	beq.n	8007e5e <_printf_i+0x166>
 8007f26:	3501      	adds	r5, #1
 8007f28:	68e3      	ldr	r3, [r4, #12]
 8007f2a:	9903      	ldr	r1, [sp, #12]
 8007f2c:	1a5b      	subs	r3, r3, r1
 8007f2e:	42ab      	cmp	r3, r5
 8007f30:	dcf2      	bgt.n	8007f18 <_printf_i+0x220>
 8007f32:	e7eb      	b.n	8007f0c <_printf_i+0x214>
 8007f34:	2500      	movs	r5, #0
 8007f36:	f104 0619 	add.w	r6, r4, #25
 8007f3a:	e7f5      	b.n	8007f28 <_printf_i+0x230>
 8007f3c:	08008c83 	.word	0x08008c83
 8007f40:	08008c94 	.word	0x08008c94

08007f44 <__swbuf_r>:
 8007f44:	b5f8      	push	{r3, r4, r5, r6, r7, lr}
 8007f46:	460e      	mov	r6, r1
 8007f48:	4614      	mov	r4, r2
 8007f4a:	4605      	mov	r5, r0
 8007f4c:	b118      	cbz	r0, 8007f56 <__swbuf_r+0x12>
 8007f4e:	6983      	ldr	r3, [r0, #24]
 8007f50:	b90b      	cbnz	r3, 8007f56 <__swbuf_r+0x12>
 8007f52:	f000 f9d5 	bl	8008300 <__sinit>
 8007f56:	4b21      	ldr	r3, [pc, #132]	; (8007fdc <__swbuf_r+0x98>)
 8007f58:	429c      	cmp	r4, r3
 8007f5a:	d12b      	bne.n	8007fb4 <__swbuf_r+0x70>
 8007f5c:	686c      	ldr	r4, [r5, #4]
 8007f5e:	69a3      	ldr	r3, [r4, #24]
 8007f60:	60a3      	str	r3, [r4, #8]
 8007f62:	89a3      	ldrh	r3, [r4, #12]
 8007f64:	071a      	lsls	r2, r3, #28
 8007f66:	d52f      	bpl.n	8007fc8 <__swbuf_r+0x84>
 8007f68:	6923      	ldr	r3, [r4, #16]
 8007f6a:	b36b      	cbz	r3, 8007fc8 <__swbuf_r+0x84>
 8007f6c:	6923      	ldr	r3, [r4, #16]
 8007f6e:	6820      	ldr	r0, [r4, #0]
 8007f70:	b2f6      	uxtb	r6, r6
 8007f72:	1ac0      	subs	r0, r0, r3
 8007f74:	6963      	ldr	r3, [r4, #20]
 8007f76:	4637      	mov	r7, r6
 8007f78:	4283      	cmp	r3, r0
 8007f7a:	dc04      	bgt.n	8007f86 <__swbuf_r+0x42>
 8007f7c:	4621      	mov	r1, r4
 8007f7e:	4628      	mov	r0, r5
 8007f80:	f000 f92a 	bl	80081d8 <_fflush_r>
 8007f84:	bb30      	cbnz	r0, 8007fd4 <__swbuf_r+0x90>
 8007f86:	68a3      	ldr	r3, [r4, #8]
 8007f88:	3001      	adds	r0, #1
 8007f8a:	3b01      	subs	r3, #1
 8007f8c:	60a3      	str	r3, [r4, #8]
 8007f8e:	6823      	ldr	r3, [r4, #0]
 8007f90:	1c5a      	adds	r2, r3, #1
 8007f92:	6022      	str	r2, [r4, #0]
 8007f94:	701e      	strb	r6, [r3, #0]
 8007f96:	6963      	ldr	r3, [r4, #20]
 8007f98:	4283      	cmp	r3, r0
 8007f9a:	d004      	beq.n	8007fa6 <__swbuf_r+0x62>
 8007f9c:	89a3      	ldrh	r3, [r4, #12]
 8007f9e:	07db      	lsls	r3, r3, #31
 8007fa0:	d506      	bpl.n	8007fb0 <__swbuf_r+0x6c>
 8007fa2:	2e0a      	cmp	r6, #10
 8007fa4:	d104      	bne.n	8007fb0 <__swbuf_r+0x6c>
 8007fa6:	4621      	mov	r1, r4
 8007fa8:	4628      	mov	r0, r5
 8007faa:	f000 f915 	bl	80081d8 <_fflush_r>
 8007fae:	b988      	cbnz	r0, 8007fd4 <__swbuf_r+0x90>
 8007fb0:	4638      	mov	r0, r7
 8007fb2:	bdf8      	pop	{r3, r4, r5, r6, r7, pc}
 8007fb4:	4b0a      	ldr	r3, [pc, #40]	; (8007fe0 <__swbuf_r+0x9c>)
 8007fb6:	429c      	cmp	r4, r3
 8007fb8:	d101      	bne.n	8007fbe <__swbuf_r+0x7a>
 8007fba:	68ac      	ldr	r4, [r5, #8]
 8007fbc:	e7cf      	b.n	8007f5e <__swbuf_r+0x1a>
 8007fbe:	4b09      	ldr	r3, [pc, #36]	; (8007fe4 <__swbuf_r+0xa0>)
 8007fc0:	429c      	cmp	r4, r3
 8007fc2:	bf08      	it	eq
 8007fc4:	68ec      	ldreq	r4, [r5, #12]
 8007fc6:	e7ca      	b.n	8007f5e <__swbuf_r+0x1a>
 8007fc8:	4621      	mov	r1, r4
 8007fca:	4628      	mov	r0, r5
 8007fcc:	f000 f80c 	bl	8007fe8 <__swsetup_r>
 8007fd0:	2800      	cmp	r0, #0
 8007fd2:	d0cb      	beq.n	8007f6c <__swbuf_r+0x28>
 8007fd4:	f04f 37ff 	mov.w	r7, #4294967295
 8007fd8:	e7ea      	b.n	8007fb0 <__swbuf_r+0x6c>
 8007fda:	bf00      	nop
 8007fdc:	08008cc8 	.word	0x08008cc8
 8007fe0:	08008ce8 	.word	0x08008ce8
 8007fe4:	08008ca8 	.word	0x08008ca8

08007fe8 <__swsetup_r>:
 8007fe8:	4b32      	ldr	r3, [pc, #200]	; (80080b4 <__swsetup_r+0xcc>)
 8007fea:	b570      	push	{r4, r5, r6, lr}
 8007fec:	681d      	ldr	r5, [r3, #0]
 8007fee:	4606      	mov	r6, r0
 8007ff0:	460c      	mov	r4, r1
 8007ff2:	b125      	cbz	r5, 8007ffe <__swsetup_r+0x16>
 8007ff4:	69ab      	ldr	r3, [r5, #24]
 8007ff6:	b913      	cbnz	r3, 8007ffe <__swsetup_r+0x16>
 8007ff8:	4628      	mov	r0, r5
 8007ffa:	f000 f981 	bl	8008300 <__sinit>
 8007ffe:	4b2e      	ldr	r3, [pc, #184]	; (80080b8 <__swsetup_r+0xd0>)
 8008000:	429c      	cmp	r4, r3
 8008002:	d10f      	bne.n	8008024 <__swsetup_r+0x3c>
 8008004:	686c      	ldr	r4, [r5, #4]
 8008006:	89a3      	ldrh	r3, [r4, #12]
 8008008:	f9b4 200c 	ldrsh.w	r2, [r4, #12]
 800800c:	0719      	lsls	r1, r3, #28
 800800e:	d42c      	bmi.n	800806a <__swsetup_r+0x82>
 8008010:	06dd      	lsls	r5, r3, #27
 8008012:	d411      	bmi.n	8008038 <__swsetup_r+0x50>
 8008014:	2309      	movs	r3, #9
 8008016:	6033      	str	r3, [r6, #0]
 8008018:	f042 0340 	orr.w	r3, r2, #64	; 0x40
 800801c:	f04f 30ff 	mov.w	r0, #4294967295
 8008020:	81a3      	strh	r3, [r4, #12]
 8008022:	e03e      	b.n	80080a2 <__swsetup_r+0xba>
 8008024:	4b25      	ldr	r3, [pc, #148]	; (80080bc <__swsetup_r+0xd4>)
 8008026:	429c      	cmp	r4, r3
 8008028:	d101      	bne.n	800802e <__swsetup_r+0x46>
 800802a:	68ac      	ldr	r4, [r5, #8]
 800802c:	e7eb      	b.n	8008006 <__swsetup_r+0x1e>
 800802e:	4b24      	ldr	r3, [pc, #144]	; (80080c0 <__swsetup_r+0xd8>)
 8008030:	429c      	cmp	r4, r3
 8008032:	bf08      	it	eq
 8008034:	68ec      	ldreq	r4, [r5, #12]
 8008036:	e7e6      	b.n	8008006 <__swsetup_r+0x1e>
 8008038:	0758      	lsls	r0, r3, #29
 800803a:	d512      	bpl.n	8008062 <__swsetup_r+0x7a>
 800803c:	6b61      	ldr	r1, [r4, #52]	; 0x34
 800803e:	b141      	cbz	r1, 8008052 <__swsetup_r+0x6a>
 8008040:	f104 0344 	add.w	r3, r4, #68	; 0x44
 8008044:	4299      	cmp	r1, r3
 8008046:	d002      	beq.n	800804e <__swsetup_r+0x66>
 8008048:	4630      	mov	r0, r6
 800804a:	f7ff f935 	bl	80072b8 <_free_r>
 800804e:	2300      	movs	r3, #0
 8008050:	6363      	str	r3, [r4, #52]	; 0x34
 8008052:	89a3      	ldrh	r3, [r4, #12]
 8008054:	f023 0324 	bic.w	r3, r3, #36	; 0x24
 8008058:	81a3      	strh	r3, [r4, #12]
 800805a:	2300      	movs	r3, #0
 800805c:	6063      	str	r3, [r4, #4]
 800805e:	6923      	ldr	r3, [r4, #16]
 8008060:	6023      	str	r3, [r4, #0]
 8008062:	89a3      	ldrh	r3, [r4, #12]
 8008064:	f043 0308 	orr.w	r3, r3, #8
 8008068:	81a3      	strh	r3, [r4, #12]
 800806a:	6923      	ldr	r3, [r4, #16]
 800806c:	b94b      	cbnz	r3, 8008082 <__swsetup_r+0x9a>
 800806e:	89a3      	ldrh	r3, [r4, #12]
 8008070:	f403 7320 	and.w	r3, r3, #640	; 0x280
 8008074:	f5b3 7f00 	cmp.w	r3, #512	; 0x200
 8008078:	d003      	beq.n	8008082 <__swsetup_r+0x9a>
 800807a:	4621      	mov	r1, r4
 800807c:	4630      	mov	r0, r6
 800807e:	f000 fa05 	bl	800848c <__smakebuf_r>
 8008082:	89a0      	ldrh	r0, [r4, #12]
 8008084:	f9b4 200c 	ldrsh.w	r2, [r4, #12]
 8008088:	f010 0301 	ands.w	r3, r0, #1
 800808c:	d00a      	beq.n	80080a4 <__swsetup_r+0xbc>
 800808e:	2300      	movs	r3, #0
 8008090:	60a3      	str	r3, [r4, #8]
 8008092:	6963      	ldr	r3, [r4, #20]
 8008094:	425b      	negs	r3, r3
 8008096:	61a3      	str	r3, [r4, #24]
 8008098:	6923      	ldr	r3, [r4, #16]
 800809a:	b943      	cbnz	r3, 80080ae <__swsetup_r+0xc6>
 800809c:	f010 0080 	ands.w	r0, r0, #128	; 0x80
 80080a0:	d1ba      	bne.n	8008018 <__swsetup_r+0x30>
 80080a2:	bd70      	pop	{r4, r5, r6, pc}
 80080a4:	0781      	lsls	r1, r0, #30
 80080a6:	bf58      	it	pl
 80080a8:	6963      	ldrpl	r3, [r4, #20]
 80080aa:	60a3      	str	r3, [r4, #8]
 80080ac:	e7f4      	b.n	8008098 <__swsetup_r+0xb0>
 80080ae:	2000      	movs	r0, #0
 80080b0:	e7f7      	b.n	80080a2 <__swsetup_r+0xba>
 80080b2:	bf00      	nop
 80080b4:	20000158 	.word	0x20000158
 80080b8:	08008cc8 	.word	0x08008cc8
 80080bc:	08008ce8 	.word	0x08008ce8
 80080c0:	08008ca8 	.word	0x08008ca8

080080c4 <abort>:
 80080c4:	2006      	movs	r0, #6
 80080c6:	b508      	push	{r3, lr}
 80080c8:	f000 faae 	bl	8008628 <raise>
 80080cc:	2001      	movs	r0, #1
 80080ce:	f7f9 fb8b 	bl	80017e8 <_exit>
	...

080080d4 <__sflush_r>:
 80080d4:	898a      	ldrh	r2, [r1, #12]
 80080d6:	b5f8      	push	{r3, r4, r5, r6, r7, lr}
 80080d8:	4605      	mov	r5, r0
 80080da:	0710      	lsls	r0, r2, #28
 80080dc:	460c      	mov	r4, r1
 80080de:	d457      	bmi.n	8008190 <__sflush_r+0xbc>
 80080e0:	684b      	ldr	r3, [r1, #4]
 80080e2:	2b00      	cmp	r3, #0
 80080e4:	dc04      	bgt.n	80080f0 <__sflush_r+0x1c>
 80080e6:	6c0b      	ldr	r3, [r1, #64]	; 0x40
 80080e8:	2b00      	cmp	r3, #0
 80080ea:	dc01      	bgt.n	80080f0 <__sflush_r+0x1c>
 80080ec:	2000      	movs	r0, #0
 80080ee:	bdf8      	pop	{r3, r4, r5, r6, r7, pc}
 80080f0:	6ae6      	ldr	r6, [r4, #44]	; 0x2c
 80080f2:	2e00      	cmp	r6, #0
 80080f4:	d0fa      	beq.n	80080ec <__sflush_r+0x18>
 80080f6:	2300      	movs	r3, #0
 80080f8:	f412 5280 	ands.w	r2, r2, #4096	; 0x1000
 80080fc:	682f      	ldr	r7, [r5, #0]
 80080fe:	602b      	str	r3, [r5, #0]
 8008100:	d032      	beq.n	8008168 <__sflush_r+0x94>
 8008102:	6d60      	ldr	r0, [r4, #84]	; 0x54
 8008104:	89a3      	ldrh	r3, [r4, #12]
 8008106:	075a      	lsls	r2, r3, #29
 8008108:	d505      	bpl.n	8008116 <__sflush_r+0x42>
 800810a:	6863      	ldr	r3, [r4, #4]
 800810c:	1ac0      	subs	r0, r0, r3
 800810e:	6b63      	ldr	r3, [r4, #52]	; 0x34
 8008110:	b10b      	cbz	r3, 8008116 <__sflush_r+0x42>
 8008112:	6c23      	ldr	r3, [r4, #64]	; 0x40
 8008114:	1ac0      	subs	r0, r0, r3
 8008116:	2300      	movs	r3, #0
 8008118:	4602      	mov	r2, r0
 800811a:	6ae6      	ldr	r6, [r4, #44]	; 0x2c
 800811c:	4628      	mov	r0, r5
 800811e:	6a21      	ldr	r1, [r4, #32]
 8008120:	47b0      	blx	r6
 8008122:	1c43      	adds	r3, r0, #1
 8008124:	89a3      	ldrh	r3, [r4, #12]
 8008126:	d106      	bne.n	8008136 <__sflush_r+0x62>
 8008128:	6829      	ldr	r1, [r5, #0]
 800812a:	291d      	cmp	r1, #29
 800812c:	d82c      	bhi.n	8008188 <__sflush_r+0xb4>
 800812e:	4a29      	ldr	r2, [pc, #164]	; (80081d4 <__sflush_r+0x100>)
 8008130:	40ca      	lsrs	r2, r1
 8008132:	07d6      	lsls	r6, r2, #31
 8008134:	d528      	bpl.n	8008188 <__sflush_r+0xb4>
 8008136:	2200      	movs	r2, #0
 8008138:	6062      	str	r2, [r4, #4]
 800813a:	6922      	ldr	r2, [r4, #16]
 800813c:	04d9      	lsls	r1, r3, #19
 800813e:	6022      	str	r2, [r4, #0]
 8008140:	d504      	bpl.n	800814c <__sflush_r+0x78>
 8008142:	1c42      	adds	r2, r0, #1
 8008144:	d101      	bne.n	800814a <__sflush_r+0x76>
 8008146:	682b      	ldr	r3, [r5, #0]
 8008148:	b903      	cbnz	r3, 800814c <__sflush_r+0x78>
 800814a:	6560      	str	r0, [r4, #84]	; 0x54
 800814c:	6b61      	ldr	r1, [r4, #52]	; 0x34
 800814e:	602f      	str	r7, [r5, #0]
 8008150:	2900      	cmp	r1, #0
 8008152:	d0cb      	beq.n	80080ec <__sflush_r+0x18>
 8008154:	f104 0344 	add.w	r3, r4, #68	; 0x44
 8008158:	4299      	cmp	r1, r3
 800815a:	d002      	beq.n	8008162 <__sflush_r+0x8e>
 800815c:	4628      	mov	r0, r5
 800815e:	f7ff f8ab 	bl	80072b8 <_free_r>
 8008162:	2000      	movs	r0, #0
 8008164:	6360      	str	r0, [r4, #52]	; 0x34
 8008166:	e7c2      	b.n	80080ee <__sflush_r+0x1a>
 8008168:	6a21      	ldr	r1, [r4, #32]
 800816a:	2301      	movs	r3, #1
 800816c:	4628      	mov	r0, r5
 800816e:	47b0      	blx	r6
 8008170:	1c41      	adds	r1, r0, #1
 8008172:	d1c7      	bne.n	8008104 <__sflush_r+0x30>
 8008174:	682b      	ldr	r3, [r5, #0]
 8008176:	2b00      	cmp	r3, #0
 8008178:	d0c4      	beq.n	8008104 <__sflush_r+0x30>
 800817a:	2b1d      	cmp	r3, #29
 800817c:	d001      	beq.n	8008182 <__sflush_r+0xae>
 800817e:	2b16      	cmp	r3, #22
 8008180:	d101      	bne.n	8008186 <__sflush_r+0xb2>
 8008182:	602f      	str	r7, [r5, #0]
 8008184:	e7b2      	b.n	80080ec <__sflush_r+0x18>
 8008186:	89a3      	ldrh	r3, [r4, #12]
 8008188:	f043 0340 	orr.w	r3, r3, #64	; 0x40
 800818c:	81a3      	strh	r3, [r4, #12]
 800818e:	e7ae      	b.n	80080ee <__sflush_r+0x1a>
 8008190:	690f      	ldr	r7, [r1, #16]
 8008192:	2f00      	cmp	r7, #0
 8008194:	d0aa      	beq.n	80080ec <__sflush_r+0x18>
 8008196:	0793      	lsls	r3, r2, #30
 8008198:	bf18      	it	ne
 800819a:	2300      	movne	r3, #0
 800819c:	680e      	ldr	r6, [r1, #0]
 800819e:	bf08      	it	eq
 80081a0:	694b      	ldreq	r3, [r1, #20]
 80081a2:	1bf6      	subs	r6, r6, r7
 80081a4:	600f      	str	r7, [r1, #0]
 80081a6:	608b      	str	r3, [r1, #8]
 80081a8:	2e00      	cmp	r6, #0
 80081aa:	dd9f      	ble.n	80080ec <__sflush_r+0x18>
 80081ac:	4633      	mov	r3, r6
 80081ae:	463a      	mov	r2, r7
 80081b0:	4628      	mov	r0, r5
 80081b2:	6a21      	ldr	r1, [r4, #32]
 80081b4:	f8d4 c028 	ldr.w	ip, [r4, #40]	; 0x28
 80081b8:	47e0      	blx	ip
 80081ba:	2800      	cmp	r0, #0
 80081bc:	dc06      	bgt.n	80081cc <__sflush_r+0xf8>
 80081be:	89a3      	ldrh	r3, [r4, #12]
 80081c0:	f04f 30ff 	mov.w	r0, #4294967295
 80081c4:	f043 0340 	orr.w	r3, r3, #64	; 0x40
 80081c8:	81a3      	strh	r3, [r4, #12]
 80081ca:	e790      	b.n	80080ee <__sflush_r+0x1a>
 80081cc:	4407      	add	r7, r0
 80081ce:	1a36      	subs	r6, r6, r0
 80081d0:	e7ea      	b.n	80081a8 <__sflush_r+0xd4>
 80081d2:	bf00      	nop
 80081d4:	20400001 	.word	0x20400001

080081d8 <_fflush_r>:
 80081d8:	b538      	push	{r3, r4, r5, lr}
 80081da:	690b      	ldr	r3, [r1, #16]
 80081dc:	4605      	mov	r5, r0
 80081de:	460c      	mov	r4, r1
 80081e0:	b913      	cbnz	r3, 80081e8 <_fflush_r+0x10>
 80081e2:	2500      	movs	r5, #0
 80081e4:	4628      	mov	r0, r5
 80081e6:	bd38      	pop	{r3, r4, r5, pc}
 80081e8:	b118      	cbz	r0, 80081f2 <_fflush_r+0x1a>
 80081ea:	6983      	ldr	r3, [r0, #24]
 80081ec:	b90b      	cbnz	r3, 80081f2 <_fflush_r+0x1a>
 80081ee:	f000 f887 	bl	8008300 <__sinit>
 80081f2:	4b14      	ldr	r3, [pc, #80]	; (8008244 <_fflush_r+0x6c>)
 80081f4:	429c      	cmp	r4, r3
 80081f6:	d11b      	bne.n	8008230 <_fflush_r+0x58>
 80081f8:	686c      	ldr	r4, [r5, #4]
 80081fa:	f9b4 300c 	ldrsh.w	r3, [r4, #12]
 80081fe:	2b00      	cmp	r3, #0
 8008200:	d0ef      	beq.n	80081e2 <_fflush_r+0xa>
 8008202:	6e62      	ldr	r2, [r4, #100]	; 0x64
 8008204:	07d0      	lsls	r0, r2, #31
 8008206:	d404      	bmi.n	8008212 <_fflush_r+0x3a>
 8008208:	0599      	lsls	r1, r3, #22
 800820a:	d402      	bmi.n	8008212 <_fflush_r+0x3a>
 800820c:	6da0      	ldr	r0, [r4, #88]	; 0x58
 800820e:	f000 f915 	bl	800843c <__retarget_lock_acquire_recursive>
 8008212:	4628      	mov	r0, r5
 8008214:	4621      	mov	r1, r4
 8008216:	f7ff ff5d 	bl	80080d4 <__sflush_r>
 800821a:	6e63      	ldr	r3, [r4, #100]	; 0x64
 800821c:	4605      	mov	r5, r0
 800821e:	07da      	lsls	r2, r3, #31
 8008220:	d4e0      	bmi.n	80081e4 <_fflush_r+0xc>
 8008222:	89a3      	ldrh	r3, [r4, #12]
 8008224:	059b      	lsls	r3, r3, #22
 8008226:	d4dd      	bmi.n	80081e4 <_fflush_r+0xc>
 8008228:	6da0      	ldr	r0, [r4, #88]	; 0x58
 800822a:	f000 f908 	bl	800843e <__retarget_lock_release_recursive>
 800822e:	e7d9      	b.n	80081e4 <_fflush_r+0xc>
 8008230:	4b05      	ldr	r3, [pc, #20]	; (8008248 <_fflush_r+0x70>)
 8008232:	429c      	cmp	r4, r3
 8008234:	d101      	bne.n	800823a <_fflush_r+0x62>
 8008236:	68ac      	ldr	r4, [r5, #8]
 8008238:	e7df      	b.n	80081fa <_fflush_r+0x22>
 800823a:	4b04      	ldr	r3, [pc, #16]	; (800824c <_fflush_r+0x74>)
 800823c:	429c      	cmp	r4, r3
 800823e:	bf08      	it	eq
 8008240:	68ec      	ldreq	r4, [r5, #12]
 8008242:	e7da      	b.n	80081fa <_fflush_r+0x22>
 8008244:	08008cc8 	.word	0x08008cc8
 8008248:	08008ce8 	.word	0x08008ce8
 800824c:	08008ca8 	.word	0x08008ca8

08008250 <std>:
 8008250:	2300      	movs	r3, #0
 8008252:	b510      	push	{r4, lr}
 8008254:	4604      	mov	r4, r0
 8008256:	e9c0 3300 	strd	r3, r3, [r0]
 800825a:	e9c0 3304 	strd	r3, r3, [r0, #16]
 800825e:	6083      	str	r3, [r0, #8]
 8008260:	8181      	strh	r1, [r0, #12]
 8008262:	6643      	str	r3, [r0, #100]	; 0x64
 8008264:	81c2      	strh	r2, [r0, #14]
 8008266:	6183      	str	r3, [r0, #24]
 8008268:	4619      	mov	r1, r3
 800826a:	2208      	movs	r2, #8
 800826c:	305c      	adds	r0, #92	; 0x5c
 800826e:	f7ff f81b 	bl	80072a8 <memset>
 8008272:	4b05      	ldr	r3, [pc, #20]	; (8008288 <std+0x38>)
 8008274:	6224      	str	r4, [r4, #32]
 8008276:	6263      	str	r3, [r4, #36]	; 0x24
 8008278:	4b04      	ldr	r3, [pc, #16]	; (800828c <std+0x3c>)
 800827a:	62a3      	str	r3, [r4, #40]	; 0x28
 800827c:	4b04      	ldr	r3, [pc, #16]	; (8008290 <std+0x40>)
 800827e:	62e3      	str	r3, [r4, #44]	; 0x2c
 8008280:	4b04      	ldr	r3, [pc, #16]	; (8008294 <std+0x44>)
 8008282:	6323      	str	r3, [r4, #48]	; 0x30
 8008284:	bd10      	pop	{r4, pc}
 8008286:	bf00      	nop
 8008288:	08008661 	.word	0x08008661
 800828c:	08008683 	.word	0x08008683
 8008290:	080086bb 	.word	0x080086bb
 8008294:	080086df 	.word	0x080086df

08008298 <_cleanup_r>:
 8008298:	4901      	ldr	r1, [pc, #4]	; (80082a0 <_cleanup_r+0x8>)
 800829a:	f000 b8af 	b.w	80083fc <_fwalk_reent>
 800829e:	bf00      	nop
 80082a0:	080081d9 	.word	0x080081d9

080082a4 <__sfmoreglue>:
 80082a4:	2268      	movs	r2, #104	; 0x68
 80082a6:	b570      	push	{r4, r5, r6, lr}
 80082a8:	1e4d      	subs	r5, r1, #1
 80082aa:	4355      	muls	r5, r2
 80082ac:	460e      	mov	r6, r1
 80082ae:	f105 0174 	add.w	r1, r5, #116	; 0x74
 80082b2:	f7ff f869 	bl	8007388 <_malloc_r>
 80082b6:	4604      	mov	r4, r0
 80082b8:	b140      	cbz	r0, 80082cc <__sfmoreglue+0x28>
 80082ba:	2100      	movs	r1, #0
 80082bc:	e9c0 1600 	strd	r1, r6, [r0]
 80082c0:	300c      	adds	r0, #12
 80082c2:	60a0      	str	r0, [r4, #8]
 80082c4:	f105 0268 	add.w	r2, r5, #104	; 0x68
 80082c8:	f7fe ffee 	bl	80072a8 <memset>
 80082cc:	4620      	mov	r0, r4
 80082ce:	bd70      	pop	{r4, r5, r6, pc}

080082d0 <__sfp_lock_acquire>:
 80082d0:	4801      	ldr	r0, [pc, #4]	; (80082d8 <__sfp_lock_acquire+0x8>)
 80082d2:	f000 b8b3 	b.w	800843c <__retarget_lock_acquire_recursive>
 80082d6:	bf00      	nop
 80082d8:	200028c9 	.word	0x200028c9

080082dc <__sfp_lock_release>:
 80082dc:	4801      	ldr	r0, [pc, #4]	; (80082e4 <__sfp_lock_release+0x8>)
 80082de:	f000 b8ae 	b.w	800843e <__retarget_lock_release_recursive>
 80082e2:	bf00      	nop
 80082e4:	200028c9 	.word	0x200028c9

080082e8 <__sinit_lock_acquire>:
 80082e8:	4801      	ldr	r0, [pc, #4]	; (80082f0 <__sinit_lock_acquire+0x8>)
 80082ea:	f000 b8a7 	b.w	800843c <__retarget_lock_acquire_recursive>
 80082ee:	bf00      	nop
 80082f0:	200028ca 	.word	0x200028ca

080082f4 <__sinit_lock_release>:
 80082f4:	4801      	ldr	r0, [pc, #4]	; (80082fc <__sinit_lock_release+0x8>)
 80082f6:	f000 b8a2 	b.w	800843e <__retarget_lock_release_recursive>
 80082fa:	bf00      	nop
 80082fc:	200028ca 	.word	0x200028ca

08008300 <__sinit>:
 8008300:	b510      	push	{r4, lr}
 8008302:	4604      	mov	r4, r0
 8008304:	f7ff fff0 	bl	80082e8 <__sinit_lock_acquire>
 8008308:	69a3      	ldr	r3, [r4, #24]
 800830a:	b11b      	cbz	r3, 8008314 <__sinit+0x14>
 800830c:	e8bd 4010 	ldmia.w	sp!, {r4, lr}
 8008310:	f7ff bff0 	b.w	80082f4 <__sinit_lock_release>
 8008314:	e9c4 3312 	strd	r3, r3, [r4, #72]	; 0x48
 8008318:	6523      	str	r3, [r4, #80]	; 0x50
 800831a:	4b13      	ldr	r3, [pc, #76]	; (8008368 <__sinit+0x68>)
 800831c:	4a13      	ldr	r2, [pc, #76]	; (800836c <__sinit+0x6c>)
 800831e:	681b      	ldr	r3, [r3, #0]
 8008320:	62a2      	str	r2, [r4, #40]	; 0x28
 8008322:	42a3      	cmp	r3, r4
 8008324:	bf08      	it	eq
 8008326:	2301      	moveq	r3, #1
 8008328:	4620      	mov	r0, r4
 800832a:	bf08      	it	eq
 800832c:	61a3      	streq	r3, [r4, #24]
 800832e:	f000 f81f 	bl	8008370 <__sfp>
 8008332:	6060      	str	r0, [r4, #4]
 8008334:	4620      	mov	r0, r4
 8008336:	f000 f81b 	bl	8008370 <__sfp>
 800833a:	60a0      	str	r0, [r4, #8]
 800833c:	4620      	mov	r0, r4
 800833e:	f000 f817 	bl	8008370 <__sfp>
 8008342:	2200      	movs	r2, #0
 8008344:	2104      	movs	r1, #4
 8008346:	60e0      	str	r0, [r4, #12]
 8008348:	6860      	ldr	r0, [r4, #4]
 800834a:	f7ff ff81 	bl	8008250 <std>
 800834e:	2201      	movs	r2, #1
 8008350:	2109      	movs	r1, #9
 8008352:	68a0      	ldr	r0, [r4, #8]
 8008354:	f7ff ff7c 	bl	8008250 <std>
 8008358:	2202      	movs	r2, #2
 800835a:	2112      	movs	r1, #18
 800835c:	68e0      	ldr	r0, [r4, #12]
 800835e:	f7ff ff77 	bl	8008250 <std>
 8008362:	2301      	movs	r3, #1
 8008364:	61a3      	str	r3, [r4, #24]
 8008366:	e7d1      	b.n	800830c <__sinit+0xc>
 8008368:	08008bc0 	.word	0x08008bc0
 800836c:	08008299 	.word	0x08008299

08008370 <__sfp>:
 8008370:	b5f8      	push	{r3, r4, r5, r6, r7, lr}
 8008372:	4607      	mov	r7, r0
 8008374:	f7ff ffac 	bl	80082d0 <__sfp_lock_acquire>
 8008378:	4b1e      	ldr	r3, [pc, #120]	; (80083f4 <__sfp+0x84>)
 800837a:	681e      	ldr	r6, [r3, #0]
 800837c:	69b3      	ldr	r3, [r6, #24]
 800837e:	b913      	cbnz	r3, 8008386 <__sfp+0x16>
 8008380:	4630      	mov	r0, r6
 8008382:	f7ff ffbd 	bl	8008300 <__sinit>
 8008386:	3648      	adds	r6, #72	; 0x48
 8008388:	e9d6 3401 	ldrd	r3, r4, [r6, #4]
 800838c:	3b01      	subs	r3, #1
 800838e:	d503      	bpl.n	8008398 <__sfp+0x28>
 8008390:	6833      	ldr	r3, [r6, #0]
 8008392:	b30b      	cbz	r3, 80083d8 <__sfp+0x68>
 8008394:	6836      	ldr	r6, [r6, #0]
 8008396:	e7f7      	b.n	8008388 <__sfp+0x18>
 8008398:	f9b4 500c 	ldrsh.w	r5, [r4, #12]
 800839c:	b9d5      	cbnz	r5, 80083d4 <__sfp+0x64>
 800839e:	4b16      	ldr	r3, [pc, #88]	; (80083f8 <__sfp+0x88>)
 80083a0:	f104 0058 	add.w	r0, r4, #88	; 0x58
 80083a4:	60e3      	str	r3, [r4, #12]
 80083a6:	6665      	str	r5, [r4, #100]	; 0x64
 80083a8:	f000 f847 	bl	800843a <__retarget_lock_init_recursive>
 80083ac:	f7ff ff96 	bl	80082dc <__sfp_lock_release>
 80083b0:	2208      	movs	r2, #8
 80083b2:	4629      	mov	r1, r5
 80083b4:	e9c4 5501 	strd	r5, r5, [r4, #4]
 80083b8:	e9c4 5504 	strd	r5, r5, [r4, #16]
 80083bc:	6025      	str	r5, [r4, #0]
 80083be:	61a5      	str	r5, [r4, #24]
 80083c0:	f104 005c 	add.w	r0, r4, #92	; 0x5c
 80083c4:	f7fe ff70 	bl	80072a8 <memset>
 80083c8:	e9c4 550d 	strd	r5, r5, [r4, #52]	; 0x34
 80083cc:	e9c4 5512 	strd	r5, r5, [r4, #72]	; 0x48
 80083d0:	4620      	mov	r0, r4
 80083d2:	bdf8      	pop	{r3, r4, r5, r6, r7, pc}
 80083d4:	3468      	adds	r4, #104	; 0x68
 80083d6:	e7d9      	b.n	800838c <__sfp+0x1c>
 80083d8:	2104      	movs	r1, #4
 80083da:	4638      	mov	r0, r7
 80083dc:	f7ff ff62 	bl	80082a4 <__sfmoreglue>
 80083e0:	4604      	mov	r4, r0
 80083e2:	6030      	str	r0, [r6, #0]
 80083e4:	2800      	cmp	r0, #0
 80083e6:	d1d5      	bne.n	8008394 <__sfp+0x24>
 80083e8:	f7ff ff78 	bl	80082dc <__sfp_lock_release>
 80083ec:	230c      	movs	r3, #12
 80083ee:	603b      	str	r3, [r7, #0]
 80083f0:	e7ee      	b.n	80083d0 <__sfp+0x60>
 80083f2:	bf00      	nop
 80083f4:	08008bc0 	.word	0x08008bc0
 80083f8:	ffff0001 	.word	0xffff0001

080083fc <_fwalk_reent>:
 80083fc:	e92d 43f8 	stmdb	sp!, {r3, r4, r5, r6, r7, r8, r9, lr}
 8008400:	4606      	mov	r6, r0
 8008402:	4688      	mov	r8, r1
 8008404:	2700      	movs	r7, #0
 8008406:	f100 0448 	add.w	r4, r0, #72	; 0x48
 800840a:	e9d4 9501 	ldrd	r9, r5, [r4, #4]
 800840e:	f1b9 0901 	subs.w	r9, r9, #1
 8008412:	d505      	bpl.n	8008420 <_fwalk_reent+0x24>
 8008414:	6824      	ldr	r4, [r4, #0]
 8008416:	2c00      	cmp	r4, #0
 8008418:	d1f7      	bne.n	800840a <_fwalk_reent+0xe>
 800841a:	4638      	mov	r0, r7
 800841c:	e8bd 83f8 	ldmia.w	sp!, {r3, r4, r5, r6, r7, r8, r9, pc}
 8008420:	89ab      	ldrh	r3, [r5, #12]
 8008422:	2b01      	cmp	r3, #1
 8008424:	d907      	bls.n	8008436 <_fwalk_reent+0x3a>
 8008426:	f9b5 300e 	ldrsh.w	r3, [r5, #14]
 800842a:	3301      	adds	r3, #1
 800842c:	d003      	beq.n	8008436 <_fwalk_reent+0x3a>
 800842e:	4629      	mov	r1, r5
 8008430:	4630      	mov	r0, r6
 8008432:	47c0      	blx	r8
 8008434:	4307      	orrs	r7, r0
 8008436:	3568      	adds	r5, #104	; 0x68
 8008438:	e7e9      	b.n	800840e <_fwalk_reent+0x12>

0800843a <__retarget_lock_init_recursive>:
 800843a:	4770      	bx	lr

0800843c <__retarget_lock_acquire_recursive>:
 800843c:	4770      	bx	lr

0800843e <__retarget_lock_release_recursive>:
 800843e:	4770      	bx	lr

08008440 <__swhatbuf_r>:
 8008440:	b570      	push	{r4, r5, r6, lr}
 8008442:	460e      	mov	r6, r1
 8008444:	f9b1 100e 	ldrsh.w	r1, [r1, #14]
 8008448:	4614      	mov	r4, r2
 800844a:	2900      	cmp	r1, #0
 800844c:	461d      	mov	r5, r3
 800844e:	b096      	sub	sp, #88	; 0x58
 8008450:	da08      	bge.n	8008464 <__swhatbuf_r+0x24>
 8008452:	2200      	movs	r2, #0
 8008454:	f9b6 300c 	ldrsh.w	r3, [r6, #12]
 8008458:	602a      	str	r2, [r5, #0]
 800845a:	061a      	lsls	r2, r3, #24
 800845c:	d410      	bmi.n	8008480 <__swhatbuf_r+0x40>
 800845e:	f44f 6380 	mov.w	r3, #1024	; 0x400
 8008462:	e00e      	b.n	8008482 <__swhatbuf_r+0x42>
 8008464:	466a      	mov	r2, sp
 8008466:	f000 f961 	bl	800872c <_fstat_r>
 800846a:	2800      	cmp	r0, #0
 800846c:	dbf1      	blt.n	8008452 <__swhatbuf_r+0x12>
 800846e:	9a01      	ldr	r2, [sp, #4]
 8008470:	f402 4270 	and.w	r2, r2, #61440	; 0xf000
 8008474:	f5a2 5300 	sub.w	r3, r2, #8192	; 0x2000
 8008478:	425a      	negs	r2, r3
 800847a:	415a      	adcs	r2, r3
 800847c:	602a      	str	r2, [r5, #0]
 800847e:	e7ee      	b.n	800845e <__swhatbuf_r+0x1e>
 8008480:	2340      	movs	r3, #64	; 0x40
 8008482:	2000      	movs	r0, #0
 8008484:	6023      	str	r3, [r4, #0]
 8008486:	b016      	add	sp, #88	; 0x58
 8008488:	bd70      	pop	{r4, r5, r6, pc}
	...

0800848c <__smakebuf_r>:
 800848c:	898b      	ldrh	r3, [r1, #12]
 800848e:	b573      	push	{r0, r1, r4, r5, r6, lr}
 8008490:	079d      	lsls	r5, r3, #30
 8008492:	4606      	mov	r6, r0
 8008494:	460c      	mov	r4, r1
 8008496:	d507      	bpl.n	80084a8 <__smakebuf_r+0x1c>
 8008498:	f104 0347 	add.w	r3, r4, #71	; 0x47
 800849c:	6023      	str	r3, [r4, #0]
 800849e:	6123      	str	r3, [r4, #16]
 80084a0:	2301      	movs	r3, #1
 80084a2:	6163      	str	r3, [r4, #20]
 80084a4:	b002      	add	sp, #8
 80084a6:	bd70      	pop	{r4, r5, r6, pc}
 80084a8:	466a      	mov	r2, sp
 80084aa:	ab01      	add	r3, sp, #4
 80084ac:	f7ff ffc8 	bl	8008440 <__swhatbuf_r>
 80084b0:	9900      	ldr	r1, [sp, #0]
 80084b2:	4605      	mov	r5, r0
 80084b4:	4630      	mov	r0, r6
 80084b6:	f7fe ff67 	bl	8007388 <_malloc_r>
 80084ba:	b948      	cbnz	r0, 80084d0 <__smakebuf_r+0x44>
 80084bc:	f9b4 300c 	ldrsh.w	r3, [r4, #12]
 80084c0:	059a      	lsls	r2, r3, #22
 80084c2:	d4ef      	bmi.n	80084a4 <__smakebuf_r+0x18>
 80084c4:	f023 0303 	bic.w	r3, r3, #3
 80084c8:	f043 0302 	orr.w	r3, r3, #2
 80084cc:	81a3      	strh	r3, [r4, #12]
 80084ce:	e7e3      	b.n	8008498 <__smakebuf_r+0xc>
 80084d0:	4b0d      	ldr	r3, [pc, #52]	; (8008508 <__smakebuf_r+0x7c>)
 80084d2:	62b3      	str	r3, [r6, #40]	; 0x28
 80084d4:	89a3      	ldrh	r3, [r4, #12]
 80084d6:	6020      	str	r0, [r4, #0]
 80084d8:	f043 0380 	orr.w	r3, r3, #128	; 0x80
 80084dc:	81a3      	strh	r3, [r4, #12]
 80084de:	9b00      	ldr	r3, [sp, #0]
 80084e0:	6120      	str	r0, [r4, #16]
 80084e2:	6163      	str	r3, [r4, #20]
 80084e4:	9b01      	ldr	r3, [sp, #4]
 80084e6:	b15b      	cbz	r3, 8008500 <__smakebuf_r+0x74>
 80084e8:	4630      	mov	r0, r6
 80084ea:	f9b4 100e 	ldrsh.w	r1, [r4, #14]
 80084ee:	f000 f92f 	bl	8008750 <_isatty_r>
 80084f2:	b128      	cbz	r0, 8008500 <__smakebuf_r+0x74>
 80084f4:	89a3      	ldrh	r3, [r4, #12]
 80084f6:	f023 0303 	bic.w	r3, r3, #3
 80084fa:	f043 0301 	orr.w	r3, r3, #1
 80084fe:	81a3      	strh	r3, [r4, #12]
 8008500:	89a0      	ldrh	r0, [r4, #12]
 8008502:	4305      	orrs	r5, r0
 8008504:	81a5      	strh	r5, [r4, #12]
 8008506:	e7cd      	b.n	80084a4 <__smakebuf_r+0x18>
 8008508:	08008299 	.word	0x08008299

0800850c <memchr>:
 800850c:	4603      	mov	r3, r0
 800850e:	b510      	push	{r4, lr}
 8008510:	b2c9      	uxtb	r1, r1
 8008512:	4402      	add	r2, r0
 8008514:	4293      	cmp	r3, r2
 8008516:	4618      	mov	r0, r3
 8008518:	d101      	bne.n	800851e <memchr+0x12>
 800851a:	2000      	movs	r0, #0
 800851c:	e003      	b.n	8008526 <memchr+0x1a>
 800851e:	7804      	ldrb	r4, [r0, #0]
 8008520:	3301      	adds	r3, #1
 8008522:	428c      	cmp	r4, r1
 8008524:	d1f6      	bne.n	8008514 <memchr+0x8>
 8008526:	bd10      	pop	{r4, pc}

08008528 <memcpy>:
 8008528:	440a      	add	r2, r1
 800852a:	4291      	cmp	r1, r2
 800852c:	f100 33ff 	add.w	r3, r0, #4294967295
 8008530:	d100      	bne.n	8008534 <memcpy+0xc>
 8008532:	4770      	bx	lr
 8008534:	b510      	push	{r4, lr}
 8008536:	f811 4b01 	ldrb.w	r4, [r1], #1
 800853a:	4291      	cmp	r1, r2
 800853c:	f803 4f01 	strb.w	r4, [r3, #1]!
 8008540:	d1f9      	bne.n	8008536 <memcpy+0xe>
 8008542:	bd10      	pop	{r4, pc}

08008544 <memmove>:
 8008544:	4288      	cmp	r0, r1
 8008546:	b510      	push	{r4, lr}
 8008548:	eb01 0402 	add.w	r4, r1, r2
 800854c:	d902      	bls.n	8008554 <memmove+0x10>
 800854e:	4284      	cmp	r4, r0
 8008550:	4623      	mov	r3, r4
 8008552:	d807      	bhi.n	8008564 <memmove+0x20>
 8008554:	1e43      	subs	r3, r0, #1
 8008556:	42a1      	cmp	r1, r4
 8008558:	d008      	beq.n	800856c <memmove+0x28>
 800855a:	f811 2b01 	ldrb.w	r2, [r1], #1
 800855e:	f803 2f01 	strb.w	r2, [r3, #1]!
 8008562:	e7f8      	b.n	8008556 <memmove+0x12>
 8008564:	4601      	mov	r1, r0
 8008566:	4402      	add	r2, r0
 8008568:	428a      	cmp	r2, r1
 800856a:	d100      	bne.n	800856e <memmove+0x2a>
 800856c:	bd10      	pop	{r4, pc}
 800856e:	f813 4d01 	ldrb.w	r4, [r3, #-1]!
 8008572:	f802 4d01 	strb.w	r4, [r2, #-1]!
 8008576:	e7f7      	b.n	8008568 <memmove+0x24>

08008578 <_realloc_r>:
 8008578:	e92d 41f0 	stmdb	sp!, {r4, r5, r6, r7, r8, lr}
 800857c:	4680      	mov	r8, r0
 800857e:	4614      	mov	r4, r2
 8008580:	460e      	mov	r6, r1
 8008582:	b921      	cbnz	r1, 800858e <_realloc_r+0x16>
 8008584:	4611      	mov	r1, r2
 8008586:	e8bd 41f0 	ldmia.w	sp!, {r4, r5, r6, r7, r8, lr}
 800858a:	f7fe befd 	b.w	8007388 <_malloc_r>
 800858e:	b92a      	cbnz	r2, 800859c <_realloc_r+0x24>
 8008590:	f7fe fe92 	bl	80072b8 <_free_r>
 8008594:	4625      	mov	r5, r4
 8008596:	4628      	mov	r0, r5
 8008598:	e8bd 81f0 	ldmia.w	sp!, {r4, r5, r6, r7, r8, pc}
 800859c:	f000 f8fa 	bl	8008794 <_malloc_usable_size_r>
 80085a0:	4284      	cmp	r4, r0
 80085a2:	4607      	mov	r7, r0
 80085a4:	d802      	bhi.n	80085ac <_realloc_r+0x34>
 80085a6:	ebb4 0f50 	cmp.w	r4, r0, lsr #1
 80085aa:	d812      	bhi.n	80085d2 <_realloc_r+0x5a>
 80085ac:	4621      	mov	r1, r4
 80085ae:	4640      	mov	r0, r8
 80085b0:	f7fe feea 	bl	8007388 <_malloc_r>
 80085b4:	4605      	mov	r5, r0
 80085b6:	2800      	cmp	r0, #0
 80085b8:	d0ed      	beq.n	8008596 <_realloc_r+0x1e>
 80085ba:	42bc      	cmp	r4, r7
 80085bc:	4622      	mov	r2, r4
 80085be:	4631      	mov	r1, r6
 80085c0:	bf28      	it	cs
 80085c2:	463a      	movcs	r2, r7
 80085c4:	f7ff ffb0 	bl	8008528 <memcpy>
 80085c8:	4631      	mov	r1, r6
 80085ca:	4640      	mov	r0, r8
 80085cc:	f7fe fe74 	bl	80072b8 <_free_r>
 80085d0:	e7e1      	b.n	8008596 <_realloc_r+0x1e>
 80085d2:	4635      	mov	r5, r6
 80085d4:	e7df      	b.n	8008596 <_realloc_r+0x1e>

080085d6 <_raise_r>:
 80085d6:	291f      	cmp	r1, #31
 80085d8:	b538      	push	{r3, r4, r5, lr}
 80085da:	4604      	mov	r4, r0
 80085dc:	460d      	mov	r5, r1
 80085de:	d904      	bls.n	80085ea <_raise_r+0x14>
 80085e0:	2316      	movs	r3, #22
 80085e2:	6003      	str	r3, [r0, #0]
 80085e4:	f04f 30ff 	mov.w	r0, #4294967295
 80085e8:	bd38      	pop	{r3, r4, r5, pc}
 80085ea:	6c42      	ldr	r2, [r0, #68]	; 0x44
 80085ec:	b112      	cbz	r2, 80085f4 <_raise_r+0x1e>
 80085ee:	f852 3021 	ldr.w	r3, [r2, r1, lsl #2]
 80085f2:	b94b      	cbnz	r3, 8008608 <_raise_r+0x32>
 80085f4:	4620      	mov	r0, r4
 80085f6:	f000 f831 	bl	800865c <_getpid_r>
 80085fa:	462a      	mov	r2, r5
 80085fc:	4601      	mov	r1, r0
 80085fe:	4620      	mov	r0, r4
 8008600:	e8bd 4038 	ldmia.w	sp!, {r3, r4, r5, lr}
 8008604:	f000 b818 	b.w	8008638 <_kill_r>
 8008608:	2b01      	cmp	r3, #1
 800860a:	d00a      	beq.n	8008622 <_raise_r+0x4c>
 800860c:	1c59      	adds	r1, r3, #1
 800860e:	d103      	bne.n	8008618 <_raise_r+0x42>
 8008610:	2316      	movs	r3, #22
 8008612:	6003      	str	r3, [r0, #0]
 8008614:	2001      	movs	r0, #1
 8008616:	e7e7      	b.n	80085e8 <_raise_r+0x12>
 8008618:	2400      	movs	r4, #0
 800861a:	4628      	mov	r0, r5
 800861c:	f842 4025 	str.w	r4, [r2, r5, lsl #2]
 8008620:	4798      	blx	r3
 8008622:	2000      	movs	r0, #0
 8008624:	e7e0      	b.n	80085e8 <_raise_r+0x12>
	...

08008628 <raise>:
 8008628:	4b02      	ldr	r3, [pc, #8]	; (8008634 <raise+0xc>)
 800862a:	4601      	mov	r1, r0
 800862c:	6818      	ldr	r0, [r3, #0]
 800862e:	f7ff bfd2 	b.w	80085d6 <_raise_r>
 8008632:	bf00      	nop
 8008634:	20000158 	.word	0x20000158

08008638 <_kill_r>:
 8008638:	b538      	push	{r3, r4, r5, lr}
 800863a:	2300      	movs	r3, #0
 800863c:	4d06      	ldr	r5, [pc, #24]	; (8008658 <_kill_r+0x20>)
 800863e:	4604      	mov	r4, r0
 8008640:	4608      	mov	r0, r1
 8008642:	4611      	mov	r1, r2
 8008644:	602b      	str	r3, [r5, #0]
 8008646:	f7f9 f8c5 	bl	80017d4 <_kill>
 800864a:	1c43      	adds	r3, r0, #1
 800864c:	d102      	bne.n	8008654 <_kill_r+0x1c>
 800864e:	682b      	ldr	r3, [r5, #0]
 8008650:	b103      	cbz	r3, 8008654 <_kill_r+0x1c>
 8008652:	6023      	str	r3, [r4, #0]
 8008654:	bd38      	pop	{r3, r4, r5, pc}
 8008656:	bf00      	nop
 8008658:	200028c4 	.word	0x200028c4

0800865c <_getpid_r>:
 800865c:	f7f9 b8b8 	b.w	80017d0 <_getpid>

08008660 <__sread>:
 8008660:	b510      	push	{r4, lr}
 8008662:	460c      	mov	r4, r1
 8008664:	f9b1 100e 	ldrsh.w	r1, [r1, #14]
 8008668:	f000 f89c 	bl	80087a4 <_read_r>
 800866c:	2800      	cmp	r0, #0
 800866e:	bfab      	itete	ge
 8008670:	6d63      	ldrge	r3, [r4, #84]	; 0x54
 8008672:	89a3      	ldrhlt	r3, [r4, #12]
 8008674:	181b      	addge	r3, r3, r0
 8008676:	f423 5380 	biclt.w	r3, r3, #4096	; 0x1000
 800867a:	bfac      	ite	ge
 800867c:	6563      	strge	r3, [r4, #84]	; 0x54
 800867e:	81a3      	strhlt	r3, [r4, #12]
 8008680:	bd10      	pop	{r4, pc}

08008682 <__swrite>:
 8008682:	e92d 41f0 	stmdb	sp!, {r4, r5, r6, r7, r8, lr}
 8008686:	461f      	mov	r7, r3
 8008688:	898b      	ldrh	r3, [r1, #12]
 800868a:	4605      	mov	r5, r0
 800868c:	05db      	lsls	r3, r3, #23
 800868e:	460c      	mov	r4, r1
 8008690:	4616      	mov	r6, r2
 8008692:	d505      	bpl.n	80086a0 <__swrite+0x1e>
 8008694:	2302      	movs	r3, #2
 8008696:	2200      	movs	r2, #0
 8008698:	f9b1 100e 	ldrsh.w	r1, [r1, #14]
 800869c:	f000 f868 	bl	8008770 <_lseek_r>
 80086a0:	89a3      	ldrh	r3, [r4, #12]
 80086a2:	4632      	mov	r2, r6
 80086a4:	f423 5380 	bic.w	r3, r3, #4096	; 0x1000
 80086a8:	81a3      	strh	r3, [r4, #12]
 80086aa:	4628      	mov	r0, r5
 80086ac:	463b      	mov	r3, r7
 80086ae:	f9b4 100e 	ldrsh.w	r1, [r4, #14]
 80086b2:	e8bd 41f0 	ldmia.w	sp!, {r4, r5, r6, r7, r8, lr}
 80086b6:	f000 b817 	b.w	80086e8 <_write_r>

080086ba <__sseek>:
 80086ba:	b510      	push	{r4, lr}
 80086bc:	460c      	mov	r4, r1
 80086be:	f9b1 100e 	ldrsh.w	r1, [r1, #14]
 80086c2:	f000 f855 	bl	8008770 <_lseek_r>
 80086c6:	1c43      	adds	r3, r0, #1
 80086c8:	89a3      	ldrh	r3, [r4, #12]
 80086ca:	bf15      	itete	ne
 80086cc:	6560      	strne	r0, [r4, #84]	; 0x54
 80086ce:	f423 5380 	biceq.w	r3, r3, #4096	; 0x1000
 80086d2:	f443 5380 	orrne.w	r3, r3, #4096	; 0x1000
 80086d6:	81a3      	strheq	r3, [r4, #12]
 80086d8:	bf18      	it	ne
 80086da:	81a3      	strhne	r3, [r4, #12]
 80086dc:	bd10      	pop	{r4, pc}

080086de <__sclose>:
 80086de:	f9b1 100e 	ldrsh.w	r1, [r1, #14]
 80086e2:	f000 b813 	b.w	800870c <_close_r>
	...

080086e8 <_write_r>:
 80086e8:	b538      	push	{r3, r4, r5, lr}
 80086ea:	4604      	mov	r4, r0
 80086ec:	4608      	mov	r0, r1
 80086ee:	4611      	mov	r1, r2
 80086f0:	2200      	movs	r2, #0
 80086f2:	4d05      	ldr	r5, [pc, #20]	; (8008708 <_write_r+0x20>)
 80086f4:	602a      	str	r2, [r5, #0]
 80086f6:	461a      	mov	r2, r3
 80086f8:	f7f9 f88a 	bl	8001810 <_write>
 80086fc:	1c43      	adds	r3, r0, #1
 80086fe:	d102      	bne.n	8008706 <_write_r+0x1e>
 8008700:	682b      	ldr	r3, [r5, #0]
 8008702:	b103      	cbz	r3, 8008706 <_write_r+0x1e>
 8008704:	6023      	str	r3, [r4, #0]
 8008706:	bd38      	pop	{r3, r4, r5, pc}
 8008708:	200028c4 	.word	0x200028c4

0800870c <_close_r>:
 800870c:	b538      	push	{r3, r4, r5, lr}
 800870e:	2300      	movs	r3, #0
 8008710:	4d05      	ldr	r5, [pc, #20]	; (8008728 <_close_r+0x1c>)
 8008712:	4604      	mov	r4, r0
 8008714:	4608      	mov	r0, r1
 8008716:	602b      	str	r3, [r5, #0]
 8008718:	f7f9 f888 	bl	800182c <_close>
 800871c:	1c43      	adds	r3, r0, #1
 800871e:	d102      	bne.n	8008726 <_close_r+0x1a>
 8008720:	682b      	ldr	r3, [r5, #0]
 8008722:	b103      	cbz	r3, 8008726 <_close_r+0x1a>
 8008724:	6023      	str	r3, [r4, #0]
 8008726:	bd38      	pop	{r3, r4, r5, pc}
 8008728:	200028c4 	.word	0x200028c4

0800872c <_fstat_r>:
 800872c:	b538      	push	{r3, r4, r5, lr}
 800872e:	2300      	movs	r3, #0
 8008730:	4d06      	ldr	r5, [pc, #24]	; (800874c <_fstat_r+0x20>)
 8008732:	4604      	mov	r4, r0
 8008734:	4608      	mov	r0, r1
 8008736:	4611      	mov	r1, r2
 8008738:	602b      	str	r3, [r5, #0]
 800873a:	f7f9 f87b 	bl	8001834 <_fstat>
 800873e:	1c43      	adds	r3, r0, #1
 8008740:	d102      	bne.n	8008748 <_fstat_r+0x1c>
 8008742:	682b      	ldr	r3, [r5, #0]
 8008744:	b103      	cbz	r3, 8008748 <_fstat_r+0x1c>
 8008746:	6023      	str	r3, [r4, #0]
 8008748:	bd38      	pop	{r3, r4, r5, pc}
 800874a:	bf00      	nop
 800874c:	200028c4 	.word	0x200028c4

08008750 <_isatty_r>:
 8008750:	b538      	push	{r3, r4, r5, lr}
 8008752:	2300      	movs	r3, #0
 8008754:	4d05      	ldr	r5, [pc, #20]	; (800876c <_isatty_r+0x1c>)
 8008756:	4604      	mov	r4, r0
 8008758:	4608      	mov	r0, r1
 800875a:	602b      	str	r3, [r5, #0]
 800875c:	f7f9 f870 	bl	8001840 <_isatty>
 8008760:	1c43      	adds	r3, r0, #1
 8008762:	d102      	bne.n	800876a <_isatty_r+0x1a>
 8008764:	682b      	ldr	r3, [r5, #0]
 8008766:	b103      	cbz	r3, 800876a <_isatty_r+0x1a>
 8008768:	6023      	str	r3, [r4, #0]
 800876a:	bd38      	pop	{r3, r4, r5, pc}
 800876c:	200028c4 	.word	0x200028c4

08008770 <_lseek_r>:
 8008770:	b538      	push	{r3, r4, r5, lr}
 8008772:	4604      	mov	r4, r0
 8008774:	4608      	mov	r0, r1
 8008776:	4611      	mov	r1, r2
 8008778:	2200      	movs	r2, #0
 800877a:	4d05      	ldr	r5, [pc, #20]	; (8008790 <_lseek_r+0x20>)
 800877c:	602a      	str	r2, [r5, #0]
 800877e:	461a      	mov	r2, r3
 8008780:	f7f9 f860 	bl	8001844 <_lseek>
 8008784:	1c43      	adds	r3, r0, #1
 8008786:	d102      	bne.n	800878e <_lseek_r+0x1e>
 8008788:	682b      	ldr	r3, [r5, #0]
 800878a:	b103      	cbz	r3, 800878e <_lseek_r+0x1e>
 800878c:	6023      	str	r3, [r4, #0]
 800878e:	bd38      	pop	{r3, r4, r5, pc}
 8008790:	200028c4 	.word	0x200028c4

08008794 <_malloc_usable_size_r>:
 8008794:	f851 3c04 	ldr.w	r3, [r1, #-4]
 8008798:	1f18      	subs	r0, r3, #4
 800879a:	2b00      	cmp	r3, #0
 800879c:	bfbc      	itt	lt
 800879e:	580b      	ldrlt	r3, [r1, r0]
 80087a0:	18c0      	addlt	r0, r0, r3
 80087a2:	4770      	bx	lr

080087a4 <_read_r>:
 80087a4:	b538      	push	{r3, r4, r5, lr}
 80087a6:	4604      	mov	r4, r0
 80087a8:	4608      	mov	r0, r1
 80087aa:	4611      	mov	r1, r2
 80087ac:	2200      	movs	r2, #0
 80087ae:	4d05      	ldr	r5, [pc, #20]	; (80087c4 <_read_r+0x20>)
 80087b0:	602a      	str	r2, [r5, #0]
 80087b2:	461a      	mov	r2, r3
 80087b4:	f7f9 f81e 	bl	80017f4 <_read>
 80087b8:	1c43      	adds	r3, r0, #1
 80087ba:	d102      	bne.n	80087c2 <_read_r+0x1e>
 80087bc:	682b      	ldr	r3, [r5, #0]
 80087be:	b103      	cbz	r3, 80087c2 <_read_r+0x1e>
 80087c0:	6023      	str	r3, [r4, #0]
 80087c2:	bd38      	pop	{r3, r4, r5, pc}
 80087c4:	200028c4 	.word	0x200028c4

080087c8 <_init>:
 80087c8:	b5f8      	push	{r3, r4, r5, r6, r7, lr}
 80087ca:	bf00      	nop
 80087cc:	bcf8      	pop	{r3, r4, r5, r6, r7}
 80087ce:	bc08      	pop	{r3}
 80087d0:	469e      	mov	lr, r3
 80087d2:	4770      	bx	lr

080087d4 <_fini>:
 80087d4:	b5f8      	push	{r3, r4, r5, r6, r7, lr}
 80087d6:	bf00      	nop
 80087d8:	bcf8      	pop	{r3, r4, r5, r6, r7}
 80087da:	bc08      	pop	{r3}
 80087dc:	469e      	mov	lr, r3
 80087de:	4770      	bx	lr
